(lp0
Vangeldeb82
p1
aVal-andalusi
p2
aVticklewickleukulele
p3
aVmiguelemejia
p4
aVjmyrlefuller
p5
aVpatapsco913
p6
aVwcquidditch
p7
aVbigears42
p8
aVstevey7788
p9
aVcassianto
p10
aVcaringtype1
p11
aVasdfgh
p12
aVgvnayr
p13
aVthree-quarter-ten
p14
aVgcstackmoney
p15
aVmichael5046
p16
aVdadaneem
p17
aVzonafan39
p18
aVvik-thor
p19
aVswistertwister
p20
aVevaders99
p21
aVvipersnake151
p22
aVravichandar84
p23
aVkoavf
p24
aVa31lover
p25
aVinvertzoo
p26
aVhectormoffet
p27
aVdcirovic
p28
aVbollyjeff
p29
aVacwbuff276
p30
aVjytdog
p31
aVlugia2453
p32
aVfrance3470
p33
aVofficer781
p34
aVthespecialuser
p35
aVshipguy
p36
aVkupirijo
p37
aVfuturist110
p38
aVstylteralmaldo
p39
aVaymatth2
p40
aVhertz1888
p41
aVgene93k
p42
aVhugosworld92
p43
aVkaran1974
p44
aVnonenmac
p45
aVbobrayner
p46
aVxpto
p47
aVponyo
p48
aVmedeis
p49
aVjoannaserah
p50
aVnabla
p51
aVnightscream
p52
aVjamesam
p53
aVjun19
p54
aVminiapolis
p55
aVprimehunter
p56
aVthakaran
p57
aVnoname2
p58
aVmaunus
p59
aVjonridinger
p60
aVqworty
p61
aVwareh
p62
aVjcrules
p63
aVcawylie
p64
aVfisherqueen
p65
aVwikidemon
p66
aVinevercry
p67
aVcarrite
p68
aVkissoffire
p69
aVvsmith
p70
aVkaiketsu
p71
aVthefarix
p72
aVgeorgelouis
p73
aVgoingbatty
p74
aVjampilot
p75
aVattys
p76
aVhulmem
p77
aVkatharineamy
p78
aVchetvorno
p79
aVdainomite
p80
aVdavejohnsan
p81
aVtvoz
p82
aVedmon74
p83
aVmaclean25
p84
aVjayemd
p85
aVspacepotato
p86
a.