(lp0
Vangeldeb82
p1
aVal-andalusi
p2
aVticklewickleukulele
p3
aVmiguelemejia
p4
aVjmyrlefuller
p5
aVpatapsco913
p6
aVwcquidditch
p7
aVbigears42
p8
aVstevey7788
p9
aVcassianto
p10
aVcaringtype1
p11
aVasdfgh
p12
aVgvnayr
p13
aVthree-quarter-ten
p14
aVgcstackmoney
p15
aVmichael5046
p16
aVdadaneem
p17
aVzonafan39
p18
aVvik-thor
p19
aVswistertwister
p20
aVevaders99
p21
aVvipersnake151
p22
aVravichandar84
p23
aVkoavf
p24
aVa31lover
p25
aVinvertzoo
p26
aVhectormoffet
p27
aVdcirovic
p28
aVbollyjeff
p29
aVacwbuff276
p30
aVjytdog
p31
aVlugia2453
p32
aVfrance3470
p33
aVofficer781
p34
aVthespecialuser
p35
aVshipguy
p36
aVkupirijo
p37
aVfuturist110
p38
aVstylteralmaldo
p39
aVaymatth2
p40
aVhertz1888
p41
aVgene93k
p42
aVhugosworld92
p43
aVkaran1974
p44
aVnonenmac
p45
aVbobrayner
p46
aVxpto
p47
aVponyo
p48
aVmedeis
p49
aVjoannaserah
p50
aVnabla
p51
aVnightscream
p52
aVjamesam
p53
aVjun19
p54
aVminiapolis
p55
aVprimehunter
p56
aVthakaran
p57
aVnoname2
p58
aVmaunus
p59
aVjonridinger
p60
aVqworty
p61
aVwareh
p62
aVjcrules
p63
aVcawylie
p64
aVfisherqueen
p65
aVwikidemon
p66
aVinevercry
p67
aVcarrite
p68
aVkissoffire
p69
aVvsmith
p70
aVkaiketsu
p71
aVthefarix
p72
aVgeorgelouis
p73
aVgoingbatty
p74
aVjampilot
p75
aVattys
p76
aVhulmem
p77
aVkatharineamy
p78
aVchetvorno
p79
aVdainomite
p80
aVdavejohnsan
p81
aVtvoz
p82
aVedmon74
p83
aVmaclean25
p84
aVjayemd
p85
aVspacepotato
p86
aVplastikspork
p87
aVsuslindisambiguator
p88
aVjunegloom07
p89
aVgimlidotnet
p90
aVboneyard90
p91
aVcplakidas
p92
aVllamaal
p93
aVdrttm
p94
aVcharlesaaronthompson
p95
aVnoommos
p96
aVarthur7171
p97
aVmrmoustachemm
p98
aVcresix
p99
aVhchc2009
p100
aVsundostund
p101
aVrangoon11
p102
aVtigerboy1966
p103
aVdavidhorman
p104
aVjihadcola
p105
aVsdpatrolbot
p106
aVkiefer.wolfowitz
p107
aVtot-futbol
p108
aVamitchell125
p109
aVsummerphd
p110
aVtheoldjacobite
p111
aVroseohioresident
p112
aVdthomsen8
p113
aVgbern3
p114
aVlobsterthermidor
p115
aVsmkolins
p116
aVwiqi55
p117
aVz105space
p118
aVguliolopez
p119
aVdrmies
p120
aVwassup234
p121
aVjllm06
p122
aVpatgallacher
p123
aVarnoldreinhold
p124
aVtriggerhippie4
p125
aVgtwfan52
p126
aVpinethicket
p127
aVclarityfiend
p128
aVbman518
p129
aVjennie--x
p130
aVmahmudmasri
p131
aVplastikspork
p132
aVajona1992
p133
aVe4024
p134
aVanomiebot
p135
aVcanadarox11
p136
aVmuboshgu
p137
aVkennvido
p138
aVmidnightblueowl
p139
aVbraincricket
p140
aVfaizanalivarya
p141
aVtimeshift9
p142
aVjoshusasori
p143
aVnearthezoo
p144
aVfotophest
p145
aVsopher99
p146
aVlzdimitar
p147
aVsummerphd
p148
aVkrtek2125
p149
aVwikhead
p150
aVsvgalbertian
p151
aVprioryman
p152
aVfuhghettaboutit
p153
aVninmacer20
p154
aVjackshestak
p155
aVjohnluisocasio
p156
aVgeraldshields11
p157
aVl.tak
p158
aVgopurplengold24
p159
aVmaterialscientist
p160
aVwassup234
p161
aVmpj-dk
p162
aVblinkman44
p163
aVdjembayz
p164
aVwest.andrew.g
p165
aVdrdpw
p166
aV7&6=thirteen
p167
aVinwind
p168
aVmimich
p169
aVdgg
p170
aVswcrowe
p171
aVwonderwizard
p172
aVjb82
p173
aVviriditas
p174
aVburbridge92
p175
aVfraytel
p176
aVallen3
p177
aValfietucker
p178
aVjlee1
p179
aVtimtom27
p180
aVmcld
p181
aVbuckshot06
p182
aVgerhard51
p183
aVmarchije
p184
aVcityofsilver
p185
aVmoonraker
p186
aVkante4
p187
aVwoodlot
p188
aVtassedethe
p189
aVmammalia
p190
aVaboutmovies
p191
aVtimike
p192
aVliamk97
p193
aVcirt
p194
aVxenophrenic
p195
aVagk
p196
aVkatangais
p197
aVsupermarioman
p198
aVmichaelqschmidt
p199
aVbenzy19
p200
aVtraveler100
p201
aVgrahamhardy
p202
aVdemiurge1000
p203
aVfroid
p204
aVcarolehenson
p205
aVkraxler
p206
aVeng66
p207
aVybg
p208
aVnlu
p209
aVlittlewink
p210
aVrikster2
p211
aVgobonobo
p212
aVsiefkindr
p213
aVredrose64
p214
aVstigni
p215
aVjustice007
p216
aVbetterusername
p217
aVcmr08
p218
aVyeepsi
p219
aVlaurahale
p220
aVbretonbanquet
p221
aVtparis
p222
aVbrianboulton
p223
aVzwarrior2
p224
aVschwede66
p225
aVpeaceray
p226
aVtenpoundhammer
p227
aVdiannaa
p228
aVhtonl
p229
aVabductive
p230
aV7
p231
aVmigitgem2009
p232
aVgfhandel
p233
aVnlu
p234
aVrfd
p235
aVurbannerd
p236
aVandrol
p237
aVhzh
p238
aVamadscientist
p239
aVdwanyewest
p240
aVewawer
p241
aVnightfall87
p242
aVmartingugino
p243
aVsp33dyphil
p244
aVjtalledo
p245
aVgulbenk
p246
aVtech77
p247
aVstevestrummer
p248
aVdarkwind
p249
aVsupermarioman
p250
aVrjn
p251
aVdan56
p252
aVcomatmebro
p253
aVwillness
p254
aVkerfuffler
p255
aVcrboyer
p256
aVmartincollin
p257
aVmkweise
p258
aVjonnybonesjones
p259
aVinstaurare
p260
aVnorthamerica1000
p261
aVtedderbot
p262
aVprayerfortheworld
p263
aVjfdwolff
p264
aVianrootbeerdubber
p265
aVirwolfie-
p266
aVjefferythegambler
p267
aVgadget850
p268
aVroyalmate1
p269
aVshadowultra
p270
aVsafehaven86
p271
aVthemeparkgc
p272
aVbobster687
p273
aVasmpgmr
p274
aVsayerslle
p275
aVveriss1
p276
aVsenator2029
p277
aVrtkat3
p278
aVwakari07
p279
aVantony-22
p280
aVdough4872
p281
aVwikipedical
p282
aVthechampionman1234
p283
aVvegaswikian
p284
aVmattythewhite
p285
aVx96lee15
p286
aVbbb23
p287
aVebaychatter0
p288
aVandythegrump
p289
aVkoplimek
p290
aVzzyzx11
p291
aV3family6
p292
aVjac16888
p293
aVwetdogmeat
p294
aVthetimesareachanging
p295
aVdepiep
p296
aVsudoghost
p297
aVpikolas
p298
aVbonnie13j
p299
aVcatgamer
p300
aVcasliber
p301
aVfeezo
p302
aVbuzybody
p303
aVfluffernutter
p304
aVphmoreno
p305
aVandysteve
p306
aVlafuzion
p307
aVjonesy702
p308
aVczarkoff
p309
aVairwolf
p310
aVjayron32
p311
aVludde23
p312
aVguilhermesoccer
p313
aVborn2cycle
p314
aVwonchop
p315
aVkirtap92
p316
aVjburlinson
p317
aVxaviersc
p318
aVjojhutton
p319
aVgyrobo
p320
aVacp2011
p321
aVdotsey
p322
aVsmalljim
p323
aVgoodday
p324
aVottawahitech
p325
aVlguipontes
p326
aVsrich32977
p327
aVgreat50
p328
aVmarketdiamond
p329
aVwehwalt
p330
aVdrmicro
p331
aVfortguy
p332
aVohwiki
p333
aVekem
p334
aVdjjazzyb
p335
aVdom497
p336
aVblueboar
p337
aVdialectric
p338
aVhidecchi001
p339
aVcyberpower678
p340
aVbanhtrung1
p341
aVheadhitter
p342
aVeditore
p343
aVtijfo098
p344
aVedgepedia
p345
aVfma12
p346
aVdarkwarriorblake
p347
aVgoldringchip
p348
aVbuffs
p349
aVdanjel
p350
aVcarcharoth
p351
aVbkonrad
p352
aVbrownhairedgirl
p353
aVathenean
p354
aVpfhlai
p355
aVmrx
p356
aVsean.hoyland
p357
aVrichiekim
p358
aVarmbrust
p359
aVtermininja
p360
aVfaycal.09
p361
aVmichig
p362
aVvjmlhds
p363
aVobtund
p364
aVtffff
p365
aVstemonitis
p366
aVnorden1990
p367
aVbusterd
p368
aVdrkiernan
p369
aVaussielegend
p370
aVdeltaquad
p371
aVkintetsubuffalo
p372
aVrrburke
p373
aVmaybemaybemaybe
p374
aVrodw
p375
aVgreatorangepumpkin
p376
aVstepho-wrs
p377
aVotvis
p378
aVjaellee
p379
aVm2545
p380
aVtwp
p381
aVdormskirk
p382
aVkhazar2
p383
aVpeacemaker67
p384
aVgarik
p385
aVemeraude
p386
aVuriahdan
p387
aVwadesimmiser
p388
aVsf07
p389
aVajmint
p390
aVmelbournestar
p391
aVsaravask
p392
aVdrbogdan
p393
aVsrithern
p394
aVtaalverbeteraar
p395
aVguillaume2303
p396
aVfortdj33
p397
aValexgrim
p398
aVbmcln1
p399
aVadabowthesecond
p400
aVkeizers
p401
aVvoid2258
p402
aVlugnuts
p403
aValexgreene87
p404
aVskyblueshaun
p405
aVspinningspark
p406
aVpvmoutside
p407
aVcaptainm
p408
aVmuhends
p409
aVlurulu
p410
aVsportsmaster
p411
aVbeagel
p412
aVmoocowsrock
p413
aVchanheigeorge
p414
aVnv8200p
p415
aVsirrussellott
p416
aVdismas
p417
aVjowaninpensans
p418
aVihardlythinkso
p419
aVmhockey
p420
aVhello71
p421
aVfurrysings
p422
aVgeregen2
p423
aValborzagros
p424
aVzealous37
p425
aVahunt
p426
aVgilliganfanatic
p427
aVmrbluesky
p428
aVzappaomati
p429
aVillazilla
p430
aVthincat
p431
aVthue
p432
aVantidiskriminator
p433
aVbyblios
p434
aVsmarojit
p435
aVpeeky44
p436
aVrobsiej
p437
aVleesw616
p438
aVraintheone
p439
aVrosser1954
p440
aVterraflorin
p441
aVkai445
p442
aVl.willms
p443
aVykvach
p444
aValexk785
p445
aVraymarcbadz
p446
aVlmmnhn
p447
aVubcule
p448
aVdencod16
p449
aVquondum
p450
aValienx2009
p451
aVschreyp
p452
aVblackgaia02
p453
aVthemightygeneral
p454
aVvitorvicentevalente
p455
aVkwamikagami
p456
aVaumnamahashiva
p457
aVdavykamanzi
p458
aV123465421jhytwretpo98721654
p459
aVtikiwont
p460
aVgaga.vaa
p461
aVwikipeterproject
p462
aVgreenock125
p463
aVdrovethrughosts
p464
aVdumbbot
p465
aVsamar
p466
aVkingturtle
p467
aVmarcusbritish
p468
aVgorobay
p469
aVcmbj
p470
aVjmorrison230582
p471
aVallied45
p472
aVdirtlawyer1
p473
aVcollect
p474
aVperidon
p475
aVdoc9871
p476
aVmeno25
p477
aVshyamal
p478
aVdorje108
p479
aVcodecat
p480
aVgyopi
p481
aVlomn
p482
aVksherin
p483
aVbenlisquare
p484
aVgregorb
p485
aVtobby72
p486
aVmaias
p487
aVmikenorton
p488
aVbonadea
p489
aVjdallen
p490
aVbrad101
p491
aVjanuary
p492
aVpdiddyjr
p493
aVdutchtreat
p494
aVyerevanci
p495
aVholiday56
p496
aVbleudxxxiv
p497
aVjohnsroberts99
p498
aVtexianpolitico
p499
aVfairlyoddparents1234
p500
aVnarutolovehinata5
p501
aViwannaabillionaire
p502
aVclemrutter
p503
aVniemti
p504
aVduckisjammmy
p505
aVeddiev2003
p506
aVmatthewvanitas
p507
aVgoustien
p508
aVmiddayexpress
p509
aVmalcolmxl5
p510
aVtheheronguard
p511
aVmandsford
p512
aVgilabrand
p513
aVegghead06
p514
aVshaddim
p515
aVomnipaedista
p516
aVbrunoptsem
p517
aVdawnbtvs
p518
aVsteel
p519
aVborsoka
p520
aVmariordo
p521
aVmauls
p522
aVjohnindc
p523
aVnarom
p524
aVbigone01
p525
aVtango
p526
aVhadger
p527
aVabbyjjj96
p528
aVsarastro1
p529
aVmwak
p530
aVcarniolus
p531
aVcossde
p532
aVchipmunkdavis
p533
aVdsp13
p534
aVvivafilipinas
p535
aVemanwilm
p536
aVlinas
p537
aVmar4d
p538
aVhonortheking
p539
aVrjfjr
p540
aVwdchk
p541
aVthefreeloader
p542
aVkrystaleen
p543
aVymblanter
p544
aVvivvt
p545
aVsupasun
p546
aVmbush84
p547
aV19thpharaoh
p548
aVmasem
p549
aVstephenmusic
p550
aVpajfarmor
p551
aVrewf12012
p552
aVrunehelmet
p553
aVshelfskewed
p554
aVwbm1058
p555
aVjmh649
p556
aVrosiestep
p557
aVnandt1
p558
aVtangotizerwolfstone
p559
aVobi2canibe
p560
aVmrceleb2007
p561
aVhomagetocatalonia
p562
aVsimuliid
p563
aVjimfbleak
p564
aVdlv999
p565
aVfaolin42
p566
aVwoslinker
p567
aVsatyrtn
p568
aViniced
p569
aVmadgeographer
p570
aVpdtantisocial
p571
aVzozo2kx
p572
aViliochori
p573
aVabsurdist1968
p574
aVmrpenguin20
p575
aVpjotrmahh1
p576
aVjeffhardyred
p577
aVfasouzafreitas
p578
aVmartinvillafuerte85
p579
aVhgb1217
p580
aVeditorofthewiki
p581
aVsupportstorm
p582
aVhike395
p583
aVknowledgekid87
p584
aVtyp932
p585
aVulric1313
p586
aVbahnfrend
p587
aVasmazif
p588
aVrichardmills65
p589
aVstillwaterising
p590
aVhammersoft
p591
aVsnappy
p592
aVfanofpopmusic
p593
aVtrekkielo
p594
aVssilvers
p595
aVbigar
p596
aVeneville
p597
aVross4587
p598
aVskysmith
p599
aVtoddst1
p600
aVheadstrong4ever
p601
aVmariomassone
p602
aV1zackman
p603
aVsadalsuud
p604
aVguillaumetell
p605
aVmc32
p606
aVhiddenstranger
p607
aVtrivialist
p608
aVmatej1234
p609
aVtempo21
p610
aVpietaster
p611
aVkokoro20
p612
aVmdann52
p613
aVpichpich
p614
aVbluemoonset
p615
aVsmokefoot
p616
aVjmabel
p617
aVhahc21
p618
aVjcarls1
p619
aVechetusxe
p620
aVhistory2007
p621
aVnouniquenames
p622
aVlfstevens
p623
aVphiltro
p624
aVkumioko
p625
aVbentels
p626
aVstfg
p627
aVanguswoof
p628
aVdenniss
p629
aVrail88
p630
aVbd2412
p631
aVnhsavage
p632
aVfdutil
p633
aVmcphail
p634
aVwilliamje
p635
aVglrx
p636
aVjsjsjs1111
p637
aVrasnaboy
p638
aVvis-a-visconti
p639
aVdizagaox
p640
aVwebclient101
p641
aVsaddhiyama
p642
aVicebrotherhood
p643
aVgregjackp
p644
aVnite-sirk
p645
aVbinksternet
p646
aVgabeiglesia
p647
aVr-41
p648
aVrivertorch
p649
aVweglinde
p650
aVarsenalkid700
p651
aVmrt3366
p652
aVsufur222
p653
aVelectriccatfish2
p654
aVngebendi
p655
aVastros4477
p656
aVserendipodous
p657
aVfsmatovu
p658
aVglimmer721
p659
aVtbrandley
p660
aVgrindtxx
p661
aV4meter4
p662
aVgibmetal77
p663
aVtruthanado
p664
aVtylerdurden8823
p665
aVactivism1234
p666
aVsysmithfan
p667
aVcs-wolves
p668
aVkhanassassin
p669
aVpoeticbent
p670
aVeldumpo
p671
aVbarcex
p672
aVktr101
p673
aValexynho
p674
aVmusiclover
p675
aVxfansd
p676
aVmathsci
p677
aVpfhorrest
p678
aVdavid1217
p679
aVbishonen
p680
aVcaponer
p681
aVfrietjes
p682
aVnaphit
p683
aVkudzuvine
p684
aVdusanbasic
p685
aVlasius
p686
aVvalenciano
p687
aVbigmorr
p688
aVhippietrail
p689
aVquidam65
p690
aVjavadhidden
p691
aVsilktork
p692
aVpamd
p693
aVshinkolobwe
p694
aVwildcherry06
p695
aVaspects
p696
aVpcock
p697
aVhalmstad
p698
aViqual
p699
aVhazhk
p700
aVlamro
p701
aVedwarddutton
p702
aVukexpat
p703
aVtgcp
p704
aVsalih
p705
aVrgloucester
p706
aVbonkeroo
p707
aVrmallett
p708
aVvvven
p709
aVmartinp1
p710
aVmrsc
p711
aVtabarez
p712
aVedokter
p713
aVbkell
p714
aVmaxim
p715
aVmongo
p716
aVdmacks
p717
aVjaume87
p718
aVeagertoddler39
p719
aVegeymi
p720
aVeditor2020
p721
aViznorepeat
p722
aVsarahstierch
p723
aVmilborneone
p724
aVkconwiki
p725
aVkoorosh1234
p726
aVdamwiki1
p727
aVthomas.w
p728
aVesw01407
p729
aVscaryspoofy1
p730
aVruigeroeland
p731
aVnd4su
p732
aVbovineboy2008
p733
aVfigureskatingfan
p734
aVcourtneybonnick
p735
aValexmcfire
p736
aVmediocrevisitor
p737
aVbrianboru10
p738
aVthricecube
p739
aVehrenkater
p740
aVvalentfred
p741
aVunscintillating
p742
aVhurricanehink
p743
aVbob1960evens
p744
aVmercurywoodrose
p745
aVnirvana2013
p746
aVde728631
p747
aVglacier109
p748
aVzigzig20s
p749
aVtrinitresque
p750
aVldavid1985
p751
aVthryduulf
p752
aVbheuninckx
p753
aVmitchazenia
p754
aVnick.mon
p755
aVdzlinker
p756
aVparutakupiu
p757
aVshearonink
p758
aVmudwater
p759
aVamerica789
p760
aVwester
p761
aVjohnnymrninja
p762
aValeksanderpc
p763
aVflowerpotman
p764
aV777sms
p765
aVjbrown23
p766
aVisaacl
p767
aVtenebrae
p768
aVkto288
p769
aVdreadstar
p770
aVdementia13
p771
aVdeinocheirus
p772
aVenochbethany
p773
aVdawgdeputy
p774
aVcpl123
p775
aVsjones23
p776
aVfredddie
p777
aVmastcell
p778
aVfreewaydan
p779
aVyngvadottir
p780
aVylee
p781
aVjjl
p782
aVhomunq
p783
aVprolog
p784
aVracklever
p785
aVamalthea
p786
aVra0808
p787
aVpenbat
p788
aVkibiusa
p789
aVrobinclay
p790
aValbertsm
p791
aVdantasu
p792
aVcsurla
p793
aVtinman44
p794
aVsteelbeard1
p795
aVmistymorn
p796
aVcatpath
p797
aVnightwolf87
p798
aVthunderbrand
p799
aVnicat49
p800
aVjfhjr
p801
aVw163
p802
aVrhaworth
p803
aVaprock
p804
aVgoalway
p805
aVironholds
p806
aVshrike
p807
aVsobreira
p808
aV29ah
p809
aVfry1989
p810
aVredwolf
p811
aVloginnigol
p812
aVrossdegenstein
p813
aVjip
p814
aVoknazevad
p815
aVceegee
p816
aVsubman758
p817
aVwhispertome
p818
aVboson
p819
aVhebrides
p820
aVthibbs
p821
aVyankees10
p822
aVj04n
p823
aVthrissel
p824
aVtfunk
p825
aVjedi94
p826
aVblackmetalbaz
p827
aVshortride
p828
aVgauravjuvekar
p829
aVdalbster
p830
aVcavarrone
p831
aVgrahamcolm
p832
aVsitush
p833
aVjoeloeb
p834
aVnorthernthunder
p835
aVplayer017
p836
aVakatheflake
p837
aVboleyn
p838
aVobi-wankenobi-2005
p839
aVhillock65
p840
aVcorkman
p841
aVabhishekitmbm
p842
aVhuon
p843
aVedgar181
p844
aVkirrages
p845
aVhandsomefella
p846
aVbeeblebrox
p847
aVjklamo
p848
aVhmich176
p849
aVswampyank
p850
aVvernowhitney
p851
aVmr.98
p852
aVjasonbres
p853
aVoskar71
p854
aVcolin
p855
aVmarnetted
p856
aVwilliamb
p857
aVgiants2008
p858
aVwanderer602
p859
aVdger
p860
aVtodorov-fin
p861
aVaa2-2004
p862
aVadamdeanhall
p863
aVankhmorpork
p864
aViarxphd
p865
aVhyphz
p866
aVjbribeiro1
p867
aVtokyogirl79
p868
aVobelixus
p869
aVrolfmueller
p870
aVcazort
p871
aVblack60dragon
p872
aVnoboyo
p873
aVstanning
p874
aVham
p875
aVbarryjjoyce
p876
aVnyctc7
p877
aVkiwipat
p878
aVrwendland
p879
aVsander.v.ginkel
p880
aVozzieboy
p881
aVsamev
p882
aVvoceditenore
p883
aVdoncram
p884
aVsasata
p885
aVz22
p886
aVerlik.khan
p887
aVsrgangsta
p888
aVellsworthsk
p889
aVkanguole
p890
aVcartoondiablo
p891
aVomdo
p892
aVmannanan51
p893
aVconnormah
p894
aVwnt
p895
aVradiohist
p896
aVnermalthebunny
p897
aVchadwholovedme
p898
aVrog5728
p899
aVmaile66
p900
aVuishaki
p901
aVsaget53
p902
aVkirill95
p903
aVrasho992
p904
aVxnatedawgx
p905
aVpimaster3
p906
aVaozm
p907
aVrat2
p908
aVkevmin
p909
aVmartarius
p910
aVcrgreathouse
p911
aVigoldste
p912
aVcailil
p913
aVjaf1970
p914
aVproducer
p915
aVapteva
p916
aVyomangani
p917
aVtdl1060
p918
aVthardin12
p919
aVgoudzovski
p920
aVkhestwol
p921
aVcreativity97
p922
aVdawnseeker2000
p923
aViantresman
p924
aVsriharsh1234
p925
aVjoefromrandb
p926
aVchu86happychu
p927
aVbogdangiusca
p928
aVbmclaughlin9
p929
aVelockid
p930
aVm.mario
p931
aVthebigjagielka
p932
aV(ca)giacobbe
p933
aVmmekayhagan
p934
aVinterlude65
p935
aVandreabrantes99
p936
aVmzilikazi1939
p937
aVtmazhindu
p938
aVbullrangifer
p939
aVwindharp
p940
aVjdc808
p941
aVburningclean
p942
aVcomputerja
p943
aVgiggett
p944
aVtearaway
p945
aVjotamar
p946
aVquiddity
p947
aVcantaloupe2
p948
aVseric2
p949
aVthewellman
p950
aVwars
p951
aVbil
p952
aVdanlaycock
p953
aVrexxs
p954
aVhmains
p955
aVvssun
p956
aVvioletriga
p957
aVnapoliroma
p958
aVrothorpe
p959
aVpkeets
p960
aVsecretaria
p961
aVsnapsnap
p962
aVjustforfun
p963
aVtdslk
p964
aVbmcz123
p965
aVcapitalsasha
p966
aVveblenbot
p967
aVmeatsgains
p968
aVsw2nd
p969
aVkansascity
p970
aVarticlesforcreationbot
p971
aVreathough45
p972
aVnid.29
p973
aVocdnctx
p974
aVxboxandhalo2
p975
aVsarnold17
p976
aVmattias321
p977
aVyahia.barie
p978
aValansplodge
p979
aVelphion
p980
aVmicromesistius
p981
aVanemoneprojectors
p982
aVpatrick0moran
p983
aVrococo1700
p984
aVurselius
p985
aVleahtwosaints
p986
aVtideflat
p987
aVgwillhickers
p988
aVmattaidepikiw
p989
aVbfern8788
p990
aVjim62sch
p991
aVskilla1st
p992
aVrougher07
p993
aVdarorcilmir
p994
aVmoscowconnection
p995
aVnamangwari
p996
aVning-ning
p997
aVjohnblackburne
p998
aVhohho56oy
p999
aVenemyusuar
p1000
aVautomaticstrikeout
p1001
aVunoquha
p1002
aVlimonadis
p1003
aVomgosh30
p1004
aV22dragon22burn
p1005
aVcliff1911
p1006
aVpi.1415926535
p1007
aVtilden76
p1008
aVrmashhadi
p1009
aVkeith-264
p1010
aVmikemor92
p1011
aVcharlesdrakew
p1012
aVcamboxer
p1013
aVwilfridselsey
p1014
aVmisterbee1966
p1015
aVsportomanokin
p1016
aVkavebear
p1017
aVrichhoncho
p1018
aVgamingwithstatoke
p1019
aVhowardjwilk
p1020
aVcgtdk
p1021
aVtopopmac1
p1022
aVrlendog
p1023
aVisaac.rs200
p1024
aVsaint0wen
p1025
aVcraiglduncan
p1026
aVjakob.scholbach
p1027
aVpemilligan
p1028
aVstee888
p1029
aVkailash29792
p1030
aVclicriffhard
p1031
aVwikiklrsc
p1032
aVrorshacma
p1033
aVdafoeberezin3494
p1034
aVeurekalott
p1035
aVnoodleki
p1036
aVsmokeybjb
p1037
aVmkrestin
p1038
aVsparhelda
p1039
aVekki01
p1040
aVlooie496
p1041
aVrockmagnetist
p1042
aVtraleni
p1043
aVniwi3
p1044
aVnoq
p1045
aVcattus
p1046
aVedencole
p1047
aVjacklee
p1048
aVhcobb
p1049
aVmarkhh
p1050
aVdexdor
p1051
aV84user
p1052
aVredsky89
p1053
aVconay
p1054
aVkoppapa
p1055
aVkvng
p1056
aVvinz57
p1057
aVdirektor
p1058
aVstringtheory11
p1059
aVpm800
p1060
aVebe123
p1061
aVdergraaf
p1062
aVinfamousprince
p1063
aVbasalisk
p1064
aVfruitmonkey
p1065
aVwhitearcticwolf
p1066
aVbuaidh
p1067
aVsvanslyck
p1068
aVfilanca
p1069
aVwillgee
p1070
aVbrandmeister
p1071
aVriffle
p1072
aVcambalachero
p1073
aVhhhippo
p1074
aVlajbi
p1075
aVdekimasu
p1076
aVcwmhiraeth
p1077
aVdenisarona
p1078
aVkondi
p1079
aVsnori
p1080
aVdhnlin
p1081
aVeeng
p1082
aVduoduoduo
p1083
aVrichard75
p1084
aVbleaney
p1085
aVcrakkerjakk
p1086
aVthemoodyblue
p1087
aVjwad
p1088
aVsabrebd
p1089
aVgilderien
p1090
aVforfuxake
p1091
aVszyslak
p1092
aVnarcis90
p1093
aVshubinator
p1094
aVpresearch
p1095
aVnuclearwarfare
p1096
aVmultichill
p1097
aVbashbrannigan
p1098
aVmbahgondrong
p1099
aVvankod
p1100
aVfatidiot1234
p1101
aVhilo48
p1102
aVyahwehsaves
p1103
aVitsmejudith
p1104
aVmsjapan
p1105
aVccs81
p1106
aVtimidguy
p1107
aVjaan
p1108
aVacroterion
p1109
aVopus33
p1110
aVdoremo
p1111
aVrsocol
p1112
aVekograf
p1113
aVvlas2000
p1114
aVadavidb
p1115
aVj3mrs
p1116
aVjwillbur
p1117
aVoccamzrazor
p1118
aVhybernator
p1119
aVnjzombie
p1120
aVdocfaust
p1121
aVmanxwoman
p1122
aVhotwiki
p1123
aVpkt
p1124
aVthebirdlover
p1125
aVzmaher
p1126
aVglossologist
p1127
aVritchie333
p1128
aVmillahnna
p1129
aVmtmoore321
p1130
aVtintor2
p1131
aValansohn
p1132
aVmadguy7023
p1133
aVletdorf
p1134
aVsokac121
p1135
aVmuniyankaruppan
p1136
aVtruthkeeper88
p1137
aVrms125a@hotmail.com
p1138
aVcanadianjudoka
p1139
aVshikuesi3
p1140
aVbluemario1016
p1141
aVnyttend
p1142
aVc.fred
p1143
aVtrocksuk4415
p1144
aVhkcagu
p1145
aVsmartyllama
p1146
aVwolfmansf
p1147
aVbosleytree
p1148
aVcrimeandpunishment
p1149
aVasalrifai
p1150
aVronk01
p1151
aVinediblehulk
p1152
aVborisbaran
p1153
aVyaris678
p1154
aVgimmetoo
p1155
aVambassadorshras
p1156
aVjeff5102
p1157
aVtropicalanalystwx13
p1158
aVschmausschmaus
p1159
aVhedviberit
p1160
aVdelaywaves
p1161
aVjarry1250
p1162
aVgothicfilm
p1163
aVmr.choppers
p1164
aVvoidxor
p1165
aVnyar94
p1166
aVbull-doser
p1167
aVbeaucouplusneutre
p1168
aVassassin20x
p1169
aVjmajeremy
p1170
aVhirolovesswords
p1171
aVsminthopsis84
p1172
aVfreshcorp619
p1173
aVkeahapana
p1174
aVmdwh
p1175
aVedge4life42
p1176
aVevanh2008
p1177
aVtwotwohello
p1178
aVsmartie2thamaxxx
p1179
aVcloptonson
p1180
aVtheaustinman
p1181
aVltvine
p1182
aVsteamybrian2
p1183
aVfred.pendleton
p1184
aVgaeaman787
p1185
aVwikid77
p1186
aVborowskki
p1187
aVd4nnyw14
p1188
aVbdushaw
p1189
aVsnoozlepet
p1190
aVscorpion0422
p1191
aVdemirbajraktarevic
p1192
aVgreyshark09
p1193
aVtvlover96
p1194
aVmjhammerle123
p1195
aVpalecloudedwhite
p1196
aVlawrlafo
p1197
aVbermicourt
p1198
aVisleofplan
p1199
aVcaribdigita
p1200
aVagathoclea
p1201
aVdave.dunford
p1202
aVheadlessmaster
p1203
aVcambridgebayweather
p1204
aVyids2010
p1205
aVnoha307
p1206
aVjuventusfan7
p1207
aVsevilledade
p1208
aVi7laseral
p1209
aVquasyboy
p1210
aVdoktorbuk
p1211
aVafr12run
p1212
aVnicivampireheart
p1213
aVsirex98
p1214
aVfylbecatulous
p1215
aVshark96z
p1216
aVkraft.
p1217
aVfezmar9
p1218
aVberbatovsfirsttouch
p1219
aVfnlayson
p1220
aVquidster4040
p1221
aVinversehypercube
p1222
aVreedmalloy
p1223
aVss451
p1224
aVkelisi
p1225
aVyappers1000
p1226
aVchandlerjoeyross
p1227
aVelapro
p1228
aVlonet
p1229
aVphoenix7777
p1230
aVcarioca
p1231
aVgrandiose
p1232
aVdabbler
p1233
aVboogalouie
p1234
aVflyer22
p1235
aVbuffalutheran
p1236
aVradiojon
p1237
aVhawkeye7
p1238
aVdj1997
p1239
aVsertmann
p1240
aVbarek
p1241
aVmetallurgist
p1242
aVamkilpatrick
p1243
aVfconaway
p1244
aVtinton5
p1245
aVmschiffler
p1246
aVfadesga
p1247
aV0z
p1248
aVopenmy
p1249
aVhuligan0
p1250
aVmgoodyear
p1251
aVbatteryincluded
p1252
aVirn
p1253
aVsevero
p1254
aVbluerules
p1255
aVbielle
p1256
aVparkwells
p1257
aVarpingstone
p1258
aVmattnad
p1259
aVbenbristol
p1260
aVerpert
p1261
aVnelliebly
p1262
aVcoolcaesar
p1263
aVmsalmon
p1264
aVthorwald
p1265
aVwidr
p1266
aVpaulinho28
p1267
aVfrailea
p1268
aVchris857
p1269
aVk2nr
p1270
aVstefan2
p1271
aVallisonfoley
p1272
aVbearcat
p1273
aVtenofalltrades
p1274
aVgathrawnigf
p1275
aVgandydancer
p1276
aVawiseman
p1277
aVmats33
p1278
aVmcapdevila
p1279
aVmadman
p1280
aVhu12
p1281
aVraul17
p1282
aVdragonfury
p1283
aVjj98
p1284
aVsector001
p1285
aVacsian88
p1286
aVdawkeye
p1287
aVhattrem
p1288
aVsamw
p1289
aVunreal7
p1290
aVjohnbod
p1291
aVtheroadislong
p1292
aVkeraunos
p1293
aVmikeymouse10
p1294
aVjonathanfu
p1295
aVjtrh
p1296
aVgraemeleggett
p1297
aVxania
p1298
aVjoel7687
p1299
aVdanielrigal
p1300
aVkapitop
p1301
aVdcshank
p1302
aVgoodraise
p1303
aVnascar1996
p1304
aVjynto
p1305
aVtomticker5
p1306
aVadd92
p1307
aVjetblast
p1308
aVblackcab
p1309
aVgiggette
p1310
aVjoseolgon
p1311
aVccirulli
p1312
aVmathewtownsend
p1313
aVnorwegianblue
p1314
aVssbbplayer
p1315
aVbozmo
p1316
aVjuhachi
p1317
aVdl2000
p1318
aVssolbergj
p1319
aVsnek01
p1320
aVkoshvorlon
p1321
aVjack1956
p1322
aVkephir
p1323
aVnascarking
p1324
aVdcoetzee
p1325
aVljthefro
p1326
aVgiantsnowman
p1327
aVmiguelmunoz
p1328
aVbluefire10
p1329
aVdavidruben
p1330
aVandrewdressel
p1331
aVmaproom
p1332
aVsportin
p1333
aVnum1dgen
p1334
aVlondonclanger
p1335
aVeasy4me
p1336
aVnorth911
p1337
aVinspectortiger
p1338
aVanonmoos
p1339
aVjdemarcos
p1340
a.