(lp0
(iresults.Resolved_Entity
ResolvedEntity
p1
(dp2
S'labeled_candidates'
p3
(dp4
S'Love'
p5
(I3
I0
tp6
sS'Romance_(love)'
p7
(I1
I2
tp8
ssS'reslve_rankings'
p9
(dp10
S'directcategory_id_vsm_algorithm'
p11
(ccollections
OrderedDict
p12
((lp13
(lp14
VLove
p15
aF0.0
aa(lp16
VRomance_(love)
p17
aF0.0
aatp18
Rp19
g12
((lp20
(lp21
g15
aF0.0
aa(lp22
g17
aF0.0
aatp23
Rp24
tp25
ssS'ne_obj'
p26
(iAmbiguous_Entity
NamedEntity
p27
(dp28
S'username'
p29
S'ginkgo100'
p30
sS'surface_form'
p31
Vlove
p32
sS'shorttext_id'
p33
S'243468422904688640'
p34
sS'shorttext_str'
p35
S'I have discovered washi tape and now I am in love. Multi-colored, multi-patterned masking tape for every #craft thing you can think of.'
p36
sS'wikipedia_miner_ranking'
p37
(dp38
g15
(iAmbiguous_Entity
CandidateResource
p39
(dp40
S'score'
p41
(S'wikipedia_miner_algorithm'
p42
F0.19784721732139587
tp43
sS'dbpedia_URI'
p44
Vhttp://dbpedia.org/resource/Love
p45
sS'title'
p46
g15
sbsg17
(iAmbiguous_Entity
CandidateResource
p47
(dp48
g41
(g42
F0.16891661286354065
tp49
sg44
Vhttp://dbpedia.org/resource/Romance_(love)
p50
sg46
g17
sbssS'site'
p51
ccopy_reg
_reconstructor
p52
(cshort_text_sources.short_text_websites
Twitter_Site
p53
c__builtin__
object
p54
Ntp55
Rp56
(dp57
S'siteName'
p58
S'Twitter'
p59
sbsS'dbpedia_spotlight_ranking'
p60
(dp61
sbsba(iresults.Resolved_Entity
ResolvedEntity
p62
(dp63
g3
(dp64
S'Witchcraft'
p65
(I0
I3
tp66
sS'The_Craft_(film)'
p67
(I0
I3
tp68
sS'Craft_unionism'
p69
(I0
I3
tp70
sS'Craft'
p71
(I2
I1
tp72
sS'Arts_and_crafts'
p73
(I3
I0
tp74
sS'Craft_beer'
p75
(I0
I3
tp76
sS'Robert_Craft'
p77
(I0
I3
tp78
ssg9
(dp79
g11
(g12
((lp80
(lp81
VRobert_Craft
p82
aF8.86
aa(lp83
VThe_Craft_(film)
p84
aF1.72
aa(lp85
VWitchcraft
p86
aF0.0
aa(lp87
VCraft_unionism
p88
aF0.0
aa(lp89
VCraft
p90
aF0.0
aa(lp91
VArts_and_crafts
p92
aF0.0
aa(lp93
VCraft_beer
p94
aF0.0
aatp95
Rp96
g12
((lp97
(lp98
g86
aF0.0
aa(lp99
g84
aF0.0
aa(lp100
g88
aF0.0
aa(lp101
g90
aF0.0
aa(lp102
g92
aF0.0
aa(lp103
g94
aF0.0
aa(lp104
g82
aF0.0
aatp105
Rp106
tp107
ssg26
(iAmbiguous_Entity
NamedEntity
p108
(dp109
g29
g30
sg31
Vcraft
p110
sg33
g34
sg35
g36
sg37
(dp111
g88
(iAmbiguous_Entity
CandidateResource
p112
(dp113
g41
(g42
F0.14851979911327362
tp114
sg44
Vhttp://dbpedia.org/resource/Craft_unionism
p115
sg46
g88
sbsg90
(iAmbiguous_Entity
CandidateResource
p116
(dp117
g41
(g42
F0.19784721732139587
tp118
sg44
Vhttp://dbpedia.org/resource/Craft
p119
sg46
g90
sbsg92
(iAmbiguous_Entity
CandidateResource
p120
(dp121
g41
(g42
F0.16935822367668152
tp122
sg44
Vhttp://dbpedia.org/resource/Arts_and_crafts
p123
sg46
g92
sbsg94
(iAmbiguous_Entity
CandidateResource
p124
(dp125
g41
(g42
F0.14812296628952026
tp126
sg44
Vhttp://dbpedia.org/resource/Craft_beer
p127
sg46
g94
sbssg51
g56
sg60
(dp128
VCraft
p129
(iAmbiguous_Entity
CandidateResource
p130
(dp131
g41
(S'dbpedia_spotlight_algorithm'
p132
V0.0786389410495758
p133
tp134
sg44
Vhttp://dbpedia.org/resource/Craft
p135
sg46
g129
sbsg82
(iAmbiguous_Entity
CandidateResource
p136
(dp137
g41
(g132
V0.06035081669688225
p138
tp139
sg44
Vhttp://dbpedia.org/resource/Robert_Craft
p140
sg46
g82
sbsg84
(iAmbiguous_Entity
CandidateResource
p141
(dp142
g41
(g132
V0.05576090142130852
p143
tp144
sg44
Vhttp://dbpedia.org/resource/The_Craft_(film)
p145
sg46
g84
sbsg86
(iAmbiguous_Entity
CandidateResource
p146
(dp147
g41
(g132
V0.08694981783628464
p148
tp149
sg44
Vhttp://dbpedia.org/resource/Witchcraft
p150
sg46
g86
sbssbsba(iresults.Resolved_Entity
ResolvedEntity
p151
(dp152
g3
(dp153
S'Digital_Audio_Tape'
p154
(I0
I3
tp155
sS'Pressure_sensitive_tape'
p156
(I1
I2
tp157
sS'Videotape'
p158
(I0
I3
tp159
sS'Adhesive_tape'
p160
(I3
I0
tp161
sS'Magnetic_tape_data_storage'
p162
(I0
I3
tp163
sS'Tape_music'
p164
(I0
I3
tp165
sS'Tape_drive'
p166
(I0
I3
tp167
sS'Magnetic_tape_sound_recording'
p168
(I0
I3
tp169
sS'Tape'
p170
(I3
I0
tp171
sS'Magnetic_tape'
p172
(I0
I3
tp173
sS'Compact_Cassette'
p174
(I0
I3
tp175
sS'Tape_recorder'
p176
(I0
I3
tp177
ssg9
(dp178
g11
(g12
((lp179
(lp180
VTape
p181
aF20.88
aa(lp182
VDigital_Audio_Tape
p183
aF0.0
aa(lp184
VPressure_sensitive_tape
p185
aF0.0
aa(lp186
VVideotape
p187
aF0.0
aa(lp188
VAdhesive_tape
p189
aF0.0
aa(lp190
VTape_music
p191
aF0.0
aa(lp192
VTape_drive
p193
aF0.0
aa(lp194
VMagnetic_tape_sound_recording
p195
aF0.0
aa(lp196
VMagnetic_tape_data_storage
p197
aF0.0
aa(lp198
VCompact_Cassette
p199
aF0.0
aa(lp200
VMagnetic_tape
p201
aF0.0
aa(lp202
VTape_recorder
p203
aF0.0
aatp204
Rp205
g12
((lp206
(lp207
g183
aF0.0
aa(lp208
g185
aF0.0
aa(lp209
g187
aF0.0
aa(lp210
g189
aF0.0
aa(lp211
g191
aF0.0
aa(lp212
g193
aF0.0
aa(lp213
g195
aF0.0
aa(lp214
g181
aF0.0
aa(lp215
g197
aF0.0
aa(lp216
g199
aF0.0
aa(lp217
g201
aF0.0
aa(lp218
g203
aF0.0
aatp219
Rp220
tp221
ssg26
(iAmbiguous_Entity
NamedEntity
p222
(dp223
g29
g30
sg31
Vtape
p224
sg33
g34
sg35
g36
sg37
(dp225
g197
(iAmbiguous_Entity
CandidateResource
p226
(dp227
g41
(g42
F0.1731889247894287
tp228
sg44
Vhttp://dbpedia.org/resource/Magnetic_tape_data_storage
p229
sg46
g197
sbsg187
(iAmbiguous_Entity
CandidateResource
p230
(dp231
g41
(g42
F0.1890898048877716
tp232
sg44
Vhttp://dbpedia.org/resource/Videotape
p233
sg46
g187
sbsg189
(iAmbiguous_Entity
CandidateResource
p234
(dp235
g41
(g42
F0.1802147626876831
tp236
sg44
Vhttp://dbpedia.org/resource/Adhesive_tape
p237
sg46
g189
sbsg191
(iAmbiguous_Entity
CandidateResource
p238
(dp239
g41
(g42
F0.12090722471475601
tp240
sg44
Vhttp://dbpedia.org/resource/Tape_music
p241
sg46
g191
sbsg193
(iAmbiguous_Entity
CandidateResource
p242
(dp243
g41
(g42
F0.1701754331588745
tp244
sg44
Vhttp://dbpedia.org/resource/Tape_drive
p245
sg46
g193
sbsg195
(iAmbiguous_Entity
CandidateResource
p246
(dp247
g41
(g42
F0.173042431473732
tp248
sg44
Vhttp://dbpedia.org/resource/Magnetic_tape_sound_recording
p249
sg46
g195
sbsg181
(iAmbiguous_Entity
CandidateResource
p250
(dp251
g41
(g42
F0.1826632022857666
tp252
sg44
Vhttp://dbpedia.org/resource/Tape
p253
sg46
g181
sbsg203
(iAmbiguous_Entity
CandidateResource
p254
(dp255
g41
(g42
F0.19784721732139587
tp256
sg44
Vhttp://dbpedia.org/resource/Tape_recorder
p257
sg46
g203
sbsg201
(iAmbiguous_Entity
CandidateResource
p258
(dp259
g41
(g42
F0.16814705729484558
tp260
sg44
Vhttp://dbpedia.org/resource/Magnetic_tape
p261
sg46
g201
sbsg199
(iAmbiguous_Entity
CandidateResource
p262
(dp263
g41
(g42
F0.1898711919784546
tp264
sg44
Vhttp://dbpedia.org/resource/Compact_Cassette
p265
sg46
g199
sbsg185
(iAmbiguous_Entity
CandidateResource
p266
(dp267
g41
(g42
F0.1871359944343567
tp268
sg44
Vhttp://dbpedia.org/resource/Pressure_sensitive_tape
p269
sg46
g185
sbssg51
g56
sg60
(dp270
g183
(iAmbiguous_Entity
CandidateResource
p271
(dp272
g41
(g132
V0.030202168971300125
p273
tp274
sg44
Vhttp://dbpedia.org/resource/Digital_Audio_Tape
p275
sg46
g183
sbsVTape_recorder
p276
(iAmbiguous_Entity
CandidateResource
p277
(dp278
g41
(g132
V0.05720305070281029
p279
tp280
sg44
Vhttp://dbpedia.org/resource/Tape_recorder
p281
sg46
g276
sbsVTape_drive
p282
(iAmbiguous_Entity
CandidateResource
p283
(dp284
g41
(g132
V0.02507997862994671
p285
tp286
sg44
Vhttp://dbpedia.org/resource/Tape_drive
p287
sg46
g282
sbssbsba(iresults.Resolved_Entity
ResolvedEntity
p288
(dp289
g3
(dp290
S'Witchcraft'
p291
(I0
I3
tp292
sS'The_Craft_(film)'
p293
(I0
I3
tp294
sS'Craft_unionism'
p295
(I0
I3
tp296
sS'Craft'
p297
(I3
I0
tp298
sS'Arts_and_crafts'
p299
(I3
I0
tp300
sS'Craft_beer'
p301
(I0
I3
tp302
sS'Robert_Craft'
p303
(I0
I3
tp304
ssg9
(dp305
g11
(g12
((lp306
(lp307
VRobert_Craft
p308
aF8.86
aa(lp309
VThe_Craft_(film)
p310
aF1.72
aa(lp311
VWitchcraft
p312
aF0.0
aa(lp313
VCraft_unionism
p314
aF0.0
aa(lp315
VCraft
p316
aF0.0
aa(lp317
VArts_and_crafts
p318
aF0.0
aa(lp319
VCraft_beer
p320
aF0.0
aatp321
Rp322
g12
((lp323
(lp324
g312
aF0.0
aa(lp325
g310
aF0.0
aa(lp326
g314
aF0.0
aa(lp327
g316
aF0.0
aa(lp328
g318
aF0.0
aa(lp329
g320
aF0.0
aa(lp330
g308
aF0.0
aatp331
Rp332
tp333
ssg26
(iAmbiguous_Entity
NamedEntity
p334
(dp335
g29
S'ginkgo100'
p336
sg31
Vcraft
p337
sg33
S'243466125302714368'
p338
sg35
S'Hottest gift wrap trends! We had NO idea: http://t.co/ns0IJl46 #giftwrap #craft #diy #gifts #wrapping'
p339
sg37
(dp340
g314
(iAmbiguous_Entity
CandidateResource
p341
(dp342
g41
(g42
F0.1373254358768463
tp343
sg44
Vhttp://dbpedia.org/resource/Craft_unionism
p344
sg46
g314
sbsg316
(iAmbiguous_Entity
CandidateResource
p345
(dp346
g41
(g42
F0.2531835734844208
tp347
sg44
Vhttp://dbpedia.org/resource/Craft
p348
sg46
g316
sbsg318
(iAmbiguous_Entity
CandidateResource
p349
(dp350
g41
(g42
F0.2164415568113327
tp351
sg44
Vhttp://dbpedia.org/resource/Arts_and_crafts
p352
sg46
g318
sbsg320
(iAmbiguous_Entity
CandidateResource
p353
(dp354
g41
(g42
F0.13675855100154877
tp355
sg44
Vhttp://dbpedia.org/resource/Craft_beer
p356
sg46
g320
sbssg51
g56
sg60
(dp357
VCraft
p358
(iAmbiguous_Entity
CandidateResource
p359
(dp360
g41
(g132
V0.040652744472026825
p361
tp362
sg44
Vhttp://dbpedia.org/resource/Craft
p363
sg46
g358
sbsg308
(iAmbiguous_Entity
CandidateResource
p364
(dp365
g41
(g132
V0.050982944667339325
p366
tp367
sg44
Vhttp://dbpedia.org/resource/Robert_Craft
p368
sg46
g308
sbsg310
(iAmbiguous_Entity
CandidateResource
p369
(dp370
g41
(g132
V0.03378348425030708
p371
tp372
sg44
Vhttp://dbpedia.org/resource/The_Craft_(film)
p373
sg46
g310
sbsg312
(iAmbiguous_Entity
CandidateResource
p374
(dp375
g41
(g132
V0.05802054703235626
p376
tp377
sg44
Vhttp://dbpedia.org/resource/Witchcraft
p378
sg46
g312
sbssbsba(iresults.Resolved_Entity
ResolvedEntity
p379
(dp380
g3
(dp381
S'Do_it_yourself'
p382
(I3
I0
tp383
sS'DIY_ethic'
p384
(I2
I1
tp385
sS'DIY_culture'
p386
(I2
I1
tp387
sS'DIY_Network'
p388
(I1
I2
tp389
ssg9
(dp390
g11
(g12
((lp391
(lp392
VDo_it_yourself
p393
aF0.0
aa(lp394
VDIY_ethic
p395
aF0.0
aa(lp396
VDIY_culture
p397
aF0.0
aa(lp398
VDIY_Network
p399
aF0.0
aatp400
Rp401
g12
((lp402
(lp403
g393
aF0.0
aa(lp404
g395
aF0.0
aa(lp405
g397
aF0.0
aa(lp406
g399
aF0.0
aatp407
Rp408
tp409
ssg26
(iAmbiguous_Entity
NamedEntity
p410
(dp411
g29
g336
sg31
Vdiy
p412
sg33
g338
sg35
g339
sg37
(dp413
g393
(iAmbiguous_Entity
CandidateResource
p414
(dp415
g41
(g42
F0.2531835734844208
tp416
sg44
Vhttp://dbpedia.org/resource/Do_it_yourself
p417
sg46
g393
sbssg51
g56
sg60
(dp418
VDo_it_yourself
p419
(iAmbiguous_Entity
CandidateResource
p420
(dp421
g41
(g132
V0.04632806032896042
p422
tp423
sg44
Vhttp://dbpedia.org/resource/Do_it_yourself
p424
sg46
g419
sbsg395
(iAmbiguous_Entity
CandidateResource
p425
(dp426
g41
(g132
V0.05858118087053299
p427
tp428
sg44
Vhttp://dbpedia.org/resource/DIY_ethic
p429
sg46
g395
sbsg399
(iAmbiguous_Entity
CandidateResource
p430
(dp431
g41
(g132
V0.06579450517892838
p432
tp433
sg44
Vhttp://dbpedia.org/resource/DIY_Network
p434
sg46
g399
sbsg397
(iAmbiguous_Entity
CandidateResource
p435
(dp436
g41
(g132
V0.0705994963645935
p437
tp438
sg44
Vhttp://dbpedia.org/resource/DIY_culture
p439
sg46
g397
sbssbsba(iresults.Resolved_Entity
ResolvedEntity
p440
(dp441
g3
(dp442
S'Tweet_(singer)'
p443
(I0
I3
tp444
sS'Tweet'
p445
(I2
I1
tp446
sS'Twitter'
p447
(I3
I0
tp448
ssg9
(dp449
g11
(g12
((lp450
(lp451
VTweet
p452
aF15.75
aa(lp453
VTweet_(singer)
p454
aF3.62
aa(lp455
VTwitter
p456
aF0.31
aatp457
Rp458
g12
((lp459
(lp460
g454
aF0.0
aa(lp461
g456
aF0.0
aa(lp462
g452
aF0.0
aatp463
Rp464
tp465
ssg26
(iAmbiguous_Entity
NamedEntity
p466
(dp467
g29
S'ginkgo100'
p468
sg31
Vtweet
p469
sg33
S'18363662339'
p470
sg35
S'That previous tweet shows that not only does God always put us back in our place, He has quite the sense of humor about it.'
p471
sg37
(dp472
g456
(iAmbiguous_Entity
CandidateResource
p473
(dp474
g41
(g42
F0.28715962171554565
tp475
sg44
Vhttp://dbpedia.org/resource/Twitter
p476
sg46
g456
sbsg452
(iAmbiguous_Entity
CandidateResource
p477
(dp478
g41
(g42
F0.14388805627822876
tp479
sg44
Vhttp://dbpedia.org/resource/Tweet
p480
sg46
g452
sbssg51
g56
sg60
(dp481
g454
(iAmbiguous_Entity
CandidateResource
p482
(dp483
g41
(g132
V0.24486202001571655
p484
tp485
sg44
Vhttp://dbpedia.org/resource/Tweet_(singer)
p486
sg46
g454
sbssbsba(iresults.Resolved_Entity
ResolvedEntity
p487
(dp488
g3
(dp489
S'Mobile_Suit_Zeta_Gundam'
p490
(I0
I3
tp491
sS'The_Temptations'
p492
(I0
I3
tp493
sS'Temptation'
p494
(I3
I0
tp495
sS'Eve'
p496
(I0
I3
tp497
sS'The_Last_Temptation_of_Christ'
p498
(I0
I3
tp499
sS'The_temptation_of_St._Anthony_in_visual_arts'
p500
(I0
I3
tp501
sS'Temptation_of_Christ'
p502
(I0
I3
tp503
ssg9
(dp504
g11
(g12
((lp505
(lp506
VTemptation
p507
aF1.3
aa(lp508
VThe_Temptations
p509
aF0.4
aa(lp510
VMobile_Suit_Zeta_Gundam
p511
aF0.0
aa(lp512
VEve
p513
aF0.0
aa(lp514
VThe_Last_Temptation_of_Christ
p515
aF0.0
aa(lp516
VThe_temptation_of_St._Anthony_in_visual_arts
p517
aF0.0
aa(lp518
VTemptation_of_Christ
p519
aF0.0
aatp520
Rp521
g12
((lp522
(lp523
g511
aF0.0
aa(lp524
g509
aF0.0
aa(lp525
g507
aF0.0
aa(lp526
g513
aF0.0
aa(lp527
g515
aF0.0
aa(lp528
g517
aF0.0
aa(lp529
g519
aF0.0
aatp530
Rp531
tp532
ssg26
(iAmbiguous_Entity
NamedEntity
p533
(dp534
g29
S'ginkgo100'
p535
sg31
Vtemptation
p536
sg33
S'385951167676416'
p537
sg35
S'Watching "Sister Wives". I have both Mormon and polyamorist friends on FB. Resisting the temptation to post about the show over there.'
p538
sg37
(dp539
g519
(iAmbiguous_Entity
CandidateResource
p540
(dp541
g41
(g42
F0.24559924006462097
tp542
sg44
Vhttp://dbpedia.org/resource/Temptation_of_Christ
p543
sg46
g519
sbsg513
(iAmbiguous_Entity
CandidateResource
p544
(dp545
g41
(g42
F0.2567451000213623
tp546
sg44
Vhttp://dbpedia.org/resource/Eve
p547
sg46
g513
sbsg517
(iAmbiguous_Entity
CandidateResource
p548
(dp549
g41
(g42
F0.2241828441619873
tp550
sg44
Vhttp://dbpedia.org/resource/The_temptation_of_St._Anthony_in_visual_arts
p551
sg46
g517
sbsg507
(iAmbiguous_Entity
CandidateResource
p552
(dp553
g41
(g42
F0.24553371965885162
tp554
sg44
Vhttp://dbpedia.org/resource/Temptation
p555
sg46
g507
sbssg51
g56
sg60
(dp556
VTemptation
p557
(iAmbiguous_Entity
CandidateResource
p558
(dp559
g41
(g132
V0.05078398808836937
p560
tp561
sg44
Vhttp://dbpedia.org/resource/Temptation
p562
sg46
g557
sbsg515
(iAmbiguous_Entity
CandidateResource
p563
(dp564
g41
(g132
V0.03243663161993027
p565
tp566
sg44
Vhttp://dbpedia.org/resource/The_Last_Temptation_of_Christ
p567
sg46
g515
sbsg511
(iAmbiguous_Entity
CandidateResource
p568
(dp569
g41
(g132
V0.033246178179979324
p570
tp571
sg44
Vhttp://dbpedia.org/resource/Mobile_Suit_Zeta_Gundam
p572
sg46
g511
sbsg509
(iAmbiguous_Entity
CandidateResource
p573
(dp574
g41
(g132
V0.08897814154624939
p575
tp576
sg44
Vhttp://dbpedia.org/resource/The_Temptations
p577
sg46
g509
sbssbsba(iresults.Resolved_Entity
ResolvedEntity
p578
(dp579
g3
(dp580
S'Religious_Society_of_Friends'
p581
(I0
I3
tp582
sS'Friends'
p583
(I0
I3
tp584
sS'Friendship'
p585
(I3
I0
tp586
ssg9
(dp587
g11
(g12
((lp588
(lp589
VFriendship
p590
aF0.29
aa(lp591
VFriends
p592
aF0.13
aa(lp593
VReligious_Society_of_Friends
p594
aF0.0
aatp595
Rp596
g12
((lp597
(lp598
g592
aF0.0
aa(lp599
g594
aF0.0
aa(lp600
g590
aF0.0
aatp601
Rp602
tp603
ssg26
(iAmbiguous_Entity
NamedEntity
p604
(dp605
g29
g535
sg31
Vfriends
p606
sg33
g537
sg35
g538
sg37
(dp607
sg51
g56
sg60
(dp608
g594
(iAmbiguous_Entity
CandidateResource
p609
(dp610
g41
(g132
V0.06181465834379196
p611
tp612
sg44
Vhttp://dbpedia.org/resource/Religious_Society_of_Friends
p613
sg46
g594
sbsg592
(iAmbiguous_Entity
CandidateResource
p614
(dp615
g41
(g132
V0.049771085381507874
p616
tp617
sg44
Vhttp://dbpedia.org/resource/Friends
p618
sg46
g592
sbsg590
(iAmbiguous_Entity
CandidateResource
p619
(dp620
g41
(g132
V0.05832614377140999
p621
tp622
sg44
Vhttp://dbpedia.org/resource/Friendship
p623
sg46
g590
sbssbsba(iresults.Resolved_Entity
ResolvedEntity
p624
(dp625
g3
(dp626
S'Health_(gaming)'
p627
(I0
I3
tp628
sS'Health_psychology'
p629
(I1
I2
tp630
sS'Reproductive_health'
p631
(I0
I3
tp632
sS'Health_economics'
p633
(I1
I2
tp634
sS'Health_insurance'
p635
(I1
I2
tp636
sS'Health'
p637
(I3
I0
tp638
sS'Health_care'
p639
(I1
I2
tp640
sS'Health_education'
p641
(I2
I1
tp642
sS'Health_(band)'
p643
(I0
I3
tp644
ssg9
(dp645
g11
(g12
((lp646
(lp647
VHealth_psychology
p648
aF0.46
aa(lp649
VHealth_(gaming)
p650
aF0.0
aa(lp651
VReproductive_health
p652
aF0.0
aa(lp653
VHealth_economics
p654
aF0.0
aa(lp655
VHealth_insurance
p656
aF0.0
aa(lp657
VHealth
p658
aF0.0
aa(lp659
VHealth_care
p660
aF0.0
aa(lp661
VHealth_education
p662
aF0.0
aa(lp663
VHealth_(band)
p664
aF0.0
aatp665
Rp666
g12
((lp667
(lp668
g650
aF0.0
aa(lp669
g648
aF0.0
aa(lp670
g652
aF0.0
aa(lp671
g654
aF0.0
aa(lp672
g656
aF0.0
aa(lp673
g658
aF0.0
aa(lp674
g660
aF0.0
aa(lp675
g662
aF0.0
aa(lp676
g664
aF0.0
aatp677
Rp678
tp679
ssg26
(iAmbiguous_Entity
NamedEntity
p680
(dp681
g29
S'ginkgo100'
p682
sg31
Vhealth
p683
sg33
S'27831201288'
p684
sg35
S'RT @AncientProverbs via @joemd: He that takes medicine and neglects diet, wastes the skill of the physician. -Chinese Proverb #health'
p685
sg37
(dp686
g650
(iAmbiguous_Entity
CandidateResource
p687
(dp688
g41
(g42
F0.31104162335395813
tp689
sg44
Vhttp://dbpedia.org/resource/Health_(gaming)
p690
sg46
g650
sbsg658
(iAmbiguous_Entity
CandidateResource
p691
(dp692
g41
(g42
F0.4220408499240875
tp693
sg44
Vhttp://dbpedia.org/resource/Health
p694
sg46
g658
sbsg660
(iAmbiguous_Entity
CandidateResource
p695
(dp696
g41
(g42
F0.372539758682251
tp697
sg44
Vhttp://dbpedia.org/resource/Health_care
p698
sg46
g660
sbsg656
(iAmbiguous_Entity
CandidateResource
p699
(dp700
g41
(g42
F0.35889938473701477
tp701
sg44
Vhttp://dbpedia.org/resource/Health_insurance
p702
sg46
g656
sbssg51
g56
sg60
(dp703
VHealth_(gaming)
p704
(iAmbiguous_Entity
CandidateResource
p705
(dp706
g41
(g132
V0.050716713070869446
p707
tp708
sg44
Vhttp://dbpedia.org/resource/Health_(gaming)
p709
sg46
g704
sbsg648
(iAmbiguous_Entity
CandidateResource
p710
(dp711
g41
(g132
V0.06338689476251602
p712
tp713
sg44
Vhttp://dbpedia.org/resource/Health_psychology
p714
sg46
g648
sbsg652
(iAmbiguous_Entity
CandidateResource
p715
(dp716
g41
(g132
V0.07290741801261902
p717
tp718
sg44
Vhttp://dbpedia.org/resource/Reproductive_health
p719
sg46
g652
sbsg654
(iAmbiguous_Entity
CandidateResource
p720
(dp721
g41
(g132
V0.0846729651093483
p722
tp723
sg44
Vhttp://dbpedia.org/resource/Health_economics
p724
sg46
g654
sbsVHealth
p725
(iAmbiguous_Entity
CandidateResource
p726
(dp727
g41
(g132
V0.12989310920238495
p728
tp729
sg44
Vhttp://dbpedia.org/resource/Health
p730
sg46
g725
sbsVHealth_care
p731
(iAmbiguous_Entity
CandidateResource
p732
(dp733
g41
(g132
V0.11801320314407349
p734
tp735
sg44
Vhttp://dbpedia.org/resource/Health_care
p736
sg46
g731
sbsg662
(iAmbiguous_Entity
CandidateResource
p737
(dp738
g41
(g132
V0.16457989811897278
p739
tp740
sg44
Vhttp://dbpedia.org/resource/Health_education
p741
sg46
g662
sbsg664
(iAmbiguous_Entity
CandidateResource
p742
(dp743
g41
(g132
V0.05089922994375229
p744
tp745
sg44
Vhttp://dbpedia.org/resource/Health_(band)
p746
sg46
g664
sbssbsba(iresults.Resolved_Entity
ResolvedEntity
p747
(dp748
g3
(dp749
S'Medicine'
p750
(I2
I1
tp751
sS'Shamanism'
p752
(I0
I3
tp753
sS'History_of_medicine'
p754
(I1
I2
tp755
ssg9
(dp756
g11
(g12
((lp757
(lp758
VShamanism
p759
aF0.24
aa(lp760
VMedicine
p761
aF0.0
aa(lp762
VHistory_of_medicine
p763
aF0.0
aatp764
Rp765
g12
((lp766
(lp767
g761
aF0.0
aa(lp768
g759
aF0.0
aa(lp769
g763
aF0.0
aatp770
Rp771
tp772
ssg26
(iAmbiguous_Entity
NamedEntity
p773
(dp774
g29
g682
sg31
Vmedicine
p775
sg33
g684
sg35
g685
sg37
(dp776
g761
(iAmbiguous_Entity
CandidateResource
p777
(dp778
g41
(g42
F0.4220408499240875
tp779
sg44
Vhttp://dbpedia.org/resource/Medicine
p780
sg46
g761
sbssg51
g56
sg60
(dp781
VMedicine
p782
(iAmbiguous_Entity
CandidateResource
p783
(dp784
g41
(g132
V0.11699434369802475
p785
tp786
sg44
Vhttp://dbpedia.org/resource/Medicine
p787
sg46
g782
sbsg759
(iAmbiguous_Entity
CandidateResource
p788
(dp789
g41
(g132
V0.07468915730714798
p790
tp791
sg44
Vhttp://dbpedia.org/resource/Shamanism
p792
sg46
g759
sbsg763
(iAmbiguous_Entity
CandidateResource
p793
(dp794
g41
(g132
V0.11286167800426483
p795
tp796
sg44
Vhttp://dbpedia.org/resource/History_of_medicine
p797
sg46
g763
sbssbsba(iresults.Resolved_Entity
ResolvedEntity
p798
(dp799
g3
(dp800
S'Skill'
p801
(I3
I0
tp802
sS'Statistic_(role-playing_games)'
p803
(I0
I3
tp804
ssg9
(dp805
g11
(g12
((lp806
(lp807
VSkill
p808
aF0.0
aa(lp809
VStatistic_(role-playing_games)
p810
aF0.0
aatp811
Rp812
g12
((lp813
(lp814
g808
aF0.0
aa(lp815
g810
aF0.0
aatp816
Rp817
tp818
ssg26
(iAmbiguous_Entity
NamedEntity
p819
(dp820
g29
g682
sg31
Vskill
p821
sg33
g684
sg35
g685
sg37
(dp822
sg51
g56
sg60
(dp823
g808
(iAmbiguous_Entity
CandidateResource
p824
(dp825
g41
(g132
V0.10723071545362473
p826
tp827
sg44
Vhttp://dbpedia.org/resource/Skill
p828
sg46
g808
sbsg810
(iAmbiguous_Entity
CandidateResource
p829
(dp830
g41
(g132
V0.04170722886919975
p831
tp832
sg44
Vhttp://dbpedia.org/resource/Statistic_(role-playing_games)
p833
sg46
g810
sbssbsba(iresults.Resolved_Entity
ResolvedEntity
p834
(dp835
g3
(dp836
S'Laptop'
p837
(I3
I0
tp838
sS'One_Laptop_per_Child'
p839
(I0
I3
tp840
ssg9
(dp841
g11
(g12
((lp842
(lp843
VLaptop
p844
aF0.0
aa(lp845
VOne_Laptop_per_Child
p846
aF0.0
aatp847
Rp848
g12
((lp849
(lp850
g844
aF0.0
aa(lp851
g846
aF0.0
aatp852
Rp853
tp854
ssg26
(iAmbiguous_Entity
NamedEntity
p855
(dp856
g29
S'ginkgo100'
p857
sg31
Vlaptop
p858
sg33
S'18544710674'
p859
sg35
S"So annoyed by my #Toshiba laptop's delicate power cord. It's like it's DESIGNED to break. #fyi #petpeeve"
p860
sg37
(dp861
g844
(iAmbiguous_Entity
CandidateResource
p862
(dp863
g41
(g42
F0.29896679520606995
tp864
sg44
Vhttp://dbpedia.org/resource/Laptop
p865
sg46
g844
sbssg51
g56
sg60
(dp866
VLaptop
p867
(iAmbiguous_Entity
CandidateResource
p868
(dp869
g41
(g132
V0.1066671684384346
p870
tp871
sg44
Vhttp://dbpedia.org/resource/Laptop
p872
sg46
g867
sbsg846
(iAmbiguous_Entity
CandidateResource
p873
(dp874
g41
(g132
V0.04196363687515259
p875
tp876
sg44
Vhttp://dbpedia.org/resource/One_Laptop_per_Child
p877
sg46
g846
sbssbsba(iresults.Resolved_Entity
ResolvedEntity
p878
(dp879
g3
(dp880
S'Soup'
p881
(I3
I0
tp882
sS'Soupy_Sales'
p883
(I0
I3
tp884
sS'The_Soup'
p885
(I0
I3
tp886
ssg9
(dp887
g11
(g12
((lp888
(lp889
VSoupy_Sales
p890
aF0.43
aa(lp891
VThe_Soup
p892
aF0.34
aa(lp893
VSoup
p894
aF0.0
aatp895
Rp896
g12
((lp897
(lp898
g894
aF0.0
aa(lp899
g890
aF0.0
aa(lp900
g892
aF0.0
aatp901
Rp902
tp903
ssg26
(iAmbiguous_Entity
NamedEntity
p904
(dp905
g29
S'ginkgo100'
p906
sg31
Vsoup
p907
sg33
S'19690793991'
p908
sg35
S"@PoppleKyle They say that soon we'll be able to get soup and coffee in self-heating cans."
p909
sg37
(dp910
g894
(iAmbiguous_Entity
CandidateResource
p911
(dp912
g41
(g42
F0.41068968176841736
tp913
sg44
Vhttp://dbpedia.org/resource/Soup
p914
sg46
g894
sbssg51
g56
sg60
(dp915
VSoup
p916
(iAmbiguous_Entity
CandidateResource
p917
(dp918
g41
(g132
V0.18837302923202515
p919
tp920
sg44
Vhttp://dbpedia.org/resource/Soup
p921
sg46
g916
sbsg890
(iAmbiguous_Entity
CandidateResource
p922
(dp923
g41
(g132
V0.02601766586303711
p924
tp925
sg44
Vhttp://dbpedia.org/resource/Soupy_Sales
p926
sg46
g890
sbsg892
(iAmbiguous_Entity
CandidateResource
p927
(dp928
g41
(g132
V0.08675378561019897
p929
tp930
sg44
Vhttp://dbpedia.org/resource/The_Soup
p931
sg46
g892
sbssbsba(iresults.Resolved_Entity
ResolvedEntity
p932
(dp933
g3
(dp934
S'Coffee_County,_Tennessee'
p935
(I0
I3
tp936
sS'Coffee_County,_Alabama'
p937
(I0
I3
tp938
sS'Coffee'
p939
(I3
I0
tp940
sS'Coffee_County,_Georgia'
p941
(I0
I3
tp942
sS'Coffea'
p943
(I1
I2
tp944
ssg9
(dp945
g11
(g12
((lp946
(lp947
VCoffee_County,_Tennessee
p948
aF0.0
aa(lp949
VCoffee_County,_Alabama
p950
aF0.0
aa(lp951
VCoffee
p952
aF0.0
aa(lp953
VCoffee_County,_Georgia
p954
aF0.0
aa(lp955
VCoffea
p956
aF0.0
aatp957
Rp958
g12
((lp959
(lp960
g948
aF0.0
aa(lp961
g950
aF0.0
aa(lp962
g952
aF0.0
aa(lp963
g954
aF0.0
aa(lp964
g956
aF0.0
aatp965
Rp966
tp967
ssg26
(iAmbiguous_Entity
NamedEntity
p968
(dp969
g29
g906
sg31
Vcoffee
p970
sg33
g908
sg35
g909
sg37
(dp971
g952
(iAmbiguous_Entity
CandidateResource
p972
(dp973
g41
(g42
F0.41068968176841736
tp974
sg44
Vhttp://dbpedia.org/resource/Coffee
p975
sg46
g952
sbsg956
(iAmbiguous_Entity
CandidateResource
p976
(dp977
g41
(g42
F0.1528814435005188
tp978
sg44
Vhttp://dbpedia.org/resource/Coffea
p979
sg46
g956
sbssg51
g56
sg60
(dp980
g948
(iAmbiguous_Entity
CandidateResource
p981
(dp982
g41
(g132
V0.041333358734846115
p983
tp984
sg44
Vhttp://dbpedia.org/resource/Coffee_County,_Tennessee
p985
sg46
g948
sbsg950
(iAmbiguous_Entity
CandidateResource
p986
(dp987
g41
(g132
V0.03685284033417702
p988
tp989
sg44
Vhttp://dbpedia.org/resource/Coffee_County,_Alabama
p990
sg46
g950
sbsVCoffee
p991
(iAmbiguous_Entity
CandidateResource
p992
(dp993
g41
(g132
V0.13804326951503754
p994
tp995
sg44
Vhttp://dbpedia.org/resource/Coffee
p996
sg46
g991
sbsg954
(iAmbiguous_Entity
CandidateResource
p997
(dp998
g41
(g132
V0.04376592859625816
p999
tp1000
sg44
Vhttp://dbpedia.org/resource/Coffee_County,_Georgia
p1001
sg46
g954
sbsVCoffea
p1002
(iAmbiguous_Entity
CandidateResource
p1003
(dp1004
g41
(g132
V0.04175816476345062
p1005
tp1006
sg44
Vhttp://dbpedia.org/resource/Coffea
p1007
sg46
g1002
sbssbsba(iresults.Resolved_Entity
ResolvedEntity
p1008
(dp1009
g3
(dp1010
S'Musical_temperament'
p1011
(I0
I3
tp1012
sS'Four_Temperaments'
p1013
(I0
I3
tp1014
sS'Regular_temperament'
p1015
(I0
I3
tp1016
ssg9
(dp1017
g11
(g12
((lp1018
(lp1019
VMusical_temperament
p1020
aF0.0
aa(lp1021
VFour_Temperaments
p1022
aF0.0
aa(lp1023
VRegular_temperament
p1024
aF0.0
aatp1025
Rp1026
g12
((lp1027
(lp1028
g1020
aF0.0
aa(lp1029
g1022
aF0.0
aa(lp1030
g1024
aF0.0
aatp1031
Rp1032
tp1033
ssg26
(iAmbiguous_Entity
NamedEntity
p1034
(dp1035
g29
S'ginkgo100'
p1036
sg31
Vtemperaments
p1037
sg33
S'22367630910'
p1038
sg35
S'Thinking of getting our first #dog. Will be a shelter dog or rescue. What are the best sites for researching breeds, temperaments? #dogs'
p1039
sg37
(dp1040
g1020
(iAmbiguous_Entity
CandidateResource
p1041
(dp1042
g41
(g42
F0.3890194892883301
tp1043
sg44
Vhttp://dbpedia.org/resource/Musical_temperament
p1044
sg46
g1020
sbsg1022
(iAmbiguous_Entity
CandidateResource
p1045
(dp1046
g41
(g42
F0.3697887063026428
tp1047
sg44
Vhttp://dbpedia.org/resource/Four_Temperaments
p1048
sg46
g1022
sbsg1024
(iAmbiguous_Entity
CandidateResource
p1049
(dp1050
g41
(g42
F0.3673848807811737
tp1051
sg44
Vhttp://dbpedia.org/resource/Regular_temperament
p1052
sg46
g1024
sbssg51
g56
sg60
(dp1053
sbsba(iresults.Resolved_Entity
ResolvedEntity
p1054
(dp1055
g3
(dp1056
S'Duck_Hunt'
p1057
(I0
I3
tp1058
sS'Nate_Dogg'
p1059
(I0
I3
tp1060
sS'Canidae'
p1061
(I2
I1
tp1062
sS'Isle_of_Dogs'
p1063
(I0
I3
tp1064
sS'Dog'
p1065
(I3
I0
tp1066
sS'Raccoon_Dog'
p1067
(I0
I3
tp1068
sS'Snoop_Dogg'
p1069
(I0
I3
tp1070
ssg9
(dp1071
g11
(g12
((lp1072
(lp1073
VSnoop_Dogg
p1074
aF4.12
aa(lp1075
VDuck_Hunt
p1076
aF3.27
aa(lp1077
VDog
p1078
aF0.4
aa(lp1079
VNate_Dogg
p1080
aF0.0
aa(lp1081
VCanidae
p1082
aF0.0
aa(lp1083
VIsle_of_Dogs
p1084
aF0.0
aa(lp1085
VRaccoon_Dog
p1086
aF0.0
aatp1087
Rp1088
g12
((lp1089
(lp1090
g1076
aF0.0
aa(lp1091
g1080
aF0.0
aa(lp1092
g1082
aF0.0
aa(lp1093
g1084
aF0.0
aa(lp1094
g1078
aF0.0
aa(lp1095
g1086
aF0.0
aa(lp1096
g1074
aF0.0
aatp1097
Rp1098
tp1099
ssg26
(iAmbiguous_Entity
NamedEntity
p1100
(dp1101
g29
g1036
sg31
Vdog
p1102
sg33
g1038
sg35
g1039
sg37
(dp1103
g1078
(iAmbiguous_Entity
CandidateResource
p1104
(dp1105
g41
(g42
F0.3890194892883301
tp1106
sg44
Vhttp://dbpedia.org/resource/Dog
p1107
sg46
g1078
sbssg51
g56
sg60
(dp1108
g1076
(iAmbiguous_Entity
CandidateResource
p1109
(dp1110
g41
(g132
V0.05087670683860779
p1111
tp1112
sg44
Vhttp://dbpedia.org/resource/Duck_Hunt
p1113
sg46
g1076
sbsg1080
(iAmbiguous_Entity
CandidateResource
p1114
(dp1115
g41
(g132
V0.02394142746925354
p1116
tp1117
sg44
Vhttp://dbpedia.org/resource/Nate_Dogg
p1118
sg46
g1080
sbsg1082
(iAmbiguous_Entity
CandidateResource
p1119
(dp1120
g41
(g132
V0.08440885692834854
p1121
tp1122
sg44
Vhttp://dbpedia.org/resource/Canidae
p1123
sg46
g1082
sbsg1084
(iAmbiguous_Entity
CandidateResource
p1124
(dp1125
g41
(g132
V0.05067385733127594
p1126
tp1127
sg44
Vhttp://dbpedia.org/resource/Isle_of_Dogs
p1128
sg46
g1084
sbsVDog
p1129
(iAmbiguous_Entity
CandidateResource
p1130
(dp1131
g41
(g132
V0.15453341603279114
p1132
tp1133
sg44
Vhttp://dbpedia.org/resource/Dog
p1134
sg46
g1129
sbsg1086
(iAmbiguous_Entity
CandidateResource
p1135
(dp1136
g41
(g132
V0.03140878304839134
p1137
tp1138
sg44
Vhttp://dbpedia.org/resource/Raccoon_Dog
p1139
sg46
g1086
sbsg1074
(iAmbiguous_Entity
CandidateResource
p1140
(dp1141
g41
(g132
V0.024016959592700005
p1142
tp1143
sg44
Vhttp://dbpedia.org/resource/Snoop_Dogg
p1144
sg46
g1074
sbssbsba(iresults.Resolved_Entity
ResolvedEntity
p1145
(dp1146
g3
(dp1147
S'Shelter_(band)'
p1148
(I0
I3
tp1149
sS'Shelter_(charity)'
p1150
(I2
I1
tp1151
sS'Shelter_Records'
p1152
(I0
I3
tp1153
ssg9
(dp1154
g11
(g12
((lp1155
(lp1156
VShelter_(charity)
p1157
aF0.0
aa(lp1158
VShelter_(band)
p1159
aF0.0
aa(lp1160
VShelter_Records
p1161
aF0.0
aatp1162
Rp1163
g12
((lp1164
(lp1165
g1157
aF0.0
aa(lp1166
g1159
aF0.0
aa(lp1167
g1161
aF0.0
aatp1168
Rp1169
tp1170
ssg26
(iAmbiguous_Entity
NamedEntity
p1171
(dp1172
g29
g1036
sg31
Vshelter
p1173
sg33
g1038
sg35
g1039
sg37
(dp1174
sg51
g56
sg60
(dp1175
g1159
(iAmbiguous_Entity
CandidateResource
p1176
(dp1177
g41
(g132
V0.11467015743255615
p1178
tp1179
sg44
Vhttp://dbpedia.org/resource/Shelter_(band)
p1180
sg46
g1159
sbsg1157
(iAmbiguous_Entity
CandidateResource
p1181
(dp1182
g41
(g132
V0.11865472793579102
p1183
tp1184
sg44
Vhttp://dbpedia.org/resource/Shelter_(charity)
p1185
sg46
g1157
sbsg1161
(iAmbiguous_Entity
CandidateResource
p1186
(dp1187
g41
(g132
V0.061552613973617554
p1188
tp1189
sg44
Vhttp://dbpedia.org/resource/Shelter_Records
p1190
sg46
g1161
sbssbsba(iresults.Resolved_Entity
ResolvedEntity
p1191
(dp1192
g3
(dp1193
S'Sled_dog'
p1194
(I1
I2
tp1195
sS'Dogs_in_warfare'
p1196
(I1
I2
tp1197
sS'Canidae'
p1198
(I2
I1
tp1199
sS'Police_dog'
p1200
(I1
I2
tp1201
sS'Dog'
p1202
(I3
I0
tp1203
sS'Dog_(engineering)'
p1204
(I0
I3
tp1205
ssg9
(dp1206
g11
(g12
((lp1207
(lp1208
VSled_dog
p1209
aF0.36
aa(lp1210
VDog
p1211
aF0.35
aa(lp1212
VDogs_in_warfare
p1213
aF0.0
aa(lp1214
VDog_(engineering)
p1215
aF0.0
aa(lp1216
VPolice_dog
p1217
aF0.0
aa(lp1218
VCanidae
p1219
aF0.0
aatp1220
Rp1221
g12
((lp1222
(lp1223
g1209
aF0.0
aa(lp1224
g1213
aF0.0
aa(lp1225
g1215
aF0.0
aa(lp1226
g1217
aF0.0
aa(lp1227
g1211
aF0.0
aa(lp1228
g1219
aF0.0
aatp1229
Rp1230
tp1231
ssg26
(iAmbiguous_Entity
NamedEntity
p1232
(dp1233
g29
g1036
sg31
Vdogs
p1234
sg33
g1038
sg35
g1039
sg37
(dp1235
g1209
(iAmbiguous_Entity
CandidateResource
p1236
(dp1237
g41
(g42
F0.38827526569366455
tp1238
sg44
Vhttp://dbpedia.org/resource/Sled_dog
p1239
sg46
g1209
sbsg1213
(iAmbiguous_Entity
CandidateResource
p1240
(dp1241
g41
(g42
F0.38380998373031616
tp1242
sg44
Vhttp://dbpedia.org/resource/Dogs_in_warfare
p1243
sg46
g1213
sbsg1219
(iAmbiguous_Entity
CandidateResource
p1244
(dp1245
g41
(g42
F0.3890194892883301
tp1246
sg44
Vhttp://dbpedia.org/resource/Canidae
p1247
sg46
g1219
sbsg1217
(iAmbiguous_Entity
CandidateResource
p1248
(dp1249
g41
(g42
F0.3825143575668335
tp1250
sg44
Vhttp://dbpedia.org/resource/Police_dog
p1251
sg46
g1217
sbsg1211
(iAmbiguous_Entity
CandidateResource
p1252
(dp1253
g41
(g42
F0.3890194892883301
tp1254
sg44
Vhttp://dbpedia.org/resource/Dog
p1255
sg46
g1211
sbsg1215
(iAmbiguous_Entity
CandidateResource
p1256
(dp1257
g41
(g42
F0.3135499954223633
tp1258
sg44
Vhttp://dbpedia.org/resource/Dog_(engineering)
p1259
sg46
g1215
sbssg51
g56
sg60
(dp1260
VDog
p1261
(iAmbiguous_Entity
CandidateResource
p1262
(dp1263
g41
(g132
V0.16647684574127197
p1264
tp1265
sg44
Vhttp://dbpedia.org/resource/Dog
p1266
sg46
g1261
sbssbsba(iresults.Resolved_Entity
ResolvedEntity
p1267
(dp1268
g3
(dp1269
S'List_of_dog_breeds'
p1270
(I3
I0
tp1271
sS'Reproduction'
p1272
(I0
I3
tp1273
sS'Dog_breed'
p1274
(I2
I1
tp1275
sS'List_of_sheep_breeds'
p1276
(I1
I2
tp1277
sS'Breed'
p1278
(I3
I0
tp1279
sS'Breeding_in_the_wild'
p1280
(I0
I3
tp1281
sS'List_of_chicken_breeds'
p1282
(I0
I3
tp1283
sS'Cat_breed'
p1284
(I1
I2
tp1285
sS'List_of_horse_breeds'
p1286
(I1
I2
tp1287
ssg9
(dp1288
g11
(g12
((lp1289
(lp1290
VReproduction
p1291
aF1.41
aa(lp1292
VBreed
p1293
aF0.54
aa(lp1294
VBreeding_in_the_wild
p1295
aF0.54
aa(lp1296
VList_of_dog_breeds
p1297
aF0.0
aa(lp1298
VCat_breed
p1299
aF0.0
aa(lp1300
VList_of_horse_breeds
p1301
aF0.0
aa(lp1302
VList_of_sheep_breeds
p1303
aF0.0
aa(lp1304
VList_of_chicken_breeds
p1305
aF0.0
aa(lp1306
VDog_breed
p1307
aF0.0
aatp1308
Rp1309
g12
((lp1310
(lp1311
g1297
aF0.0
aa(lp1312
g1299
aF0.0
aa(lp1313
g1301
aF0.0
aa(lp1314
g1303
aF0.0
aa(lp1315
g1293
aF0.0
aa(lp1316
g1295
aF0.0
aa(lp1317
g1305
aF0.0
aa(lp1318
g1291
aF0.0
aa(lp1319
g1307
aF0.0
aatp1320
Rp1321
tp1322
ssg26
(iAmbiguous_Entity
NamedEntity
p1323
(dp1324
g29
g1036
sg31
Vbreeds
p1325
sg33
g1038
sg35
g1039
sg37
(dp1326
g1297
(iAmbiguous_Entity
CandidateResource
p1327
(dp1328
g41
(g42
F0.3552437126636505
tp1329
sg44
Vhttp://dbpedia.org/resource/List_of_dog_breeds
p1330
sg46
g1297
sbsg1291
(iAmbiguous_Entity
CandidateResource
p1331
(dp1332
g41
(g42
F0.32063207030296326
tp1333
sg44
Vhttp://dbpedia.org/resource/Reproduction
p1334
sg46
g1291
sbsg1307
(iAmbiguous_Entity
CandidateResource
p1335
(dp1336
g41
(g42
F0.3890194892883301
tp1337
sg44
Vhttp://dbpedia.org/resource/Dog_breed
p1338
sg46
g1307
sbsg1303
(iAmbiguous_Entity
CandidateResource
p1339
(dp1340
g41
(g42
F0.2533174753189087
tp1341
sg44
Vhttp://dbpedia.org/resource/List_of_sheep_breeds
p1342
sg46
g1303
sbsg1293
(iAmbiguous_Entity
CandidateResource
p1343
(dp1344
g41
(g42
F0.3482897877693176
tp1345
sg44
Vhttp://dbpedia.org/resource/Breed
p1346
sg46
g1293
sbsg1295
(iAmbiguous_Entity
CandidateResource
p1347
(dp1348
g41
(g42
F0.20075982809066772
tp1349
sg44
Vhttp://dbpedia.org/resource/Breeding_in_the_wild
p1350
sg46
g1295
sbsg1305
(iAmbiguous_Entity
CandidateResource
p1351
(dp1352
g41
(g42
F0.20075982809066772
tp1353
sg44
Vhttp://dbpedia.org/resource/List_of_chicken_breeds
p1354
sg46
g1305
sbsg1299
(iAmbiguous_Entity
CandidateResource
p1355
(dp1356
g41
(g42
F0.28194358944892883
tp1357
sg44
Vhttp://dbpedia.org/resource/Cat_breed
p1358
sg46
g1299
sbsg1301
(iAmbiguous_Entity
CandidateResource
p1359
(dp1360
g41
(g42
F0.28149113059043884
tp1361
sg44
Vhttp://dbpedia.org/resource/List_of_horse_breeds
p1362
sg46
g1301
sbssg51
g56
sg60
(dp1363
VBreed
p1364
(iAmbiguous_Entity
CandidateResource
p1365
(dp1366
g41
(g132
V0.21524299681186676
p1367
tp1368
sg44
Vhttp://dbpedia.org/resource/Breed
p1369
sg46
g1364
sbssbsba(iresults.Resolved_Entity
ResolvedEntity
p1370
(dp1371
g3
(dp1372
S'Mile'
p1373
(I1
I2
tp1374
sS'Dragstrip'
p1375
(I0
I3
tp1376
ssg9
(dp1377
g11
(g12
((lp1378
(lp1379
VMile
p1380
aF0.0
aa(lp1381
VDragstrip
p1382
aF0.0
aatp1383
Rp1384
g12
((lp1385
(lp1386
g1380
aF0.0
aa(lp1387
g1382
aF0.0
aatp1388
Rp1389
tp1390
ssg26
(iAmbiguous_Entity
NamedEntity
p1391
(dp1392
g29
S'ginkgo100'
p1393
sg31
Vmile
p1394
sg33
S'20926896192'
p1395
sg35
S'@Milehimama I think you should phase out "mile hi mama" but keep "Mama Says." It\'s a great blog name.'
p1396
sg37
(dp1397
g1380
(iAmbiguous_Entity
CandidateResource
p1398
(dp1399
g41
(g42
F0.2189721167087555
tp1400
sg44
Vhttp://dbpedia.org/resource/Mile
p1401
sg46
g1380
sbssg51
g56
sg60
(dp1402
VMile
p1403
(iAmbiguous_Entity
CandidateResource
p1404
(dp1405
g41
(g132
V0.10991711914539337
p1406
tp1407
sg44
Vhttp://dbpedia.org/resource/Mile
p1408
sg46
g1403
sbsg1382
(iAmbiguous_Entity
CandidateResource
p1409
(dp1410
g41
(g132
V0.09271889925003052
p1411
tp1412
sg44
Vhttp://dbpedia.org/resource/Dragstrip
p1413
sg46
g1382
sbssbsba(iresults.Resolved_Entity
ResolvedEntity
p1414
(dp1415
g3
(dp1416
S'Toy'
p1417
(I3
I0
tp1418
sS'Toy_dog'
p1419
(I0
I3
tp1420
sS'Sex_toy'
p1421
(I0
I3
tp1422
ssg9
(dp1423
g11
(g12
((lp1424
(lp1425
VToy
p1426
aF0.0
aa(lp1427
VToy_dog
p1428
aF0.0
aa(lp1429
VSex_toy
p1430
aF0.0
aatp1431
Rp1432
g12
((lp1433
(lp1434
g1426
aF0.0
aa(lp1435
g1428
aF0.0
aa(lp1436
g1430
aF0.0
aatp1437
Rp1438
tp1439
ssg26
(iAmbiguous_Entity
NamedEntity
p1440
(dp1441
g29
S'ginkgo100'
p1442
sg31
Vtoy
p1443
sg33
S'18609889857'
p1444
sg35
S"Oh boy. 5yo found his Leapfrog Alphabet Pal caterpillar, my most hated toy of all time. Thought I threw it out. I'm in purgatory. #parenting"
p1445
sg37
(dp1446
g1426
(iAmbiguous_Entity
CandidateResource
p1447
(dp1448
g41
(g42
F0.24025127291679382
tp1449
sg44
Vhttp://dbpedia.org/resource/Toy
p1450
sg46
g1426
sbsg1428
(iAmbiguous_Entity
CandidateResource
p1451
(dp1452
g41
(g42
F0.16731366515159607
tp1453
sg44
Vhttp://dbpedia.org/resource/Toy_dog
p1454
sg46
g1428
sbssg51
g56
sg60
(dp1455
VToy
p1456
(iAmbiguous_Entity
CandidateResource
p1457
(dp1458
g41
(g132
V0.06088055670261383
p1459
tp1460
sg44
Vhttp://dbpedia.org/resource/Toy
p1461
sg46
g1456
sbsg1430
(iAmbiguous_Entity
CandidateResource
p1462
(dp1463
g41
(g132
V0.019196651875972748
p1464
tp1465
sg44
Vhttp://dbpedia.org/resource/Sex_toy
p1466
sg46
g1430
sbssbsba(iresults.Resolved_Entity
ResolvedEntity
p1467
(dp1468
g3
(dp1469
S'Caterpillar'
p1470
(I3
I0
tp1471
sS"Caterpillar_(Alice's_Adventures_in_Wonderland)"
p1472
(I0
I3
tp1473
sS'Caterpillar_Inc.'
p1474
(I0
I3
tp1475
ssg9
(dp1476
g11
(g12
((lp1477
(lp1478
VCaterpillar
p1479
aF0.0
aa(lp1480
VCaterpillar_(Alice's_Adventures_in_Wonderland)
p1481
aF0.0
aa(lp1482
VCaterpillar_Inc.
p1483
aF0.0
aatp1484
Rp1485
g12
((lp1486
(lp1487
g1479
aF0.0
aa(lp1488
g1481
aF0.0
aa(lp1489
g1483
aF0.0
aatp1490
Rp1491
tp1492
ssg26
(iAmbiguous_Entity
NamedEntity
p1493
(dp1494
g29
g1442
sg31
Vcaterpillar
p1495
sg33
g1444
sg35
g1445
sg37
(dp1496
g1479
(iAmbiguous_Entity
CandidateResource
p1497
(dp1498
g41
(g42
F0.24025127291679382
tp1499
sg44
Vhttp://dbpedia.org/resource/Caterpillar
p1500
sg46
g1479
sbssg51
g56
sg60
(dp1501
VCaterpillar
p1502
(iAmbiguous_Entity
CandidateResource
p1503
(dp1504
g41
(g132
V0.07052275538444519
p1505
tp1506
sg44
Vhttp://dbpedia.org/resource/Caterpillar
p1507
sg46
g1502
sbsg1481
(iAmbiguous_Entity
CandidateResource
p1508
(dp1509
g41
(g132
V0.08477285504341125
p1510
tp1511
sg44
Vhttp://dbpedia.org/resource/Caterpillar_(Alice's_Adventures_in_Wonderland)
p1512
sg46
g1481
sbsg1483
(iAmbiguous_Entity
CandidateResource
p1513
(dp1514
g41
(g132
V0.03098205290734768
p1515
tp1516
sg44
Vhttp://dbpedia.org/resource/Caterpillar_Inc.
p1517
sg46
g1483
sbssbsba(iresults.Resolved_Entity
ResolvedEntity
p1518
(dp1519
g3
(dp1520
S'Time_(magazine)'
p1521
(I0
I3
tp1522
sS'Time,_Norway'
p1523
(I0
I3
tp1524
sS'The_Time_(band)'
p1525
(I0
I3
tp1526
sS'Father_Time'
p1527
(I0
I3
tp1528
sS'Time_signature'
p1529
(I0
I3
tp1530
sS'Time'
p1531
(I3
I0
tp1532
sS'Time_Inc.'
p1533
(I0
I3
tp1534
sS'The_Time_(Dirty_Bit)'
p1535
(I0
I3
tp1536
ssg9
(dp1537
g11
(g12
((lp1538
(lp1539
VTime,_Norway
p1540
aF0.0
aa(lp1541
VThe_Time_(band)
p1542
aF0.0
aa(lp1543
VFather_Time
p1544
aF0.0
aa(lp1545
VTime_(magazine)
p1546
aF0.0
aa(lp1547
VTime
p1548
aF0.0
aa(lp1549
VTime_Inc.
p1550
aF0.0
aa(lp1551
VTime_signature
p1552
aF0.0
aa(lp1553
VThe_Time_(Dirty_Bit)
p1554
aF0.0
aatp1555
Rp1556
g12
((lp1557
(lp1558
g1540
aF0.0
aa(lp1559
g1542
aF0.0
aa(lp1560
g1544
aF0.0
aa(lp1561
g1546
aF0.0
aa(lp1562
g1548
aF0.0
aa(lp1563
g1550
aF0.0
aa(lp1564
g1552
aF0.0
aa(lp1565
g1554
aF0.0
aatp1566
Rp1567
tp1568
ssg26
(iAmbiguous_Entity
NamedEntity
p1569
(dp1570
g29
g1442
sg31
Vtime
p1571
sg33
g1444
sg35
g1445
sg37
(dp1572
sg51
g56
sg60
(dp1573
g1546
(iAmbiguous_Entity
CandidateResource
p1574
(dp1575
g41
(g132
V0.05044788122177124
p1576
tp1577
sg44
Vhttp://dbpedia.org/resource/Time_(magazine)
p1578
sg46
g1546
sbsg1540
(iAmbiguous_Entity
CandidateResource
p1579
(dp1580
g41
(g132
V0.011078821495175362
p1581
tp1582
sg44
Vhttp://dbpedia.org/resource/Time,_Norway
p1583
sg46
g1540
sbsg1542
(iAmbiguous_Entity
CandidateResource
p1584
(dp1585
g41
(g132
V0.019082019105553627
p1586
tp1587
sg44
Vhttp://dbpedia.org/resource/The_Time_(band)
p1588
sg46
g1542
sbsg1544
(iAmbiguous_Entity
CandidateResource
p1589
(dp1590
g41
(g132
V0.013210778124630451
p1591
tp1592
sg44
Vhttp://dbpedia.org/resource/Father_Time
p1593
sg46
g1544
sbsg1552
(iAmbiguous_Entity
CandidateResource
p1594
(dp1595
g41
(g132
V0.017612071707844734
p1596
tp1597
sg44
Vhttp://dbpedia.org/resource/Time_signature
p1598
sg46
g1552
sbsg1548
(iAmbiguous_Entity
CandidateResource
p1599
(dp1600
g41
(g132
V0.027975721284747124
p1601
tp1602
sg44
Vhttp://dbpedia.org/resource/Time
p1603
sg46
g1548
sbsg1550
(iAmbiguous_Entity
CandidateResource
p1604
(dp1605
g41
(g132
V0.014381611719727516
p1606
tp1607
sg44
Vhttp://dbpedia.org/resource/Time_Inc.
p1608
sg46
g1550
sbsg1554
(iAmbiguous_Entity
CandidateResource
p1609
(dp1610
g41
(g132
V0.01277942769229412
p1611
tp1612
sg44
Vhttp://dbpedia.org/resource/The_Time_(Dirty_Bit)
p1613
sg46
g1554
sbssbsba(iresults.Resolved_Entity
ResolvedEntity
p1614
(dp1615
g3
(dp1616
S'Price'
p1617
(I3
I0
tp1618
sS'Price_County,_Wisconsin'
p1619
(I0
I3
tp1620
sS'Price,_Utah'
p1621
(I0
I3
tp1622
ssg9
(dp1623
g11
(g12
((lp1624
(lp1625
VPrice
p1626
aF0.0
aa(lp1627
VPrice_County,_Wisconsin
p1628
aF0.0
aa(lp1629
VPrice,_Utah
p1630
aF0.0
aatp1631
Rp1632
g12
((lp1633
(lp1634
g1626
aF0.0
aa(lp1635
g1628
aF0.0
aa(lp1636
g1630
aF0.0
aatp1637
Rp1638
tp1639
ssg26
(iAmbiguous_Entity
NamedEntity
p1640
(dp1641
g29
S'ginkgo100'
p1642
sg31
Vprice
p1643
sg33
S'17322987380285440'
p1644
sg35
S'@PoppleKyle I could do your editing for you, for a good price too! Depending on the length of the book, maybe even just free CDs :)'
p1645
sg37
(dp1646
sg51
g56
sg60
(dp1647
g1626
(iAmbiguous_Entity
CandidateResource
p1648
(dp1649
g41
(g132
V0.16436158120632172
p1650
tp1651
sg44
Vhttp://dbpedia.org/resource/Price
p1652
sg46
g1626
sbsg1628
(iAmbiguous_Entity
CandidateResource
p1653
(dp1654
g41
(g132
V0.040335070341825485
p1655
tp1656
sg44
Vhttp://dbpedia.org/resource/Price_County,_Wisconsin
p1657
sg46
g1628
sbsg1630
(iAmbiguous_Entity
CandidateResource
p1658
(dp1659
g41
(g132
V0.08161205053329468
p1660
tp1661
sg44
Vhttp://dbpedia.org/resource/Price,_Utah
p1662
sg46
g1630
sbssbsba(iresults.Resolved_Entity
ResolvedEntity
p1663
(dp1664
g3
(dp1665
S'Length'
p1666
(I3
I0
tp1667
sS'Length_overall'
p1668
(I0
I3
tp1669
ssg9
(dp1670
g11
(g12
((lp1671
(lp1672
VLength
p1673
aF0.0
aa(lp1674
VLength_overall
p1675
aF0.0
aatp1676
Rp1677
g12
((lp1678
(lp1679
g1673
aF0.0
aa(lp1680
g1675
aF0.0
aatp1681
Rp1682
tp1683
ssg26
(iAmbiguous_Entity
NamedEntity
p1684
(dp1685
g29
g1642
sg31
Vlength
p1686
sg33
g1644
sg35
g1645
sg37
(dp1687
sg51
g56
sg60
(dp1688
g1673
(iAmbiguous_Entity
CandidateResource
p1689
(dp1690
g41
(g132
V0.13122785091400146
p1691
tp1692
sg44
Vhttp://dbpedia.org/resource/Length
p1693
sg46
g1673
sbsg1675
(iAmbiguous_Entity
CandidateResource
p1694
(dp1695
g41
(g132
V0.09844770282506943
p1696
tp1697
sg44
Vhttp://dbpedia.org/resource/Length_overall
p1698
sg46
g1675
sbssbsba(iresults.Resolved_Entity
ResolvedEntity
p1699
(dp1700
g3
(dp1701
S'Musical_theatre'
p1702
(I0
I3
tp1703
sS'The_Books'
p1704
(I0
I3
tp1705
sS'Whoopi_Goldberg'
p1706
(I0
I3
tp1707
sS'Book'
p1708
(I3
I0
tp1709
sS'Nineteen_Eighty-Four'
p1710
(I0
I3
tp1711
sS'2003_in_literature'
p1712
(I0
I3
tp1713
ssg9
(dp1714
g11
(g12
((lp1715
(lp1716
VWhoopi_Goldberg
p1717
aF5.41
aa(lp1718
VMusical_theatre
p1719
aF0.0
aa(lp1720
VThe_Books
p1721
aF0.0
aa(lp1722
VBook
p1723
aF0.0
aa(lp1724
VNineteen_Eighty-Four
p1725
aF0.0
aa(lp1726
V2003_in_literature
p1727
aF0.0
aatp1728
Rp1729
g12
((lp1730
(lp1731
g1719
aF0.0
aa(lp1732
g1721
aF0.0
aa(lp1733
g1717
aF0.0
aa(lp1734
g1723
aF0.0
aa(lp1735
g1725
aF0.0
aa(lp1736
g1727
aF0.0
aatp1737
Rp1738
tp1739
ssg26
(iAmbiguous_Entity
NamedEntity
p1740
(dp1741
g29
g1642
sg31
Vbook
p1742
sg33
g1644
sg35
g1645
sg37
(dp1743
sg51
g56
sg60
(dp1744
g1719
(iAmbiguous_Entity
CandidateResource
p1745
(dp1746
g41
(g132
V0.08812573552131653
p1747
tp1748
sg44
Vhttp://dbpedia.org/resource/Musical_theatre
p1749
sg46
g1719
sbsg1721
(iAmbiguous_Entity
CandidateResource
p1750
(dp1751
g41
(g132
V0.11078628152608871
p1752
tp1753
sg44
Vhttp://dbpedia.org/resource/The_Books
p1754
sg46
g1721
sbsg1717
(iAmbiguous_Entity
CandidateResource
p1755
(dp1756
g41
(g132
V0.1018575131893158
p1757
tp1758
sg44
Vhttp://dbpedia.org/resource/Whoopi_Goldberg
p1759
sg46
g1717
sbsg1723
(iAmbiguous_Entity
CandidateResource
p1760
(dp1761
g41
(g132
V0.1858150064945221
p1762
tp1763
sg44
Vhttp://dbpedia.org/resource/Book
p1764
sg46
g1723
sbsg1725
(iAmbiguous_Entity
CandidateResource
p1765
(dp1766
g41
(g132
V0.07400988787412643
p1767
tp1768
sg44
Vhttp://dbpedia.org/resource/Nineteen_Eighty-Four
p1769
sg46
g1725
sbsg1727
(iAmbiguous_Entity
CandidateResource
p1770
(dp1771
g41
(g132
V0.17365096509456635
p1772
tp1773
sg44
Vhttp://dbpedia.org/resource/2003_in_literature
p1774
sg46
g1727
sbssbsba(iresults.Resolved_Entity
ResolvedEntity
p1775
(dp1776
g3
(dp1777
S'Audio_engineering'
p1778
(I1
I2
tp1779
sS'Digital_audio_editor'
p1780
(I0
I3
tp1781
sS'Music_sequencer'
p1782
(I0
I3
tp1783
sS'Image_editing'
p1784
(I0
I3
tp1785
sS'Editing'
p1786
(I3
I0
tp1787
sS'Film_editing'
p1788
(I0
I3
tp1789
ssg9
(dp1790
g11
(g12
((lp1791
(lp1792
VAudio_engineering
p1793
aF0.0
aa(lp1794
VFilm_editing
p1795
aF0.0
aa(lp1796
VDigital_audio_editor
p1797
aF0.0
aa(lp1798
VMusic_sequencer
p1799
aF0.0
aa(lp1800
VEditing
p1801
aF0.0
aa(lp1802
VImage_editing
p1803
aF0.0
aatp1804
Rp1805
g12
((lp1806
(lp1807
g1793
aF0.0
aa(lp1808
g1795
aF0.0
aa(lp1809
g1797
aF0.0
aa(lp1810
g1799
aF0.0
aa(lp1811
g1801
aF0.0
aa(lp1812
g1803
aF0.0
aatp1813
Rp1814
tp1815
ssg26
(iAmbiguous_Entity
NamedEntity
p1816
(dp1817
g29
g1642
sg31
Vediting
p1818
sg33
g1644
sg35
g1645
sg37
(dp1819
g1793
(iAmbiguous_Entity
CandidateResource
p1820
(dp1821
g41
(g42
F0.5207202434539795
tp1822
sg44
Vhttp://dbpedia.org/resource/Audio_engineering
p1823
sg46
g1793
sbsg1797
(iAmbiguous_Entity
CandidateResource
p1824
(dp1825
g41
(g42
F0.3799010217189789
tp1826
sg44
Vhttp://dbpedia.org/resource/Digital_audio_editor
p1827
sg46
g1797
sbsg1799
(iAmbiguous_Entity
CandidateResource
p1828
(dp1829
g41
(g42
F0.37503108382225037
tp1830
sg44
Vhttp://dbpedia.org/resource/Music_sequencer
p1831
sg46
g1799
sbsg1803
(iAmbiguous_Entity
CandidateResource
p1832
(dp1833
g41
(g42
F0.29794979095458984
tp1834
sg44
Vhttp://dbpedia.org/resource/Image_editing
p1835
sg46
g1803
sbsg1801
(iAmbiguous_Entity
CandidateResource
p1836
(dp1837
g41
(g42
F0.3009246587753296
tp1838
sg44
Vhttp://dbpedia.org/resource/Editing
p1839
sg46
g1801
sbsg1795
(iAmbiguous_Entity
CandidateResource
p1840
(dp1841
g41
(g42
F0.24313192069530487
tp1842
sg44
Vhttp://dbpedia.org/resource/Film_editing
p1843
sg46
g1795
sbssg51
g56
sg60
(dp1844
VEditing
p1845
(iAmbiguous_Entity
CandidateResource
p1846
(dp1847
g41
(g132
V0.11417996883392334
p1848
tp1849
sg44
Vhttp://dbpedia.org/resource/Editing
p1850
sg46
g1845
sbssbsba(iresults.Resolved_Entity
ResolvedEntity
p1851
(dp1852
g3
(dp1853
S'Floor_Jansen'
p1854
(I0
I3
tp1855
sS'Floor_(gymnastics)'
p1856
(I0
I3
tp1857
sS'Flooring'
p1858
(I1
I2
tp1859
sS'Storey'
p1860
(I1
I2
tp1861
sS'Floor'
p1862
(I3
I0
tp1863
ssg9
(dp1864
g11
(g12
((lp1865
(lp1866
VFloor_Jansen
p1867
aF5.46
aa(lp1868
VFlooring
p1869
aF0.19
aa(lp1870
VFloor_(gymnastics)
p1871
aF0.02
aa(lp1872
VStorey
p1873
aF0.01
aa(lp1874
VFloor
p1875
aF0.01
aatp1876
Rp1877
g12
((lp1878
(lp1879
g1867
aF0.0
aa(lp1880
g1871
aF0.0
aa(lp1881
g1873
aF0.0
aa(lp1882
g1869
aF0.0
aa(lp1883
g1875
aF0.0
aatp1884
Rp1885
tp1886
ssg26
(iAmbiguous_Entity
NamedEntity
p1887
(dp1888
g29
S'ginkgo100'
p1889
sg31
Vfloor
p1890
sg33
S'22559453258'
p1891
sg35
S'ME, eyeing a cluttered floor: Pick up the trash in here. 2YO: Okay. *picks up trash can* #parenting #my2yosays'
p1892
sg37
(dp1893
sg51
g56
sg60
(dp1894
g1873
(iAmbiguous_Entity
CandidateResource
p1895
(dp1896
g41
(g132
V0.032055411487817764
p1897
tp1898
sg44
Vhttp://dbpedia.org/resource/Storey
p1899
sg46
g1873
sbsg1871
(iAmbiguous_Entity
CandidateResource
p1900
(dp1901
g41
(g132
V0.02689283713698387
p1902
tp1903
sg44
Vhttp://dbpedia.org/resource/Floor_(gymnastics)
p1904
sg46
g1871
sbsg1867
(iAmbiguous_Entity
CandidateResource
p1905
(dp1906
g41
(g132
V0.03676274046301842
p1907
tp1908
sg44
Vhttp://dbpedia.org/resource/Floor_Jansen
p1909
sg46
g1867
sbsg1869
(iAmbiguous_Entity
CandidateResource
p1910
(dp1911
g41
(g132
V0.026072213426232338
p1912
tp1913
sg44
Vhttp://dbpedia.org/resource/Flooring
p1914
sg46
g1869
sbsg1875
(iAmbiguous_Entity
CandidateResource
p1915
(dp1916
g41
(g132
V0.04515906795859337
p1917
tp1918
sg44
Vhttp://dbpedia.org/resource/Floor
p1919
sg46
g1875
sbssbsba(iresults.Resolved_Entity
ResolvedEntity
p1920
(dp1921
g3
(dp1922
S'Trash'
p1923
(I2
I1
tp1924
sS'Sanitation'
p1925
(I2
I1
tp1926
sS'Exploitation_film'
p1927
(I0
I3
tp1928
sS'Biodegradable_waste'
p1929
(I1
I2
tp1930
sS'Waste'
p1931
(I3
I0
tp1932
sS'Dumpster_diving'
p1933
(I0
I3
tp1934
sS'White_trash'
p1935
(I0
I3
tp1936
ssg9
(dp1937
g11
(g12
((lp1938
(lp1939
VTrash
p1940
aF19.15
aa(lp1941
VDumpster_diving
p1942
aF0.38
aa(lp1943
VSanitation
p1944
aF0.0
aa(lp1945
VExploitation_film
p1946
aF0.0
aa(lp1947
VBiodegradable_waste
p1948
aF0.0
aa(lp1949
VWaste
p1950
aF0.0
aa(lp1951
VWhite_trash
p1952
aF0.0
aatp1953
Rp1954
g12
((lp1955
(lp1956
g1940
aF0.0
aa(lp1957
g1944
aF0.0
aa(lp1958
g1946
aF0.0
aa(lp1959
g1948
aF0.0
aa(lp1960
g1950
aF0.0
aa(lp1961
g1942
aF0.0
aa(lp1962
g1952
aF0.0
aatp1963
Rp1964
tp1965
ssg26
(iAmbiguous_Entity
NamedEntity
p1966
(dp1967
g29
g1889
sg31
Vtrash
p1968
sg33
g1891
sg35
g1892
sg37
(dp1969
g1940
(iAmbiguous_Entity
CandidateResource
p1970
(dp1971
g41
(g42
F0.2717028260231018
tp1972
sg44
Vhttp://dbpedia.org/resource/Trash
p1973
sg46
g1940
sbsg1944
(iAmbiguous_Entity
CandidateResource
p1974
(dp1975
g41
(g42
F0.2117839902639389
tp1976
sg44
Vhttp://dbpedia.org/resource/Sanitation
p1977
sg46
g1944
sbsg1946
(iAmbiguous_Entity
CandidateResource
p1978
(dp1979
g41
(g42
F0.2117839902639389
tp1980
sg44
Vhttp://dbpedia.org/resource/Exploitation_film
p1981
sg46
g1946
sbsg1948
(iAmbiguous_Entity
CandidateResource
p1982
(dp1983
g41
(g42
F0.2117839902639389
tp1984
sg44
Vhttp://dbpedia.org/resource/Biodegradable_waste
p1985
sg46
g1948
sbsg1950
(iAmbiguous_Entity
CandidateResource
p1986
(dp1987
g41
(g42
F0.29955151677131653
tp1988
sg44
Vhttp://dbpedia.org/resource/Waste
p1989
sg46
g1950
sbsg1942
(iAmbiguous_Entity
CandidateResource
p1990
(dp1991
g41
(g42
F0.2668766677379608
tp1992
sg44
Vhttp://dbpedia.org/resource/Dumpster_diving
p1993
sg46
g1942
sbsg1952
(iAmbiguous_Entity
CandidateResource
p1994
(dp1995
g41
(g42
F0.2883397340774536
tp1996
sg44
Vhttp://dbpedia.org/resource/White_trash
p1997
sg46
g1952
sbssg51
g56
sg60
(dp1998
VWaste
p1999
(iAmbiguous_Entity
CandidateResource
p2000
(dp2001
g41
(g132
V0.058835528790950775
p2002
tp2003
sg44
Vhttp://dbpedia.org/resource/Waste
p2004
sg46
g1999
sbssbsba(iresults.Resolved_Entity
ResolvedEntity
p2005
(dp2006
g3
(dp2007
S'Aether_(classical_element)'
p2008
(I0
I3
tp2009
sS'Idea'
p2010
(I3
I0
tp2011
sS'Idea_Cellular'
p2012
(I0
I3
tp2013
ssg9
(dp2014
g11
(g12
((lp2015
(lp2016
VIdea
p2017
aF0.52
aa(lp2018
VAether_(classical_element)
p2019
aF0.0
aa(lp2020
VIdea_Cellular
p2021
aF0.0
aatp2022
Rp2023
g12
((lp2024
(lp2025
g2019
aF0.0
aa(lp2026
g2017
aF0.0
aa(lp2027
g2021
aF0.0
aatp2028
Rp2029
tp2030
ssg26
(iAmbiguous_Entity
NamedEntity
p2031
(dp2032
g29
S'ginkgo100'
p2033
sg31
Videas
p2034
sg33
S'26381124175'
p2035
sg35
S'@conversiondiary Burritoes w/ canned beans; cold-cut sandwiches; salad w/ pre-cooked frozen chicken. Let me know if these ideas helped!'
p2036
sg37
(dp2037
sg51
g56
sg60
(dp2038
g2019
(iAmbiguous_Entity
CandidateResource
p2039
(dp2040
g41
(g132
V0.024063173681497574
p2041
tp2042
sg44
Vhttp://dbpedia.org/resource/Aether_(classical_element)
p2043
sg46
g2019
sbsg2017
(iAmbiguous_Entity
CandidateResource
p2044
(dp2045
g41
(g132
V0.06484456360340118
p2046
tp2047
sg44
Vhttp://dbpedia.org/resource/Idea
p2048
sg46
g2017
sbsg2021
(iAmbiguous_Entity
CandidateResource
p2049
(dp2050
g41
(g132
V0.035543423146009445
p2051
tp2052
sg44
Vhttp://dbpedia.org/resource/Idea_Cellular
p2053
sg46
g2021
sbssbsba(iresults.Resolved_Entity
ResolvedEntity
p2054
(dp2055
g3
(dp2056
S'Phaseolus_vulgaris'
p2057
(I3
I0
tp2058
sS'Bean'
p2059
(I3
I0
tp2060
sS'With_the_Lights_Out'
p2061
(I0
I3
tp2062
ssg9
(dp2063
g11
(g12
((lp2064
(lp2065
VBean
p2066
aF0.53
aa(lp2067
VPhaseolus_vulgaris
p2068
aF0.23
aa(lp2069
VWith_the_Lights_Out
p2070
aF0.0
aatp2071
Rp2072
g12
((lp2073
(lp2074
g2068
aF0.0
aa(lp2075
g2066
aF0.0
aa(lp2076
g2070
aF0.0
aatp2077
Rp2078
tp2079
ssg26
(iAmbiguous_Entity
NamedEntity
p2080
(dp2081
g29
g2033
sg31
Vbeans
p2082
sg33
g2035
sg35
g2036
sg37
(dp2083
g2068
(iAmbiguous_Entity
CandidateResource
p2084
(dp2085
g41
(g42
F0.5226345062255859
tp2086
sg44
Vhttp://dbpedia.org/resource/Phaseolus_vulgaris
p2087
sg46
g2068
sbsg2066
(iAmbiguous_Entity
CandidateResource
p2088
(dp2089
g41
(g42
F0.5974898338317871
tp2090
sg44
Vhttp://dbpedia.org/resource/Bean
p2091
sg46
g2066
sbssg51
g56
sg60
(dp2092
VBean
p2093
(iAmbiguous_Entity
CandidateResource
p2094
(dp2095
g41
(g132
V0.19687166810035706
p2096
tp2097
sg44
Vhttp://dbpedia.org/resource/Bean
p2098
sg46
g2093
sbsg2070
(iAmbiguous_Entity
CandidateResource
p2099
(dp2100
g41
(g132
V0.00929958000779152
p2101
tp2102
sg44
Vhttp://dbpedia.org/resource/With_the_Lights_Out
p2103
sg46
g2070
sbssbsba(iresults.Resolved_Entity
ResolvedEntity
p2104
(dp2105
g3
(dp2106
S'Peanut_butter_and_jelly_sandwich'
p2107
(I1
I2
tp2108
sS'Sandwich'
p2109
(I3
I0
tp2110
ssg9
(dp2111
g11
(g12
((lp2112
(lp2113
VSandwich
p2114
aF0.11
aa(lp2115
VPeanut_butter_and_jelly_sandwich
p2116
aF0.0
aatp2117
Rp2118
g12
((lp2119
(lp2120
g2116
aF0.0
aa(lp2121
g2114
aF0.0
aatp2122
Rp2123
tp2124
ssg26
(iAmbiguous_Entity
NamedEntity
p2125
(dp2126
g29
g2033
sg31
Vsandwiches
p2127
sg33
g2035
sg35
g2036
sg37
(dp2128
g2116
(iAmbiguous_Entity
CandidateResource
p2129
(dp2130
g41
(g42
F0.4530242383480072
tp2131
sg44
Vhttp://dbpedia.org/resource/Peanut_butter_and_jelly_sandwich
p2132
sg46
g2116
sbsg2114
(iAmbiguous_Entity
CandidateResource
p2133
(dp2134
g41
(g42
F0.5974898338317871
tp2135
sg44
Vhttp://dbpedia.org/resource/Sandwich
p2136
sg46
g2114
sbssg51
g56
sg60
(dp2137
VSandwich
p2138
(iAmbiguous_Entity
CandidateResource
p2139
(dp2140
g41
(g132
V0.15597255527973175
p2141
tp2142
sg44
Vhttp://dbpedia.org/resource/Sandwich
p2143
sg46
g2138
sbssbsba(iresults.Resolved_Entity
ResolvedEntity
p2144
(dp2145
g3
(dp2146
S'The_Reason_(Hoobastank_song)'
p2147
(I0
I3
tp2148
sS'Reason_(software)'
p2149
(I0
I3
tp2150
sS'Reason'
p2151
(I3
I0
tp2152
sS'Reason_(magazine)'
p2153
(I0
I3
tp2154
ssg9
(dp2155
g11
(g12
((lp2156
(lp2157
VReason
p2158
aF2.24
aa(lp2159
VThe_Reason_(Hoobastank_song)
p2160
aF0.0
aa(lp2161
VReason_(software)
p2162
aF0.0
aa(lp2163
VReason_(magazine)
p2164
aF0.0
aatp2165
Rp2166
g12
((lp2167
(lp2168
g2160
aF0.0
aa(lp2169
g2158
aF0.0
aa(lp2170
g2162
aF0.0
aa(lp2171
g2164
aF0.0
aatp2172
Rp2173
tp2174
ssg26
(iAmbiguous_Entity
NamedEntity
p2175
(dp2176
g29
S'ginkgo100'
p2177
sg31
Vreason
p2178
sg33
S'18875908185'
p2179
sg35
S'@ChristiansFaith For once I disagree w/ u. We serve God w/ hearts AND minds. Christ is LOGOS, the Word, thought & reason.'
p2180
sg37
(dp2181
sg51
g56
sg60
(dp2182
g2160
(iAmbiguous_Entity
CandidateResource
p2183
(dp2184
g41
(g132
V0.05452448129653931
p2185
tp2186
sg44
Vhttp://dbpedia.org/resource/The_Reason_(Hoobastank_song)
p2187
sg46
g2160
sbsg2158
(iAmbiguous_Entity
CandidateResource
p2188
(dp2189
g41
(g132
V0.2065500169992447
p2190
tp2191
sg44
Vhttp://dbpedia.org/resource/Reason
p2192
sg46
g2158
sbsg2162
(iAmbiguous_Entity
CandidateResource
p2193
(dp2194
g41
(g132
V0.027560299262404442
p2195
tp2196
sg44
Vhttp://dbpedia.org/resource/Reason_(software)
p2197
sg46
g2162
sbsg2164
(iAmbiguous_Entity
CandidateResource
p2198
(dp2199
g41
(g132
V0.09453067928552628
p2200
tp2201
sg44
Vhttp://dbpedia.org/resource/Reason_(magazine)
p2202
sg46
g2164
sbssbsba(iresults.Resolved_Entity
ResolvedEntity
p2203
(dp2204
g3
(dp2205
S'Felidae'
p2206
(I2
I1
tp2207
sS'Feral_cat'
p2208
(I1
I2
tp2209
sS'Cat'
p2210
(I3
I0
tp2211
sS'Cats_(musical)'
p2212
(I0
I3
tp2213
sS'Domestic_cat'
p2214
(I3
I0
tp2215
sS'Jacob_Cats'
p2216
(I0
I3
tp2217
ssg9
(dp2218
g11
(g12
((lp2219
(lp2220
VFeral_cat
p2221
aF0.4
aa(lp2222
VCat
p2223
aF0.32
aa(lp2224
VFelidae
p2225
aF0.0
aa(lp2226
VCats_(musical)
p2227
aF0.0
aa(lp2228
VDomestic_cat
p2229
aF0.0
aa(lp2230
VJacob_Cats
p2231
aF0.0
aatp2232
Rp2233
g12
((lp2234
(lp2235
g2225
aF0.0
aa(lp2236
g2221
aF0.0
aa(lp2237
g2223
aF0.0
aa(lp2238
g2227
aF0.0
aa(lp2239
g2229
aF0.0
aa(lp2240
g2231
aF0.0
aatp2241
Rp2242
tp2243
ssg26
(iAmbiguous_Entity
NamedEntity
p2244
(dp2245
g29
S'ginkgo100'
p2246
sg31
Vcats
p2247
sg33
S'22227688043'
p2248
sg35
S'HOME NEEDED: cute orange tabby kitten, found by a drainage canal & he needs a home. Looks to be around 4 months(?) and very friendly. #cats'
p2249
sg37
(dp2250
g2225
(iAmbiguous_Entity
CandidateResource
p2251
(dp2252
g41
(g42
F0.2455306500196457
tp2253
sg44
Vhttp://dbpedia.org/resource/Felidae
p2254
sg46
g2225
sbsg2221
(iAmbiguous_Entity
CandidateResource
p2255
(dp2256
g41
(g42
F0.2475574016571045
tp2257
sg44
Vhttp://dbpedia.org/resource/Feral_cat
p2258
sg46
g2221
sbsg2229
(iAmbiguous_Entity
CandidateResource
p2259
(dp2260
g41
(g42
F0.25026822090148926
tp2261
sg44
Vhttp://dbpedia.org/resource/Domestic_cat
p2262
sg46
g2229
sbsg2223
(iAmbiguous_Entity
CandidateResource
p2263
(dp2264
g41
(g42
F0.295893132686615
tp2265
sg44
Vhttp://dbpedia.org/resource/Cat
p2266
sg46
g2223
sbssg51
g56
sg60
(dp2267
g2227
(iAmbiguous_Entity
CandidateResource
p2268
(dp2269
g41
(g132
V0.05868998169898987
p2270
tp2271
sg44
Vhttp://dbpedia.org/resource/Cats_(musical)
p2272
sg46
g2227
sbsg2231
(iAmbiguous_Entity
CandidateResource
p2273
(dp2274
g41
(g132
V0.03300826996564865
p2275
tp2276
sg44
Vhttp://dbpedia.org/resource/Jacob_Cats
p2277
sg46
g2231
sbsVCat
p2278
(iAmbiguous_Entity
CandidateResource
p2279
(dp2280
g41
(g132
V0.09719303995370865
p2281
tp2282
sg44
Vhttp://dbpedia.org/resource/Cat
p2283
sg46
g2278
sbssbsba(iresults.Resolved_Entity
ResolvedEntity
p2284
(dp2285
g3
(dp2286
S'Cat'
p2287
(I2
I1
tp2288
sS'Kitten'
p2289
(I3
I0
tp2290
ssg9
(dp2291
g11
(g12
((lp2292
(lp2293
VCat
p2294
aF0.1
aa(lp2295
VKitten
p2296
aF0.0
aatp2297
Rp2298
g12
((lp2299
(lp2300
g2296
aF0.0
aa(lp2301
g2294
aF0.0
aatp2302
Rp2303
tp2304
ssg26
(iAmbiguous_Entity
NamedEntity
p2305
(dp2306
g29
g2246
sg31
Vkitten
p2307
sg33
g2248
sg35
g2249
sg37
(dp2308
g2294
(iAmbiguous_Entity
CandidateResource
p2309
(dp2310
g41
(g42
F0.295893132686615
tp2311
sg44
Vhttp://dbpedia.org/resource/Cat
p2312
sg46
g2294
sbsg2296
(iAmbiguous_Entity
CandidateResource
p2313
(dp2314
g41
(g42
F0.295893132686615
tp2315
sg44
Vhttp://dbpedia.org/resource/Kitten
p2316
sg46
g2296
sbssg51
g56
sg60
(dp2317
VKitten
p2318
(iAmbiguous_Entity
CandidateResource
p2319
(dp2320
g41
(g132
V0.15162140130996704
p2321
tp2322
sg44
Vhttp://dbpedia.org/resource/Kitten
p2323
sg46
g2318
sbssbsba(iresults.Resolved_Entity
ResolvedEntity
p2324
(dp2325
g3
(dp2326
S'Shinto_shrine'
p2327
(I1
I2
tp2328
sS'Shrine'
p2329
(I3
I0
tp2330
ssg9
(dp2331
g11
(g12
((lp2332
(lp2333
VShinto_shrine
p2334
aF0.0
aa(lp2335
VShrine
p2336
aF0.0
aatp2337
Rp2338
g12
((lp2339
(lp2340
g2334
aF0.0
aa(lp2341
g2336
aF0.0
aatp2342
Rp2343
tp2344
ssg26
(iAmbiguous_Entity
NamedEntity
p2345
(dp2346
g29
S'ginkgo100'
p2347
sg31
Vshrine
p2348
sg33
S'19774778494'
p2349
sg35
S"@fatherz If #Oprah went to any #Catholic shrine, it would be #Medjugorje. Of course it would. She's awfully fascinated w/ Catholicism lately"
p2350
sg37
(dp2351
g2334
(iAmbiguous_Entity
CandidateResource
p2352
(dp2353
g41
(g42
F0.23052680492401123
tp2354
sg44
Vhttp://dbpedia.org/resource/Shinto_shrine
p2355
sg46
g2334
sbsg2336
(iAmbiguous_Entity
CandidateResource
p2356
(dp2357
g41
(g42
F0.2927170991897583
tp2358
sg44
Vhttp://dbpedia.org/resource/Shrine
p2359
sg46
g2336
sbssg51
g56
sg60
(dp2360
VShrine
p2361
(iAmbiguous_Entity
CandidateResource
p2362
(dp2363
g41
(g132
V0.13214951753616333
p2364
tp2365
sg44
Vhttp://dbpedia.org/resource/Shrine
p2366
sg46
g2361
sbssbsba(iresults.Resolved_Entity
ResolvedEntity
p2367
(dp2368
g3
(dp2369
S'Shoaling_and_schooling'
p2370
(I0
I3
tp2371
sS'School'
p2372
(I2
I1
tp2373
sS'Bleach_(album)'
p2374
(I0
I3
tp2375
sS'Battle_Royale'
p2376
(I0
I3
tp2377
ssg9
(dp2378
g11
(g12
((lp2379
(lp2380
VSchool
p2381
aF0.99
aa(lp2382
VShoaling_and_schooling
p2383
aF0.0
aa(lp2384
VBleach_(album)
p2385
aF0.0
aa(lp2386
VBattle_Royale
p2387
aF0.0
aatp2388
Rp2389
g12
((lp2390
(lp2391
g2383
aF0.0
aa(lp2392
g2381
aF0.0
aa(lp2393
g2385
aF0.0
aa(lp2394
g2387
aF0.0
aatp2395
Rp2396
tp2397
ssg26
(iAmbiguous_Entity
NamedEntity
p2398
(dp2399
g29
S'ginkgo100'
p2400
sg31
Vschool
p2401
sg33
S'6947001950277632'
p2402
sg35
S"@Milehimama Arthropods don't all have abdomens. They all have segments and jointed legs. Apparently science at the school is lacking too"
p2403
sg37
(dp2404
sg51
g56
sg60
(dp2405
g2383
(iAmbiguous_Entity
CandidateResource
p2406
(dp2407
g41
(g132
V0.06020210683345795
p2408
tp2409
sg44
Vhttp://dbpedia.org/resource/Shoaling_and_schooling
p2410
sg46
g2383
sbsg2381
(iAmbiguous_Entity
CandidateResource
p2411
(dp2412
g41
(g132
V0.07521700859069824
p2413
tp2414
sg44
Vhttp://dbpedia.org/resource/School
p2415
sg46
g2381
sbsg2385
(iAmbiguous_Entity
CandidateResource
p2416
(dp2417
g41
(g132
V0.008722982369363308
p2418
tp2419
sg44
Vhttp://dbpedia.org/resource/Bleach_(album)
p2420
sg46
g2385
sbsg2387
(iAmbiguous_Entity
CandidateResource
p2421
(dp2422
g41
(g132
V0.025087837129831314
p2423
tp2424
sg44
Vhttp://dbpedia.org/resource/Battle_Royale
p2425
sg46
g2387
sbssbsba(iresults.Resolved_Entity
ResolvedEntity
p2426
(dp2427
g3
(dp2428
S'Abdomen'
p2429
(I3
I0
tp2430
sS'Opisthosoma'
p2431
(I1
I2
tp2432
ssg9
(dp2433
g11
(g12
((lp2434
(lp2435
VAbdomen
p2436
aF0.0
aa(lp2437
VOpisthosoma
p2438
aF0.0
aatp2439
Rp2440
g12
((lp2441
(lp2442
g2436
aF0.0
aa(lp2443
g2438
aF0.0
aatp2444
Rp2445
tp2446
ssg26
(iAmbiguous_Entity
NamedEntity
p2447
(dp2448
g29
g2400
sg31
Vabdomens
p2449
sg33
g2402
sg35
g2403
sg37
(dp2450
g2436
(iAmbiguous_Entity
CandidateResource
p2451
(dp2452
g41
(g42
F0.45528045296669006
tp2453
sg44
Vhttp://dbpedia.org/resource/Abdomen
p2454
sg46
g2436
sbsg2438
(iAmbiguous_Entity
CandidateResource
p2455
(dp2456
g41
(g42
F0.4084233343601227
tp2457
sg44
Vhttp://dbpedia.org/resource/Opisthosoma
p2458
sg46
g2438
sbssg51
g56
sg60
(dp2459
VAbdomen
p2460
(iAmbiguous_Entity
CandidateResource
p2461
(dp2462
g41
(g132
V0.18327423930168152
p2463
tp2464
sg44
Vhttp://dbpedia.org/resource/Abdomen
p2465
sg46
g2460
sbssbsba(iresults.Resolved_Entity
ResolvedEntity
p2466
(dp2467
g3
(dp2468
S'Science_(magazine)'
p2469
(I0
I3
tp2470
sS'Science'
p2471
(I3
I0
tp2472
sS'Science_(journal)'
p2473
(I0
I3
tp2474
ssg9
(dp2475
g11
(g12
((lp2476
(lp2477
VScience_(journal)
p2478
aF0.0
aa(lp2479
VScience
p2480
aF0.0
aa(lp2481
VScience_(magazine)
p2482
aF0.0
aatp2483
Rp2484
g12
((lp2485
(lp2486
g2478
aF0.0
aa(lp2487
g2480
aF0.0
aa(lp2488
g2482
aF0.0
aatp2489
Rp2490
tp2491
ssg26
(iAmbiguous_Entity
NamedEntity
p2492
(dp2493
g29
g2400
sg31
Vscience
p2494
sg33
g2402
sg35
g2403
sg37
(dp2495
g2480
(iAmbiguous_Entity
CandidateResource
p2496
(dp2497
g41
(g42
F0.45528045296669006
tp2498
sg44
Vhttp://dbpedia.org/resource/Science
p2499
sg46
g2480
sbssg51
g56
sg60
(dp2500
g2478
(iAmbiguous_Entity
CandidateResource
p2501
(dp2502
g41
(g132
V0.09477192163467407
p2503
tp2504
sg44
Vhttp://dbpedia.org/resource/Science_(journal)
p2505
sg46
g2478
sbsVScience
p2506
(iAmbiguous_Entity
CandidateResource
p2507
(dp2508
g41
(g132
V0.10915211588144302
p2509
tp2510
sg44
Vhttp://dbpedia.org/resource/Science
p2511
sg46
g2506
sbsg2482
(iAmbiguous_Entity
CandidateResource
p2512
(dp2513
g41
(g132
V0.07251513004302979
p2514
tp2515
sg44
Vhttp://dbpedia.org/resource/Science_(magazine)
p2516
sg46
g2482
sbssbsba(iresults.Resolved_Entity
ResolvedEntity
p2517
(dp2518
g3
(dp2519
S'Beat_the_Clock'
p2520
(I0
I3
tp2521
sS'Game_clock'
p2522
(I0
I3
tp2523
sS'Clock'
p2524
(I2
I1
tp2525
sS'Clock_signal'
p2526
(I0
I3
tp2527
sS'Clocks_(song)'
p2528
(I0
I3
tp2529
ssg9
(dp2530
g11
(g12
((lp2531
(lp2532
VBeat_the_Clock
p2533
aF0.28
aa(lp2534
VGame_clock
p2535
aF0.0
aa(lp2536
VClock_signal
p2537
aF0.0
aa(lp2538
VClocks_(song)
p2539
aF0.0
aa(lp2540
VClock
p2541
aF0.0
aatp2542
Rp2543
g12
((lp2544
(lp2545
g2533
aF0.0
aa(lp2546
g2535
aF0.0
aa(lp2547
g2537
aF0.0
aa(lp2548
g2539
aF0.0
aa(lp2549
g2541
aF0.0
aatp2550
Rp2551
tp2552
ssg26
(iAmbiguous_Entity
NamedEntity
p2553
(dp2554
g29
S'ginkgo100'
p2555
sg31
Vclock
p2556
sg33
S'29519005326'
p2557
sg35
S"RT @conversiondiary: RT @Jenidvm Oh, look! It's WILLYOUPLEASELEAVEYOURBROTHERALONE o'clock!! Argh."
p2558
sg37
(dp2559
g2535
(iAmbiguous_Entity
CandidateResource
p2560
(dp2561
g41
(g42
F0.35664889216423035
tp2562
sg44
Vhttp://dbpedia.org/resource/Game_clock
p2563
sg46
g2535
sbsg2537
(iAmbiguous_Entity
CandidateResource
p2564
(dp2565
g41
(g42
F0.44552189111709595
tp2566
sg44
Vhttp://dbpedia.org/resource/Clock_signal
p2567
sg46
g2537
sbsg2541
(iAmbiguous_Entity
CandidateResource
p2568
(dp2569
g41
(g42
F0.5589923858642578
tp2570
sg44
Vhttp://dbpedia.org/resource/Clock
p2571
sg46
g2541
sbssg51
g56
sg60
(dp2572
g2533
(iAmbiguous_Entity
CandidateResource
p2573
(dp2574
g41
(g132
V0.03019494004547596
p2575
tp2576
sg44
Vhttp://dbpedia.org/resource/Beat_the_Clock
p2577
sg46
g2533
sbsVClock_signal
p2578
(iAmbiguous_Entity
CandidateResource
p2579
(dp2580
g41
(g132
V0.021136458963155746
p2581
tp2582
sg44
Vhttp://dbpedia.org/resource/Clock_signal
p2583
sg46
g2578
sbsg2539
(iAmbiguous_Entity
CandidateResource
p2584
(dp2585
g41
(g132
V0.03019494004547596
p2586
tp2587
sg44
Vhttp://dbpedia.org/resource/Clocks_(song)
p2588
sg46
g2539
sbsVClock
p2589
(iAmbiguous_Entity
CandidateResource
p2590
(dp2591
g41
(g132
V0.056623753160238266
p2592
tp2593
sg44
Vhttp://dbpedia.org/resource/Clock
p2594
sg46
g2589
sbssbsba(iresults.Resolved_Entity
ResolvedEntity
p2595
(dp2596
g3
(dp2597
S'Nathan_Deal'
p2598
(I0
I3
tp2599
sS'Kim_Deal'
p2600
(I0
I3
tp2601
sS'Deal,_New_Jersey'
p2602
(I0
I3
tp2603
sS'Deal,_Kent'
p2604
(I0
I3
tp2605
ssg9
(dp2606
g11
(g12
((lp2607
(lp2608
VKim_Deal
p2609
aF1.7
aa(lp2610
VNathan_Deal
p2611
aF1.53
aa(lp2612
VDeal,_New_Jersey
p2613
aF0.0
aa(lp2614
VDeal,_Kent
p2615
aF0.0
aatp2616
Rp2617
g12
((lp2618
(lp2619
g2613
aF0.0
aa(lp2620
g2609
aF0.0
aa(lp2621
g2611
aF0.0
aa(lp2622
g2615
aF0.0
aatp2623
Rp2624
tp2625
ssg26
(iAmbiguous_Entity
NamedEntity
p2626
(dp2627
g29
S'ginkgo100'
p2628
sg31
Vdeal
p2629
sg33
S'29519188114'
p2630
sg35
S"RT @Milehimama: So what's the deal with that whole Purgatory thing? http://bit.ly/dayrh0 #christian #bible #christianity #jesus"
p2631
sg37
(dp2632
sg51
g56
sg60
(dp2633
g2611
(iAmbiguous_Entity
CandidateResource
p2634
(dp2635
g41
(g132
V0.05822489410638809
p2636
tp2637
sg44
Vhttp://dbpedia.org/resource/Nathan_Deal
p2638
sg46
g2611
sbsg2609
(iAmbiguous_Entity
CandidateResource
p2639
(dp2640
g41
(g132
V0.10386361926794052
p2641
tp2642
sg44
Vhttp://dbpedia.org/resource/Kim_Deal
p2643
sg46
g2609
sbsg2613
(iAmbiguous_Entity
CandidateResource
p2644
(dp2645
g41
(g132
V0.061198484152555466
p2646
tp2647
sg44
Vhttp://dbpedia.org/resource/Deal,_New_Jersey
p2648
sg46
g2613
sbsg2615
(iAmbiguous_Entity
CandidateResource
p2649
(dp2650
g41
(g132
V0.10373184084892273
p2651
tp2652
sg44
Vhttp://dbpedia.org/resource/Deal,_Kent
p2653
sg46
g2615
sbssbsba(iresults.Resolved_Entity
ResolvedEntity
p2654
(dp2655
g3
(dp2656
S'Jesus_Jones'
p2657
(I0
I3
tp2658
sS'Jesus'
p2659
(I3
I0
tp2660
sS'Jesus_Christ_Superstar'
p2661
(I0
I3
tp2662
sS'Queen_(album)'
p2663
(I0
I3
tp2664
sS'Jesus_in_Islam'
p2665
(I1
I2
tp2666
sS'Jesus_Walks'
p2667
(I0
I3
tp2668
sS'Jesus_of_Nazareth_(miniseries)'
p2669
(I1
I2
tp2670
ssg9
(dp2671
g11
(g12
((lp2672
(lp2673
VJesus_in_Islam
p2674
aF0.57
aa(lp2675
VJesus_Jones
p2676
aF0.0
aa(lp2677
VJesus
p2678
aF0.0
aa(lp2679
VJesus_Christ_Superstar
p2680
aF0.0
aa(lp2681
VJesus_of_Nazareth_(miniseries)
p2682
aF0.0
aa(lp2683
VJesus_Walks
p2684
aF0.0
aa(lp2685
VQueen_(album)
p2686
aF0.0
aatp2687
Rp2688
g12
((lp2689
(lp2690
g2676
aF0.0
aa(lp2691
g2678
aF0.0
aa(lp2692
g2680
aF0.0
aa(lp2693
g2682
aF0.0
aa(lp2694
g2674
aF0.0
aa(lp2695
g2684
aF0.0
aa(lp2696
g2686
aF0.0
aatp2697
Rp2698
tp2699
ssg26
(iAmbiguous_Entity
NamedEntity
p2700
(dp2701
g29
g2628
sg31
Vjesus
p2702
sg33
g2630
sg35
g2631
sg37
(dp2703
g2678
(iAmbiguous_Entity
CandidateResource
p2704
(dp2705
g41
(g42
F0.519938051700592
tp2706
sg44
Vhttp://dbpedia.org/resource/Jesus
p2707
sg46
g2678
sbssg51
g56
sg60
(dp2708
g2676
(iAmbiguous_Entity
CandidateResource
p2709
(dp2710
g41
(g132
V0.028096821159124374
p2711
tp2712
sg44
Vhttp://dbpedia.org/resource/Jesus_Jones
p2713
sg46
g2676
sbsVJesus
p2714
(iAmbiguous_Entity
CandidateResource
p2715
(dp2716
g41
(g132
V0.11110741645097733
p2717
tp2718
sg44
Vhttp://dbpedia.org/resource/Jesus
p2719
sg46
g2714
sbsg2680
(iAmbiguous_Entity
CandidateResource
p2720
(dp2721
g41
(g132
V0.09743023663759232
p2722
tp2723
sg44
Vhttp://dbpedia.org/resource/Jesus_Christ_Superstar
p2724
sg46
g2680
sbsg2686
(iAmbiguous_Entity
CandidateResource
p2725
(dp2726
g41
(g132
V0.01769152283668518
p2727
tp2728
sg44
Vhttp://dbpedia.org/resource/Queen_(album)
p2729
sg46
g2686
sbsg2674
(iAmbiguous_Entity
CandidateResource
p2730
(dp2731
g41
(g132
V0.0925067812204361
p2732
tp2733
sg44
Vhttp://dbpedia.org/resource/Jesus_in_Islam
p2734
sg46
g2674
sbsg2684
(iAmbiguous_Entity
CandidateResource
p2735
(dp2736
g41
(g132
V0.03476886823773384
p2737
tp2738
sg44
Vhttp://dbpedia.org/resource/Jesus_Walks
p2739
sg46
g2684
sbsg2682
(iAmbiguous_Entity
CandidateResource
p2740
(dp2741
g41
(g132
V0.044515326619148254
p2742
tp2743
sg44
Vhttp://dbpedia.org/resource/Jesus_of_Nazareth_(miniseries)
p2744
sg46
g2682
sbssbsba(iresults.Resolved_Entity
ResolvedEntity
p2745
(dp2746
g3
(dp2747
S'Programming_language'
p2748
(I0
I3
tp2749
sS'Leet'
p2750
(I0
I3
tp2751
sS'Formal_language'
p2752
(I0
I3
tp2753
sS'Language'
p2754
(I3
I0
tp2755
ssg9
(dp2756
g11
(g12
((lp2757
(lp2758
VLeet
p2759
aF0.42
aa(lp2760
VProgramming_language
p2761
aF0.0
aa(lp2762
VFormal_language
p2763
aF0.0
aa(lp2764
VLanguage
p2765
aF0.0
aatp2766
Rp2767
g12
((lp2768
(lp2769
g2761
aF0.0
aa(lp2770
g2759
aF0.0
aa(lp2771
g2763
aF0.0
aa(lp2772
g2765
aF0.0
aatp2773
Rp2774
tp2775
ssg26
(iAmbiguous_Entity
NamedEntity
p2776
(dp2777
g29
S'ginkgo100'
p2778
sg31
Vlanguage
p2779
sg33
S'18440338115'
p2780
sg35
S"@PoppleKyle Prepositions at the ends of sentences are bad only if Latin is the language you're speaking in!"
p2781
sg37
(dp2782
g2761
(iAmbiguous_Entity
CandidateResource
p2783
(dp2784
g41
(g42
F0.3827636241912842
tp2785
sg44
Vhttp://dbpedia.org/resource/Programming_language
p2786
sg46
g2761
sbsg2763
(iAmbiguous_Entity
CandidateResource
p2787
(dp2788
g41
(g42
F0.42980843782424927
tp2789
sg44
Vhttp://dbpedia.org/resource/Formal_language
p2790
sg46
g2763
sbsg2765
(iAmbiguous_Entity
CandidateResource
p2791
(dp2792
g41
(g42
F0.540314257144928
tp2793
sg44
Vhttp://dbpedia.org/resource/Language
p2794
sg46
g2765
sbssg51
g56
sg60
(dp2795
g2759
(iAmbiguous_Entity
CandidateResource
p2796
(dp2797
g41
(g132
V0.0785445123910904
p2798
tp2799
sg44
Vhttp://dbpedia.org/resource/Leet
p2800
sg46
g2759
sbsVFormal_language
p2801
(iAmbiguous_Entity
CandidateResource
p2802
(dp2803
g41
(g132
V0.09559523314237595
p2804
tp2805
sg44
Vhttp://dbpedia.org/resource/Formal_language
p2806
sg46
g2801
sbsVLanguage
p2807
(iAmbiguous_Entity
CandidateResource
p2808
(dp2809
g41
(g132
V0.1545865833759308
p2810
tp2811
sg44
Vhttp://dbpedia.org/resource/Language
p2812
sg46
g2807
sbssbsba(iresults.Resolved_Entity
ResolvedEntity
p2813
(dp2814
g3
(dp2815
S'Sentences'
p2816
(I0
I3
tp2817
sS'Sentence_(linguistics)'
p2818
(I3
I0
tp2819
ssg9
(dp2820
g11
(g12
((lp2821
(lp2822
VSentence_(linguistics)
p2823
aF0.0
aa(lp2824
VSentences
p2825
aF0.0
aatp2826
Rp2827
g12
((lp2828
(lp2829
g2823
aF0.0
aa(lp2830
g2825
aF0.0
aatp2831
Rp2832
tp2833
ssg26
(iAmbiguous_Entity
NamedEntity
p2834
(dp2835
g29
g2778
sg31
Vsentences
p2836
sg33
g2780
sg35
g2781
sg37
(dp2837
sg51
g56
sg60
(dp2838
g2825
(iAmbiguous_Entity
CandidateResource
p2839
(dp2840
g41
(g132
V0.1179393082857132
p2841
tp2842
sg44
Vhttp://dbpedia.org/resource/Sentences
p2843
sg46
g2825
sbsg2823
(iAmbiguous_Entity
CandidateResource
p2844
(dp2845
g41
(g132
V0.19874268770217896
p2846
tp2847
sg44
Vhttp://dbpedia.org/resource/Sentence_(linguistics)
p2848
sg46
g2823
sbssbsba(iresults.Resolved_Entity
ResolvedEntity
p2849
(dp2850
g3
(dp2851
S'Kids_(Robbie_Williams_and_Kylie_Minogue_song)'
p2852
(I0
I3
tp2853
sS'Kids_(film)'
p2854
(I0
I3
tp2855
sS'American_Eagle_Outfitters'
p2856
(I0
I3
tp2857
sS'4Kids_Entertainment'
p2858
(I0
I3
tp2859
ssg9
(dp2860
g11
(g12
((lp2861
(lp2862
VKids_(film)
p2863
aF0.74
aa(lp2864
VKids_(Robbie_Williams_and_Kylie_Minogue_song)
p2865
aF0.0
aa(lp2866
VAmerican_Eagle_Outfitters
p2867
aF0.0
aa(lp2868
V4Kids_Entertainment
p2869
aF0.0
aatp2870
Rp2871
g12
((lp2872
(lp2873
g2865
aF0.0
aa(lp2874
g2863
aF0.0
aa(lp2875
g2867
aF0.0
aa(lp2876
g2869
aF0.0
aatp2877
Rp2878
tp2879
ssg26
(iAmbiguous_Entity
NamedEntity
p2880
(dp2881
g29
S'ginkgo100'
p2882
sg31
Vkids
p2883
sg33
S'18851802260'
p2884
sg35
S"@thedevoutlife I believe A) Kids belong at Mass; B) It's the nature of kids to be disruptive; so C) Some disruption at Mass is acceptable."
p2885
sg37
(dp2886
sg51
g56
sg60
(dp2887
g2865
(iAmbiguous_Entity
CandidateResource
p2888
(dp2889
g41
(g132
V0.1164417564868927
p2890
tp2891
sg44
Vhttp://dbpedia.org/resource/Kids_(Robbie_Williams_and_Kylie_Minogue_song)
p2892
sg46
g2865
sbsg2867
(iAmbiguous_Entity
CandidateResource
p2893
(dp2894
g41
(g132
V0.0588713139295578
p2895
tp2896
sg44
Vhttp://dbpedia.org/resource/American_Eagle_Outfitters
p2897
sg46
g2867
sbsg2863
(iAmbiguous_Entity
CandidateResource
p2898
(dp2899
g41
(g132
V0.0706629604101181
p2900
tp2901
sg44
Vhttp://dbpedia.org/resource/Kids_(film)
p2902
sg46
g2863
sbsg2869
(iAmbiguous_Entity
CandidateResource
p2903
(dp2904
g41
(g132
V0.03686509653925896
p2905
tp2906
sg44
Vhttp://dbpedia.org/resource/4Kids_Entertainment
p2907
sg46
g2869
sbssbsba(iresults.Resolved_Entity
ResolvedEntity
p2908
(dp2909
g3
(dp2910
S'Mother_Nature'
p2911
(I0
I3
tp2912
sS'Nature_(TV_series)'
p2913
(I0
I3
tp2914
sS'Nature'
p2915
(I3
I0
tp2916
sS'Nature_(journal)'
p2917
(I0
I3
tp2918
sS'Gew\xc3\xbcrztraminer'
p2919
(I0
I3
tp2920
sS'La_Nature'
p2921
(I0
I3
tp2922
ssg9
(dp2923
g11
(g12
((lp2924
(lp2925
VNature_(TV_series)
p2926
aF0.76
aa(lp2927
VMother_Nature
p2928
aF0.0
aa(lp2929
VGewrztraminer
p2930
aF0.0
aa(lp2931
VNature
p2932
aF0.0
aa(lp2933
VNature_(journal)
p2934
aF0.0
aa(lp2935
VLa_Nature
p2936
aF0.0
aatp2937
Rp2938
g12
((lp2939
(lp2940
g2928
aF0.0
aa(lp2941
g2930
aF0.0
aa(lp2942
g2926
aF0.0
aa(lp2943
g2932
aF0.0
aa(lp2944
g2934
aF0.0
aa(lp2945
g2936
aF0.0
aatp2946
Rp2947
tp2948
ssg26
(iAmbiguous_Entity
NamedEntity
p2949
(dp2950
g29
g2882
sg31
Vnature
p2951
sg33
g2884
sg35
g2885
sg37
(dp2952
sg51
g56
sg60
(dp2953
g2928
(iAmbiguous_Entity
CandidateResource
p2954
(dp2955
g41
(g132
V0.05423324555158615
p2956
tp2957
sg44
Vhttp://dbpedia.org/resource/Mother_Nature
p2958
sg46
g2928
sbsg2930
(iAmbiguous_Entity
CandidateResource
p2959
(dp2960
g41
(g132
V0.00888871494680643
p2961
tp2962
sg44
Vhttp://dbpedia.org/resource/Gewrztraminer
p2963
sg46
g2930
sbsg2926
(iAmbiguous_Entity
CandidateResource
p2964
(dp2965
g41
(g132
V0.05075964704155922
p2966
tp2967
sg44
Vhttp://dbpedia.org/resource/Nature_(TV_series)
p2968
sg46
g2926
sbsg2932
(iAmbiguous_Entity
CandidateResource
p2969
(dp2970
g41
(g132
V0.14278918504714966
p2971
tp2972
sg44
Vhttp://dbpedia.org/resource/Nature
p2973
sg46
g2932
sbsg2934
(iAmbiguous_Entity
CandidateResource
p2974
(dp2975
g41
(g132
V0.08556505292654037
p2976
tp2977
sg44
Vhttp://dbpedia.org/resource/Nature_(journal)
p2978
sg46
g2934
sbsg2936
(iAmbiguous_Entity
CandidateResource
p2979
(dp2980
g41
(g132
V0.04552760720252991
p2981
tp2982
sg44
Vhttp://dbpedia.org/resource/La_Nature
p2983
sg46
g2936
sbssbsba(iresults.Resolved_Entity
ResolvedEntity
p2984
(dp2985
g3
(dp2986
S'C._P._Snow'
p2987
(I0
I3
tp2988
sS'Search_and_seizure'
p2989
(I0
I3
tp2990
ssg9
(dp2991
g11
(g12
((lp2992
(lp2993
VSearch_and_seizure
p2994
aF0.16
aa(lp2995
VC._P._Snow
p2996
aF0.0
aatp2997
Rp2998
g12
((lp2999
(lp3000
g2996
aF0.0
aa(lp3001
g2994
aF0.0
aatp3002
Rp3003
tp3004
ssg26
(iAmbiguous_Entity
NamedEntity
p3005
(dp3006
g29
S'ginkgo100'
p3007
sg31
Vsearch
p3008
sg33
S'24020818587'
p3009
sg35
S'I do NOT like the new #Google "fast search" feature.  Dynamic results as I\'m typing is not as helpful as they think it is.'
p3010
sg37
(dp3011
sg51
g56
sg60
(dp3012
g2996
(iAmbiguous_Entity
CandidateResource
p3013
(dp3014
g41
(g132
V0.043355222791433334
p3015
tp3016
sg44
Vhttp://dbpedia.org/resource/C._P._Snow
p3017
sg46
g2996
sbsg2994
(iAmbiguous_Entity
CandidateResource
p3018
(dp3019
g41
(g132
V0.07098844647407532
p3020
tp3021
sg44
Vhttp://dbpedia.org/resource/Search_and_seizure
p3022
sg46
g2994
sbssbsba(iresults.Resolved_Entity
ResolvedEntity
p3023
(dp3024
g3
(dp3025
S'Feature_(archaeology)'
p3026
(I0
I3
tp3027
sS'Feature_film'
p3028
(I0
I3
tp3029
sS'Feature_story'
p3030
(I0
I3
tp3031
sS'The_Features'
p3032
(I0
I3
tp3033
ssg9
(dp3034
g11
(g12
((lp3035
(lp3036
VFeature_(archaeology)
p3037
aF0.0
aa(lp3038
VFeature_film
p3039
aF0.0
aa(lp3040
VFeature_story
p3041
aF0.0
aa(lp3042
VThe_Features
p3043
aF0.0
aatp3044
Rp3045
g12
((lp3046
(lp3047
g3037
aF0.0
aa(lp3048
g3039
aF0.0
aa(lp3049
g3041
aF0.0
aa(lp3050
g3043
aF0.0
aatp3051
Rp3052
tp3053
ssg26
(iAmbiguous_Entity
NamedEntity
p3054
(dp3055
g29
g3007
sg31
Vfeature
p3056
sg33
g3009
sg35
g3010
sg37
(dp3057
sg51
g56
sg60
(dp3058
g3037
(iAmbiguous_Entity
CandidateResource
p3059
(dp3060
g41
(g132
V0.07504190504550934
p3061
tp3062
sg44
Vhttp://dbpedia.org/resource/Feature_(archaeology)
p3063
sg46
g3037
sbsg3039
(iAmbiguous_Entity
CandidateResource
p3064
(dp3065
g41
(g132
V0.09765684604644775
p3066
tp3067
sg44
Vhttp://dbpedia.org/resource/Feature_film
p3068
sg46
g3039
sbsg3041
(iAmbiguous_Entity
CandidateResource
p3069
(dp3070
g41
(g132
V0.034884996712207794
p3071
tp3072
sg44
Vhttp://dbpedia.org/resource/Feature_story
p3073
sg46
g3041
sbsg3043
(iAmbiguous_Entity
CandidateResource
p3074
(dp3075
g41
(g132
V0.025452475994825363
p3076
tp3077
sg44
Vhttp://dbpedia.org/resource/The_Features
p3078
sg46
g3043
sbssbsba(iresults.Resolved_Entity
ResolvedEntity
p3079
(dp3080
g3
(dp3081
S'Grammatical_person'
p3082
(I0
I3
tp3083
sS'Person'
p3084
(I3
I0
tp3085
sS'Person_County,_North_Carolina'
p3086
(I0
I3
tp3087
sS'Human'
p3088
(I2
I1
tp3089
ssg9
(dp3090
g11
(g12
((lp3091
(lp3092
VGrammatical_person
p3093
aF1.41
aa(lp3094
VPerson
p3095
aF0.0
aa(lp3096
VPerson_County,_North_Carolina
p3097
aF0.0
aa(lp3098
VHuman
p3099
aF0.0
aatp3100
Rp3101
g12
((lp3102
(lp3103
g3093
aF0.0
aa(lp3104
g3095
aF0.0
aa(lp3105
g3097
aF0.0
aa(lp3106
g3099
aF0.0
aatp3107
Rp3108
tp3109
ssg26
(iAmbiguous_Entity
NamedEntity
p3110
(dp3111
g29
S'ginkgo100'
p3112
sg31
Vperson
p3113
sg33
S'3192809314058240'
p3114
sg35
S".@Milehimama Wait, the TSA DOESN'T DO BACKGROUND CHECKS!? Not just kids, but EVERYONE'S person & property deserves vetted TSA employees!"
p3115
sg37
(dp3116
sg51
g56
sg60
(dp3117
g3093
(iAmbiguous_Entity
CandidateResource
p3118
(dp3119
g41
(g132
V0.04861582815647125
p3120
tp3121
sg44
Vhttp://dbpedia.org/resource/Grammatical_person
p3122
sg46
g3093
sbsg3095
(iAmbiguous_Entity
CandidateResource
p3123
(dp3124
g41
(g132
V0.053876861929893494
p3125
tp3126
sg44
Vhttp://dbpedia.org/resource/Person
p3127
sg46
g3095
sbsg3097
(iAmbiguous_Entity
CandidateResource
p3128
(dp3129
g41
(g132
V0.041927918791770935
p3130
tp3131
sg44
Vhttp://dbpedia.org/resource/Person_County,_North_Carolina
p3132
sg46
g3097
sbsg3099
(iAmbiguous_Entity
CandidateResource
p3133
(dp3134
g41
(g132
V0.0396866574883461
p3135
tp3136
sg44
Vhttp://dbpedia.org/resource/Human
p3137
sg46
g3099
sbssbsba(iresults.Resolved_Entity
ResolvedEntity
p3138
(dp3139
g3
(dp3140
S'Property_insurance'
p3141
(I0
I3
tp3142
sS'Real_property'
p3143
(I1
I2
tp3144
sS'Property_law'
p3145
(I2
I1
tp3146
sS'Property_tax'
p3147
(I0
I3
tp3148
sS'Property_(philosophy)'
p3149
(I1
I2
tp3150
sS'Real_estate'
p3151
(I0
I3
tp3152
sS'Property'
p3153
(I3
I0
tp3154
ssg9
(dp3155
g11
(g12
((lp3156
(lp3157
VProperty_insurance
p3158
aF0.0
aa(lp3159
VReal_property
p3160
aF0.0
aa(lp3161
VProperty_law
p3162
aF0.0
aa(lp3163
VProperty_tax
p3164
aF0.0
aa(lp3165
VProperty_(philosophy)
p3166
aF0.0
aa(lp3167
VReal_estate
p3168
aF0.0
aa(lp3169
VProperty
p3170
aF0.0
aatp3171
Rp3172
g12
((lp3173
(lp3174
g3158
aF0.0
aa(lp3175
g3160
aF0.0
aa(lp3176
g3162
aF0.0
aa(lp3177
g3164
aF0.0
aa(lp3178
g3166
aF0.0
aa(lp3179
g3168
aF0.0
aa(lp3180
g3170
aF0.0
aatp3181
Rp3182
tp3183
ssg26
(iAmbiguous_Entity
NamedEntity
p3184
(dp3185
g29
g3112
sg31
Vproperty
p3186
sg33
g3114
sg35
g3115
sg37
(dp3187
g3158
(iAmbiguous_Entity
CandidateResource
p3188
(dp3189
g41
(g42
F0.1627952754497528
tp3190
sg44
Vhttp://dbpedia.org/resource/Property_insurance
p3191
sg46
g3158
sbsg3160
(iAmbiguous_Entity
CandidateResource
p3192
(dp3193
g41
(g42
F0.2607404589653015
tp3194
sg44
Vhttp://dbpedia.org/resource/Real_property
p3195
sg46
g3160
sbsg3162
(iAmbiguous_Entity
CandidateResource
p3196
(dp3197
g41
(g42
F0.19175827503204346
tp3198
sg44
Vhttp://dbpedia.org/resource/Property_law
p3199
sg46
g3162
sbsg3164
(iAmbiguous_Entity
CandidateResource
p3200
(dp3201
g41
(g42
F0.28887253999710083
tp3202
sg44
Vhttp://dbpedia.org/resource/Property_tax
p3203
sg46
g3164
sbsg3166
(iAmbiguous_Entity
CandidateResource
p3204
(dp3205
g41
(g42
F0.16270087659358978
tp3206
sg44
Vhttp://dbpedia.org/resource/Property_(philosophy)
p3207
sg46
g3166
sbsg3168
(iAmbiguous_Entity
CandidateResource
p3208
(dp3209
g41
(g42
F0.19977809488773346
tp3210
sg44
Vhttp://dbpedia.org/resource/Real_estate
p3211
sg46
g3168
sbsg3170
(iAmbiguous_Entity
CandidateResource
p3212
(dp3213
g41
(g42
F0.32474568486213684
tp3214
sg44
Vhttp://dbpedia.org/resource/Property
p3215
sg46
g3170
sbssg51
g56
sg60
(dp3216
VProperty_(philosophy)
p3217
(iAmbiguous_Entity
CandidateResource
p3218
(dp3219
g41
(g132
V0.04653007909655571
p3220
tp3221
sg44
Vhttp://dbpedia.org/resource/Property_(philosophy)
p3222
sg46
g3217
sbsVProperty_law
p3223
(iAmbiguous_Entity
CandidateResource
p3224
(dp3225
g41
(g132
V0.047761112451553345
p3226
tp3227
sg44
Vhttp://dbpedia.org/resource/Property_law
p3228
sg46
g3223
sbsVProperty
p3229
(iAmbiguous_Entity
CandidateResource
p3230
(dp3231
g41
(g132
V0.0673326700925827
p3232
tp3233
sg44
Vhttp://dbpedia.org/resource/Property
p3234
sg46
g3229
sbssbsba(iresults.Resolved_Entity
ResolvedEntity
p3235
(dp3236
g3
(dp3237
S'Godsmack'
p3238
(I0
I3
tp3239
sS'Fraud'
p3240
(I3
I0
tp3241
sS'Confidence_trick'
p3242
(I3
I0
tp3243
ssg9
(dp3244
g11
(g12
((lp3245
(lp3246
VConfidence_trick
p3247
aF0.07
aa(lp3248
VFraud
p3249
aF0.04
aa(lp3250
VGodsmack
p3251
aF0.0
aatp3252
Rp3253
g12
((lp3254
(lp3255
g3251
aF0.0
aa(lp3256
g3249
aF0.0
aa(lp3257
g3247
aF0.0
aatp3258
Rp3259
tp3260
ssg26
(iAmbiguous_Entity
NamedEntity
p3261
(dp3262
g29
S'ginkgo100'
p3263
sg31
Vscam
p3264
sg33
S'186810580311605248'
p3265
sg35
S"#GoDaddy hijacked dh's domain name after he checked it there for availability! Now he has to buy it from them for $70! What a #scam"
p3266
sg37
(dp3267
g3249
(iAmbiguous_Entity
CandidateResource
p3268
(dp3269
g41
(g42
F0.26512086391448975
tp3270
sg44
Vhttp://dbpedia.org/resource/Fraud
p3271
sg46
g3249
sbsg3247
(iAmbiguous_Entity
CandidateResource
p3272
(dp3273
g41
(g42
F0.2510974407196045
tp3274
sg44
Vhttp://dbpedia.org/resource/Confidence_trick
p3275
sg46
g3247
sbssg51
g56
sg60
(dp3276
g3251
(iAmbiguous_Entity
CandidateResource
p3277
(dp3278
g41
(g132
V0.032716456800699234
p3279
tp3280
sg44
Vhttp://dbpedia.org/resource/Godsmack
p3281
sg46
g3251
sbsVConfidence_trick
p3282
(iAmbiguous_Entity
CandidateResource
p3283
(dp3284
g41
(g132
V0.028787070885300636
p3285
tp3286
sg44
Vhttp://dbpedia.org/resource/Confidence_trick
p3287
sg46
g3282
sbssbsba(iresults.Resolved_Entity
ResolvedEntity
p3288
(dp3289
g3
(dp3290
S'Singer'
p3291
(I3
I0
tp3292
sS'Singing'
p3293
(I3
I0
tp3294
ssg9
(dp3295
g11
(g12
((lp3296
(lp3297
VSinger
p3298
aF0.0
aa(lp3299
VSinging
p3300
aF0.0
aatp3301
Rp3302
g12
((lp3303
(lp3304
g3298
aF0.0
aa(lp3305
g3300
aF0.0
aatp3306
Rp3307
tp3308
ssg26
(iAmbiguous_Entity
NamedEntity
p3309
(dp3310
g29
S'ginkgo100'
p3311
sg31
Vsinging
p3312
sg33
S'9823582280486913'
p3313
sg35
S'.@PoppleKyle @popplemusic  My 3yo son is resisting sleep by singing: "I LOVE! PEANUT BUTTER SANDWICH! I LOVE! PEANUT BUTTER SANDWICH!"'
p3314
sg37
(dp3315
g3298
(iAmbiguous_Entity
CandidateResource
p3316
(dp3317
g41
(g42
F0.1594545543193817
tp3318
sg44
Vhttp://dbpedia.org/resource/Singer
p3319
sg46
g3298
sbsg3300
(iAmbiguous_Entity
CandidateResource
p3320
(dp3321
g41
(g42
F0.2325214445590973
tp3322
sg44
Vhttp://dbpedia.org/resource/Singing
p3323
sg46
g3300
sbssg51
g56
sg60
(dp3324
VSinging
p3325
(iAmbiguous_Entity
CandidateResource
p3326
(dp3327
g41
(g132
V0.06077463552355766
p3328
tp3329
sg44
Vhttp://dbpedia.org/resource/Singing
p3330
sg46
g3325
sbssbsba(iresults.Resolved_Entity
ResolvedEntity
p3331
(dp3332
g3
(dp3333
S'The_Black_Parade'
p3334
(I0
I3
tp3335
sS'Sleep'
p3336
(I3
I0
tp3337
sS'Wayne_Sleep'
p3338
(I0
I3
tp3339
sS'Sleep_(band)'
p3340
(I0
I3
tp3341
sS'Team_Sleep'
p3342
(I0
I3
tp3343
ssg9
(dp3344
g11
(g12
((lp3345
(lp3346
VWayne_Sleep
p3347
aF5.74
aa(lp3348
VSleep
p3349
aF1.06
aa(lp3350
VThe_Black_Parade
p3351
aF0.0
aa(lp3352
VSleep_(band)
p3353
aF0.0
aa(lp3354
VTeam_Sleep
p3355
aF0.0
aatp3356
Rp3357
g12
((lp3358
(lp3359
g3351
aF0.0
aa(lp3360
g3349
aF0.0
aa(lp3361
g3347
aF0.0
aa(lp3362
g3353
aF0.0
aa(lp3363
g3355
aF0.0
aatp3364
Rp3365
tp3366
ssg26
(iAmbiguous_Entity
NamedEntity
p3367
(dp3368
g29
g3311
sg31
Vsleep
p3369
sg33
g3313
sg35
g3314
sg37
(dp3370
g3349
(iAmbiguous_Entity
CandidateResource
p3371
(dp3372
g41
(g42
F0.2325214445590973
tp3373
sg44
Vhttp://dbpedia.org/resource/Sleep
p3374
sg46
g3349
sbssg51
g56
sg60
(dp3375
g3351
(iAmbiguous_Entity
CandidateResource
p3376
(dp3377
g41
(g132
V0.04192538559436798
p3378
tp3379
sg44
Vhttp://dbpedia.org/resource/The_Black_Parade
p3380
sg46
g3351
sbsVSleep
p3381
(iAmbiguous_Entity
CandidateResource
p3382
(dp3383
g41
(g132
V0.06370920687913895
p3384
tp3385
sg44
Vhttp://dbpedia.org/resource/Sleep
p3386
sg46
g3381
sbsg3355
(iAmbiguous_Entity
CandidateResource
p3387
(dp3388
g41
(g132
V0.09001161903142929
p3389
tp3390
sg44
Vhttp://dbpedia.org/resource/Team_Sleep
p3391
sg46
g3355
sbsg3353
(iAmbiguous_Entity
CandidateResource
p3392
(dp3393
g41
(g132
V0.10322935879230499
p3394
tp3395
sg44
Vhttp://dbpedia.org/resource/Sleep_(band)
p3396
sg46
g3353
sbsg3347
(iAmbiguous_Entity
CandidateResource
p3397
(dp3398
g41
(g132
V0.0630468875169754
p3399
tp3400
sg44
Vhttp://dbpedia.org/resource/Wayne_Sleep
p3401
sg46
g3347
sbssbsba(iresults.Resolved_Entity
ResolvedEntity
p3402
(dp3403
g3
(dp3404
S'Songhay_languages'
p3405
(I0
I3
tp3406
sS'Sonoma_County,_California'
p3407
(I0
I3
tp3408
sS'Son_River'
p3409
(I0
I3
tp3410
sS'Son'
p3411
(I3
I0
tp3412
sS'God_the_Son'
p3413
(I0
I3
tp3414
sS'Son_(music)'
p3415
(I0
I3
tp3416
ssg9
(dp3417
g11
(g12
((lp3418
(lp3419
VGod_the_Son
p3420
aF3.17
aa(lp3421
VSon
p3422
aF1.23
aa(lp3423
VSonghay_languages
p3424
aF0.0
aa(lp3425
VSonoma_County,_California
p3426
aF0.0
aa(lp3427
VSon_River
p3428
aF0.0
aa(lp3429
VSon_(music)
p3430
aF0.0
aatp3431
Rp3432
g12
((lp3433
(lp3434
g3424
aF0.0
aa(lp3435
g3426
aF0.0
aa(lp3436
g3428
aF0.0
aa(lp3437
g3422
aF0.0
aa(lp3438
g3420
aF0.0
aa(lp3439
g3430
aF0.0
aatp3440
Rp3441
tp3442
ssg26
(iAmbiguous_Entity
NamedEntity
p3443
(dp3444
g29
g3311
sg31
Vson
p3445
sg33
g3313
sg35
g3314
sg37
(dp3446
sg51
g56
sg60
(dp3447
g3426
(iAmbiguous_Entity
CandidateResource
p3448
(dp3449
g41
(g132
V0.01660929061472416
p3450
tp3451
sg44
Vhttp://dbpedia.org/resource/Sonoma_County,_California
p3452
sg46
g3426
sbsg3424
(iAmbiguous_Entity
CandidateResource
p3453
(dp3454
g41
(g132
V0.007694445084780455
p3455
tp3456
sg44
Vhttp://dbpedia.org/resource/Songhay_languages
p3457
sg46
g3424
sbsg3428
(iAmbiguous_Entity
CandidateResource
p3458
(dp3459
g41
(g132
V0.0188998281955719
p3460
tp3461
sg44
Vhttp://dbpedia.org/resource/Son_River
p3462
sg46
g3428
sbsg3422
(iAmbiguous_Entity
CandidateResource
p3463
(dp3464
g41
(g132
V0.07511181384325027
p3465
tp3466
sg44
Vhttp://dbpedia.org/resource/Son
p3467
sg46
g3422
sbsg3420
(iAmbiguous_Entity
CandidateResource
p3468
(dp3469
g41
(g132
V0.09060317277908325
p3470
tp3471
sg44
Vhttp://dbpedia.org/resource/God_the_Son
p3472
sg46
g3420
sbsg3430
(iAmbiguous_Entity
CandidateResource
p3473
(dp3474
g41
(g132
V0.0676417127251625
p3475
tp3476
sg44
Vhttp://dbpedia.org/resource/Son_(music)
p3477
sg46
g3430
sbssbsba(iresults.Resolved_Entity
ResolvedEntity
p3478
(dp3479
g3
(dp3480
S'Allergy'
p3481
(I3
I0
tp3482
sS'Food_allergy'
p3483
(I1
I2
tp3484
ssg9
(dp3485
g11
(g12
((lp3486
(lp3487
VAllergy
p3488
aF0.4
aa(lp3489
VFood_allergy
p3490
aF0.0
aatp3491
Rp3492
g12
((lp3493
(lp3494
g3488
aF0.0
aa(lp3495
g3490
aF0.0
aatp3496
Rp3497
tp3498
ssg26
(iAmbiguous_Entity
NamedEntity
p3499
(dp3500
g29
S'ginkgo100'
p3501
sg31
Vallergy
p3502
sg33
S'21242251462'
p3503
sg35
S"@Milehimama An allergic rxn to DTaP would have happened sooner. Could be antibiotics, infection, or unrelated allergy. I'd call the dr."
p3504
sg37
(dp3505
g3488
(iAmbiguous_Entity
CandidateResource
p3506
(dp3507
g41
(g42
F0.5928743481636047
tp3508
sg44
Vhttp://dbpedia.org/resource/Allergy
p3509
sg46
g3488
sbsg3490
(iAmbiguous_Entity
CandidateResource
p3510
(dp3511
g41
(g42
F0.5045015215873718
tp3512
sg44
Vhttp://dbpedia.org/resource/Food_allergy
p3513
sg46
g3490
sbssg51
g56
sg60
(dp3514
VAllergy
p3515
(iAmbiguous_Entity
CandidateResource
p3516
(dp3517
g41
(g132
V0.12781117856502533
p3518
tp3519
sg44
Vhttp://dbpedia.org/resource/Allergy
p3520
sg46
g3515
sbssbsba(iresults.Resolved_Entity
ResolvedEntity
p3521
(dp3522
g3
(dp3523
S'Question_(comics)'
p3524
(I0
I3
tp3525
sS'Call_and_response_(music)'
p3526
(I0
I3
tp3527
sS'Question'
p3528
(I3
I0
tp3529
sS'Percy_Bysshe_Shelley'
p3530
(I0
I3
tp3531
sS'Renee_Montoya'
p3532
(I0
I3
tp3533
ssg9
(dp3534
g11
(g12
((lp3535
(lp3536
VPercy_Bysshe_Shelley
p3537
aF0.17
aa(lp3538
VQuestion_(comics)
p3539
aF0.0
aa(lp3540
VCall_and_response_(music)
p3541
aF0.0
aa(lp3542
VQuestion
p3543
aF0.0
aa(lp3544
VRenee_Montoya
p3545
aF0.0
aatp3546
Rp3547
g12
((lp3548
(lp3549
g3539
aF0.0
aa(lp3550
g3541
aF0.0
aa(lp3551
g3543
aF0.0
aa(lp3552
g3537
aF0.0
aa(lp3553
g3545
aF0.0
aatp3554
Rp3555
tp3556
ssg26
(iAmbiguous_Entity
NamedEntity
p3557
(dp3558
g29
S'ginkgo100'
p3559
sg31
Vquestion
p3560
sg33
S'21324116134'
p3561
sg35
S'Brand new blog: Your Catholic Questions Answered! Be the 1st to ask a question: http://yourcatholicquestions.tumblr.com #catholic #christian'
p3562
sg37
(dp3563
sg51
g56
sg60
(dp3564
g3539
(iAmbiguous_Entity
CandidateResource
p3565
(dp3566
g41
(g132
V0.12298893928527832
p3567
tp3568
sg44
Vhttp://dbpedia.org/resource/Question_(comics)
p3569
sg46
g3539
sbsg3541
(iAmbiguous_Entity
CandidateResource
p3570
(dp3571
g41
(g132
V0.049635663628578186
p3572
tp3573
sg44
Vhttp://dbpedia.org/resource/Call_and_response_(music)
p3574
sg46
g3541
sbsg3543
(iAmbiguous_Entity
CandidateResource
p3575
(dp3576
g41
(g132
V0.05157887935638428
p3577
tp3578
sg44
Vhttp://dbpedia.org/resource/Question
p3579
sg46
g3543
sbsg3537
(iAmbiguous_Entity
CandidateResource
p3580
(dp3581
g41
(g132
V0.06424553692340851
p3582
tp3583
sg44
Vhttp://dbpedia.org/resource/Percy_Bysshe_Shelley
p3584
sg46
g3537
sbsg3545
(iAmbiguous_Entity
CandidateResource
p3585
(dp3586
g41
(g132
V0.10166339576244354
p3587
tp3588
sg44
Vhttp://dbpedia.org/resource/Renee_Montoya
p3589
sg46
g3545
sbssbsba.