(lp0
(iAmbiguous_Entity
Ambiguous_Entity
p1
(dp2
S'username'
p3
S'goldman60'
p4
sS'entity_id'
p5
S'225440103508619264_0'
p6
sS'entity_str'
p7
VVista
p8
sS'shorttext_id'
p9
S'225440103508619264'
p10
sS'shorttext_str'
p11
VI'm at Cerro Vista Apartments (San Luis Obispo, California) http://t.co/Y9u4biet
p12
sS'site'
p13
ccopy_reg
_reconstructor
p14
(cshort_text_sources.short_text_websites
Twitter_Site
p15
c__builtin__
object
p16
Ntp17
Rp18
(dp19
S'siteName'
p20
S'Twitter'
p21
sbsS'candidates'
p22
(lp23
(dp24
S'dbpedia_uri'
p25
Vhttp://dbpedia.org/resource/Vista,_California
p26
sS'article_id'
p27
I108065
sS'weight'
p28
F0.1969415545463562
sS'title'
p29
VVista, California
p30
sa(dp31
g25
Vhttp://dbpedia.org/resource/Windows_Vista
p32
sg27
I2289648
sg28
F0.1646529734134674
sg29
VWindows Vista
p33
sa(dp34
g25
Vhttp://dbpedia.org/resource/Vista
p35
sg27
I562869
sg28
F0.1509556621313095
sg29
VVista
p36
sa(dp37
g25
Vhttp://dbpedia.org/resource/Toyota_Vista
p38
sg27
I1758212
sg28
F0.1503809541463852
sg29
VToyota Vista
p39
sasba(iAmbiguous_Entity
Ambiguous_Entity
p40
(dp41
g3
g4
sg5
S'225440103508619264_1'
p42
sg7
Vm
p43
sg9
g10
sg11
VI'm at Cerro Vista Apartments (San Luis Obispo, California) http://t.co/Y9u4biet
p44
sg13
g18
sg22
(lp45
(dp46
g25
Vhttp://dbpedia.org/resource/Metre
p47
sg27
I18947
sg28
F0.1969415545463562
sg29
VMetre
p48
sa(dp49
g25
Vhttp://dbpedia.org/resource/M
p50
sg27
I19191
sg28
F0.1658884733915329
sg29
VM
p51
sa(dp52
g25
Vhttp://dbpedia.org/resource/Million
p53
sg27
I1045999
sg28
F0.14501771330833435
sg29
VMillion
p54
sasba(iAmbiguous_Entity
Ambiguous_Entity
p55
(dp56
g3
g4
sg5
S'225440103508619264_2'
p57
sg7
Vu
p58
sg9
g10
sg11
VI'm at Cerro Vista Apartments (San Luis Obispo, California) http://t.co/Y9u4biet
p59
sg13
g18
sg22
(lp60
(dp61
g25
Vhttp://dbpedia.org/resource/Atomic_mass_unit
p62
sg27
I42445
sg28
F0.1969415545463562
sg29
VAtomic mass unit
p63
sa(dp64
g25
Vhttp://dbpedia.org/resource/U
p65
sg27
I31808
sg28
F0.1658884733915329
sg29
VU
p66
sa(dp67
g25
Vhttp://dbpedia.org/resource/Close_back_rounded_vowel
p68
sg27
I597143
sg28
F0.14387762546539307
sg29
VClose back rounded vowel
p69
sasba(iAmbiguous_Entity
Ambiguous_Entity
p70
(dp71
g3
g4
sg5
S'225440103508619264_3'
p72
sg7
VCerro
p73
sg9
g10
sg11
VI'm at Cerro Vista Apartments (San Luis Obispo, California) http://t.co/Y9u4biet
p74
sg13
g18
sg22
(lp75
(dp76
g25
Vhttp://dbpedia.org/resource/Massif
p77
sg27
I275972
sg28
F0.1969415545463562
sg29
VMassif
p78
sa(dp79
g25
Vhttp://dbpedia.org/resource/C.A._Cerro
p80
sg27
I4786447
sg28
F0.19248509407043457
sg29
VC.A. Cerro
p81
sasba(iAmbiguous_Entity
Ambiguous_Entity
p82
(dp83
g3
S'goldman60'
p84
sg5
S'225337884008386560_0'
p85
sg7
Vm
p86
sg9
S'225337884008386560'
p87
sg11
VI'm at Splash Cafe &amp; Artisan Bakery (San Luis Obispo, CA) http://t.co/6cLYxY9Y
p88
sg13
g18
sg22
(lp89
(dp90
g25
Vhttp://dbpedia.org/resource/Metre
p91
sg27
I18947
sg28
F0.2517930567264557
sg29
VMetre
p92
sa(dp93
g25
Vhttp://dbpedia.org/resource/M
p94
sg27
I19191
sg28
F0.20705117285251617
sg29
VM
p95
sa(dp96
g25
Vhttp://dbpedia.org/resource/Million
p97
sg27
I1045999
sg28
F0.2068668156862259
sg29
VMillion
p98
sasba(iAmbiguous_Entity
Ambiguous_Entity
p99
(dp100
g3
g84
sg5
S'225337884008386560_1'
p101
sg7
VSplash
p102
sg9
g87
sg11
VI'm at Splash Cafe &amp; Artisan Bakery (San Luis Obispo, CA) http://t.co/6cLYxY9Y
p103
sg13
g18
sg22
(lp104
(dp105
g25
Vhttp://dbpedia.org/resource/Splash
p106
sg27
I1470229
sg28
F0.2517930567264557
sg29
VSplash
p107
sa(dp108
g25
Vhttp://dbpedia.org/resource/Splash_(film)
p109
sg27
I338962
sg28
F0.23909512162208557
sg29
VSplash (film)
p110
sa(dp111
g25
Vhttp://dbpedia.org/resource/Professional_wrestling_aerial_techniques
p112
sg27
I994264
sg28
F0.22397416830062866
sg29
VProfessional wrestling aerial techniques
p113
sa(dp114
g25
Vhttp://dbpedia.org/resource/Suzuki_Splash
p115
sg27
I13133658
sg28
F0.22336933016777039
sg29
VSuzuki Splash
p116
sasba(iAmbiguous_Entity
Ambiguous_Entity
p117
(dp118
g3
g84
sg5
S'225337884008386560_2'
p119
sg7
Vamp
p120
sg9
g87
sg11
VI'm at Splash Cafe &amp; Artisan Bakery (San Luis Obispo, CA) http://t.co/6cLYxY9Y
p121
sg13
g18
sg22
(lp122
(dp123
g25
Vhttp://dbpedia.org/resource/Amplifier
p124
sg27
I3214
sg28
F0.2517930567264557
sg29
VAmplifier
p125
sa(dp126
g25
Vhttp://dbpedia.org/resource/Electric_current
p127
sg27
I6207
sg28
F0.2338031530380249
sg29
VElectric current
p128
sa(dp129
g25
Vhttp://dbpedia.org/resource/Ampere
p130
sg27
I772
sg28
F0.23218190670013428
sg29
VAmpere
p131
sa(dp132
g25
Vhttp://dbpedia.org/resource/Instrument_amplifier
p133
sg27
I319560
sg28
F0.23128730058670044
sg29
VInstrument amplifier
p134
sa(dp135
g25
Vhttp://dbpedia.org/resource/Guitar_amplifier
p136
sg27
I320408
sg28
F0.19266392290592194
sg29
VGuitar amplifier
p137
sa(dp138
g25
Vhttp://dbpedia.org/resource/Electronic_amplifier
p139
sg27
I9931
sg28
F0.1903911828994751
sg29
VElectronic amplifier
p140
sasba(iAmbiguous_Entity
Ambiguous_Entity
p141
(dp142
g3
g84
sg5
S'225337884008386560_3'
p143
sg7
VArtisan
p144
sg9
g87
sg11
VI'm at Splash Cafe &amp; Artisan Bakery (San Luis Obispo, CA) http://t.co/6cLYxY9Y
p145
sg13
g18
sg22
(lp146
(dp147
g25
Vhttp://dbpedia.org/resource/Artisan
p148
sg27
I426433
sg28
F0.2517930567264557
sg29
VArtisan
p149
sa(dp150
g25
Vhttp://dbpedia.org/resource/Vari-Lite
p151
sg27
I19686424
sg28
F0.21678052842617035
sg29
VVari-Lite
p152
sa(dp153
g25
Vhttp://dbpedia.org/resource/Artisan_temperament
p154
sg27
I5122582
sg28
F0.1944364756345749
sg29
VArtisan temperament
p155
sa(dp156
g25
Vhttp://dbpedia.org/resource/Artisan_Entertainment
p157
sg27
I706664
sg28
F0.19396477937698364
sg29
VArtisan Entertainment
p158
sasba(iAmbiguous_Entity
Ambiguous_Entity
p159
(dp160
g3
S'goldman60'
p161
sg5
S'225962944180133890_0'
p162
sg7
VLouisa
p163
sg9
S'225962944180133890'
p164
sg11
VI just ousted John A. as the mayor of Louisa's Place on @foursquare! http://t.co/isVdouRw
p165
sg13
g18
sg22
(lp166
(dp167
g25
Vhttp://dbpedia.org/resource/Louisa_May_Alcott
p168
sg27
I18002
sg28
F0.17898711562156677
sg29
VLouisa May Alcott
p169
sa(dp170
g25
Vhttp://dbpedia.org/resource/Louisa_County,_Iowa
p171
sg27
I95978
sg28
F0.1504966914653778
sg29
VLouisa County, Iowa
p172
sa(dp173
g25
Vhttp://dbpedia.org/resource/Levisa_Fork
p174
sg27
I686190
sg28
F0.14992085099220276
sg29
VLevisa Fork
p175
sa(dp176
g25
Vhttp://dbpedia.org/resource/Louisa_County,_Virginia
p177
sg27
I91293
sg28
F0.11306655406951904
sg29
VLouisa County, Virginia
p178
sa(dp179
g25
Vhttp://dbpedia.org/resource/Louisa,_Virginia
p180
sg27
I137676
sg28
F0.11306655406951904
sg29
VLouisa, Virginia
p181
sa(dp182
g25
Vhttp://dbpedia.org/resource/Louisa,_Kentucky
p183
sg27
I115302
sg28
F0.11273053288459778
sg29
VLouisa, Kentucky
p184
sa(dp185
g25
Vhttp://dbpedia.org/resource/Louisa_(film)
p186
sg27
I22787868
sg28
F0.11138644814491272
sg29
VLouisa (film)
p187
sa(dp188
g25
Vhttp://dbpedia.org/resource/Louisa_Stevenson
p189
sg27
I5132913
sg28
F0.10769021511077881
sg29
VLouisa Stevenson
p190
sa(dp191
g25
Vhttp://dbpedia.org/resource/Louise_of_Great_Britain
p192
sg27
I2196005
sg28
F0.10701817274093628
sg29
VLouise of Great Britain
p193
sa(dp194
g25
Vhttp://dbpedia.org/resource/MacDonald_sisters
p195
sg27
I2813941
sg28
F0.10701817274093628
sg29
VMacDonald sisters
p196
sa(dp197
g25
Vhttp://dbpedia.org/resource/Louisa_Hamilton,_Duchess_of_Abercorn
p198
sg27
I21390652
sg28
F0.10701817274093628
sg29
VLouisa Hamilton, Duchess of Abercorn
p199
sasba(iAmbiguous_Entity
Ambiguous_Entity
p200
(dp201
g3
g161
sg5
S'225962944180133890_1'
p202
sg7
Vs
p203
sg9
g164
sg11
VI just ousted John A. as the mayor of Louisa's Place on @foursquare! http://t.co/isVdouRw
p204
sg13
g18
sg22
(lp205
(dp206
g25
Vhttp://dbpedia.org/resource/Shilling
p207
sg27
I60534
sg28
F0.17898711562156677
sg29
VShilling
p208
sa(dp209
g25
Vhttp://dbpedia.org/resource/Swedish_Social_Democratic_Workers'_Party
p210
sg27
I202978
sg28
F0.13987016677856445
sg29
VSwedish Social Democratic Workers' Party
p211
sa(dp212
g25
Vhttp://dbpedia.org/resource/Shilling_(British_coin)
p213
sg27
I16522275
sg28
F0.13393451273441315
sg29
VShilling (British coin)
p214
sa(dp215
g25
Vhttp://dbpedia.org/resource/Second
p216
sg27
I26873
sg28
F0.12460020929574966
sg29
VSecond
p217
sa(dp218
g25
Vhttp://dbpedia.org/resource/S
p219
sg27
I27173
sg28
F0.102230504155159
sg29
VS
p220
sa(dp221
g25
Vhttp://dbpedia.org/resource/Solid
p222
sg27
I18993816
sg28
F0.10058576613664627
sg29
VSolid
p223
sa(dp224
g25
Vhttp://dbpedia.org/resource/Syriac_Sinaiticus
p225
sg27
I1821568
sg28
F0.10008519887924194
sg29
VSyriac Sinaiticus
p226
sasba(iAmbiguous_Entity
Ambiguous_Entity
p227
(dp228
g3
g161
sg5
S'225962944180133890_2'
p229
sg7
Vfoursquare
p230
sg9
g164
sg11
VI just ousted John A. as the mayor of Louisa's Place on @foursquare! http://t.co/isVdouRw
p231
sg13
g18
sg22
(lp232
(dp233
g25
Vhttp://dbpedia.org/resource/American_Foursquare
p234
sg27
I3788837
sg28
F0.17898711562156677
sg29
VAmerican Foursquare
p235
sa(dp236
g25
Vhttp://dbpedia.org/resource/Foursquare_(website)
p237
sg27
I22313095
sg28
F0.16162601113319397
sg29
VFoursquare (website)
p238
sasba(iAmbiguous_Entity
Ambiguous_Entity
p239
(dp240
g3
S'goldman60'
p241
sg5
S'222468057002541059_0'
p242
sg7
VCollege of Business
p243
sg9
S'222468057002541059'
p244
sg11
VI'm at Cal Poly Orfalea College of Business (San Luis Obispo, CA) http://t.co/3pyiFaxp
p245
sg13
g18
sg22
(lp246
(dp247
g25
Vhttp://dbpedia.org/resource/Colorado_State_University
p248
sg27
I475386
sg28
F0.42544734477996826
sg29
VColorado State University
p249
sa(dp250
g25
Vhttp://dbpedia.org/resource/Lamar_University
p251
sg27
I624221
sg28
F0.37417787313461304
sg29
VLamar University
p252
sa(dp253
g25
Vhttp://dbpedia.org/resource/UIUC_College_of_Business
p254
sg27
I5280819
sg28
F0.23309683799743652
sg29
VUIUC College of Business
p255
sa(dp256
g25
Vhttp://dbpedia.org/resource/De_La_Salle_University_College_of_Business
p257
sg27
I6477982
sg28
F0.22457411885261536
sg29
VDe La Salle University College of Business
p258
sa(dp259
g25
Vhttp://dbpedia.org/resource/Business_school
p260
sg27
I43355
sg28
F0.22315365076065063
sg29
VBusiness school
p261
sasba(iAmbiguous_Entity
Ambiguous_Entity
p262
(dp263
g3
g241
sg5
S'222468057002541059_1'
p264
sg7
Vm
p265
sg9
g244
sg11
VI'm at Cal Poly Orfalea College of Business (San Luis Obispo, CA) http://t.co/3pyiFaxp
p266
sg13
g18
sg22
(lp267
(dp268
g25
Vhttp://dbpedia.org/resource/Metre
p269
sg27
I18947
sg28
F0.42544734477996826
sg29
VMetre
p270
sa(dp271
g25
Vhttp://dbpedia.org/resource/M
p272
sg27
I19191
sg28
F0.30990713834762573
sg29
VM
p273
sa(dp274
g25
Vhttp://dbpedia.org/resource/Million
p275
sg27
I1045999
sg28
F0.30813610553741455
sg29
VMillion
p276
sasba(iAmbiguous_Entity
Ambiguous_Entity
p277
(dp278
g3
g241
sg5
S'222468057002541059_2'
p279
sg7
VCal Poly
p280
sg9
g244
sg11
VI'm at Cal Poly Orfalea College of Business (San Luis Obispo, CA) http://t.co/3pyiFaxp
p281
sg13
g18
sg22
(lp282
(dp283
g25
Vhttp://dbpedia.org/resource/California_Polytechnic_State_University
p284
sg27
I433230
sg28
F0.42544734477996826
sg29
VCalifornia Polytechnic State University
p285
sa(dp286
g25
Vhttp://dbpedia.org/resource/California_State_Polytechnic_University,_Pomona
p287
sg27
I489505
sg28
F0.3864741325378418
sg29
VCalifornia State Polytechnic University, Pomona
p288
sa(dp289
g25
Vhttp://dbpedia.org/resource/Cal_Poly
p290
sg27
I433731
sg28
F0.298906147480011
sg29
VCal Poly
p291
sa(dp292
g25
Vhttp://dbpedia.org/resource/Cal_Poly_Mustangs_football
p293
sg27
I21085343
sg28
F0.2982376217842102
sg29
VCal Poly Mustangs football
p294
sasba(iAmbiguous_Entity
Ambiguous_Entity
p295
(dp296
g3
S'goldman60'
p297
sg5
S'221045640204009476_0'
p298
sg7
Vm
p299
sg9
S'221045640204009476'
p300
sg11
VI'm at Enzo's East Coast Eatery (San Luis Obispo, California) http://t.co/CUShXPeU
p301
sg13
g18
sg22
(lp302
(dp303
g25
Vhttp://dbpedia.org/resource/Metre
p304
sg27
I18947
sg28
F0.3121981918811798
sg29
VMetre
p305
sa(dp306
g25
Vhttp://dbpedia.org/resource/Million
p307
sg27
I1045999
sg28
F0.25486448407173157
sg29
VMillion
p308
sa(dp309
g25
Vhttp://dbpedia.org/resource/M
p310
sg27
I19191
sg28
F0.22057685256004333
sg29
VM
p311
sasba(iAmbiguous_Entity
Ambiguous_Entity
p312
(dp313
g3
g297
sg5
S'221045640204009476_1'
p314
sg7
VEast Coast
p315
sg9
g300
sg11
VI'm at Enzo's East Coast Eatery (San Luis Obispo, California) http://t.co/CUShXPeU
p316
sg13
g18
sg22
(lp317
(dp318
g25
Vhttp://dbpedia.org/resource/East_Coast_of_the_United_States
p319
sg27
I89126
sg28
F0.3121981918811798
sg29
VEast Coast of the United States
p320
sa(dp321
g25
Vhttp://dbpedia.org/resource/Gisborne,_New_Zealand
p322
sg27
I221602
sg28
F0.2886107563972473
sg29
VGisborne, New Zealand
p323
sa(dp324
g25
Vhttp://dbpedia.org/resource/East_Coast_(train_operating_company)
p325
sg27
I24855105
sg28
F0.23860538005828857
sg29
VEast Coast (train operating company)
p326
sa(dp327
g25
Vhttp://dbpedia.org/resource/East_Coast_hip_hop
p328
sg27
I171272
sg28
F0.2107258141040802
sg29
VEast Coast hip hop
p329
sa(dp330
g25
Vhttp://dbpedia.org/resource/East_Coast_Rugby_Football_Union
p331
sg27
I6677739
sg28
F0.21026133000850677
sg29
VEast Coast Rugby Football Union
p332
sa(dp333
g25
Vhttp://dbpedia.org/resource/East_Coast_(New_Zealand_electorate)
p334
sg27
I12244868
sg28
F0.20984844863414764
sg29
VEast Coast (New Zealand electorate)
p335
sasba.