(dp0
S'octopusouphut'
p1
(dp2
V2704080
p3
I2
sV3404043
p4
I3
sV3404432
p5
I4
sV3414766
p6
I2
sV2080829
p7
I1
sV2433865
p8
I1
sV3423782
p9
I2
sV3413406
p10
I2
sV3420734
p11
I3
sV3419427
p12
I2
sV3419248
p13
I2
sV2213967
p14
I2
sV3423854
p15
I2
sV3403879
p16
I3
sV2011909
p17
I4
sV2433898
p18
I2
sV3419611
p19
I2
sV5052197
p20
I1
sV2433832
p21
I2
sV3424047
p22
I2
sV3412808
p23
I1
sV1635901
p24
I2
sV2120468
p25
I1
sV4859452
p26
I2
sV3401905
p27
I4
sV306478
p28
I2
sV652663
p29
I1
sV1203596
p30
I1
sV2433874
p31
I3
sV3423678
p32
I2
sV3414695
p33
I2
sV262281
p34
I1
sV2088199
p35
I2
sV2120391
p36
I1
sV2737706
p37
I2
sV3423949
p38
I2
sV2703959
p39
I2
ssS'Cadwaladr'
p40
(dp41
V22504
p42
I1
sV89775
p43
I1
sV23878
p44
I1
sV5658
p45
I1
sV23206
p46
I1
sV16489070
p47
I2
sV18093
p48
I1
sV1170995
p49
I1
sV31085401
p50
I1
sV16253826
p51
I1
sV18449273
p52
I1
sV352733
p53
I2
sV4465464
p54
I1
sV231065
p55
I2
sV19914843
p56
I2
sV22704997
p57
I1
sV22076
p58
I1
sV175531
p59
I1
sV2723752
p60
I1
sV17011
p61
I5
sV2981230
p62
I1
sV7053
p63
I1
sV54317
p64
I2
sV13193885
p65
I1
sV22734912
p66
I1
sV17132648
p67
I1
sV5038134
p68
I2
sV7682366
p69
I1
sV367585
p70
I1
sV72227
p71
I1
sV2340343
p72
I2
sV11109808
p73
I1
sV2734725
p74
I1
sV2228434
p75
I1
sV70369
p76
I1
sV251485
p77
I1
sV31752
p78
I1
sV1449827
p79
I2
sV286012
p80
I2
sV2460
p81
I1
sV54048
p82
I1
sV33550
p83
I1
sV45597
p84
I1
sV43536
p85
I1
sV179572
p86
I1
sV18451040
p87
I2
sV1388325
p88
I2
sV18213
p89
I3
sV11579
p90
I1
sV711997
p91
I1
sV1814699
p92
I1
sV855220
p93
I1
sV160575
p94
I1
sV761313
p95
I1
sV14992
p96
I1
sV5068752
p97
I1
sV3769379
p98
I1
sV4823890
p99
I1
sV402750
p100
I1
sV9429158
p101
I1
sV12415416
p102
I1
sV7316
p103
I2
sV22830375
p104
I1
sV330091
p105
I1
sV3217530
p106
I1
sV83537
p107
I4
sV284163
p108
I1
sV13149979
p109
I1
sV1095160
p110
I1
sV372920
p111
I1
sV180362
p112
I3
sV45503
p113
I4
sV716765
p114
I1
sV25013517
p115
I1
sV621845
p116
I1
sV185083
p117
I1
sV2004204
p118
I1
sV323592
p119
I1
sV318215
p120
I1
sV16890
p121
I1
sV25067088
p122
I1
sV59701
p123
I1
sV2909
p124
I3
sV15920
p125
I1
sV536767
p126
I1
sV19128855
p127
I1
sV14457
p128
I1
sV3173054
p129
I2
sV12984
p130
I1
sV89251
p131
I1
sV27650538
p132
I1
sV302068
p133
I2
sV11438045
p134
I1
sV4749651
p135
I1
sV38257
p136
I2
sV74321
p137
I1
sV2443993
p138
I2
sV50477
p139
I2
sV586075
p140
I1
sV195216
p141
I1
sV1966185
p142
I1
sV289795
p143
I1
sV4675402
p144
I1
sV270445
p145
I3
sV142123
p146
I1
sV333496
p147
I1
sV18307589
p148
I2
sV169409
p149
I2
sV26301156
p150
I1
sV23618119
p151
I1
sV47628
p152
I1
sV43619
p153
I2
sV14129466
p154
I9
sV33153
p155
I4
sV952214
p156
I1
sV1467228
p157
I1
sV8286923
p158
I1
sV29570267
p159
I1
sV44403
p160
I1
sV22861361
p161
I1
sV16808
p162
I2
sV24721900
p163
I2
sV14775
p164
I2
sV523770
p165
I1
sV7499159
p166
I2
sV5489
p167
I1
sV20347
p168
I5
sV249326
p169
I1
sV2341363
p170
I6
sV5853545
p171
I1
sV20545
p172
I5
sV996192
p173
I1
sV4804207
p174
I1
sV2405253
p175
I1
sV25432731
p176
I1
sV797291
p177
I2
sV18717883
p178
I3
sV600841
p179
I2
sV380741
p180
I2
sV472278
p181
I1
sV14283
p182
I1
sV29381
p183
I1
sV10243986
p184
I1
sV407847
p185
I1
sV33306
p186
I1
sV22385461
p187
I2
sV3208905
p188
I1
sV13554
p189
I1
sV65178
p190
I3
sV23704557
p191
I2
sV256611
p192
I1
sV21231
p193
I4
sV783023
p194
I1
sV32203923
p195
I1
sV19859
p196
I5
sV75515
p197
I1
sV25015033
p198
I1
sV23857044
p199
I1
sV287991
p200
I1
sV17199866
p201
I1
sV1589081
p202
I1
sV73212
p203
I1
sV28165728
p204
I1
sV1101633
p205
I1
sV119247
p206
I1
sV313530
p207
I2
sV9324
p208
I2
sV46356
p209
I1
sV854
p210
I1
sV20611083
p211
I2
sV1555636
p212
I1
sV1524606
p213
I2
sV152833
p214
I1
sV15038191
p215
I1
sV38011
p216
I3
sV462490
p217
I1
sV3363
p218
I1
sV292279
p219
I2
sV1281022
p220
I1
sV25447
p221
I2
sV2689
p222
I1
sV6786927
p223
I1
sV3212
p224
I9
sV859747
p225
I1
sV34226
p226
I1
sV2763571
p227
I1
sV27122
p228
I1
sV25169562
p229
I1
sV19590
p230
I2
sV4925
p231
I1
sV14834691
p232
I4
sV161013
p233
I1
sV12366
p234
I1
sV64235
p235
I2
sV145096
p236
I1
sV4166493
p237
I1
sV420661
p238
I4
sV19916686
p239
I1
sV27737946
p240
I1
sV200966
p241
I4
sV2273121
p242
I1
sV140807
p243
I1
sV4724491
p244
I2
sV173400
p245
I1
sV22984
p246
I1
sV37782
p247
I2
sV2559629
p248
I1
sV2270846
p249
I1
sV203785
p250
I1
sV1623
p251
I1
sV195306
p252
I1
sV4399
p253
I3
sV11258
p254
I4
sV1614244
p255
I1
sV2566958
p256
I1
sV26779
p257
I1
sV783
p258
I1
sV14208
p259
I2
sV34932571
p260
I1
sV6359
p261
I1
sV2750170
p262
I2
sV43380
p263
I4
sV500451
p264
I1
sV24307192
p265
I1
sV376898
p266
I1
sV146573
p267
I1
sV21442111
p268
I1
sV207190
p269
I1
sV519666
p270
I1
sV29969
p271
I6
sV49892
p272
I2
sV65433
p273
I3
sV30864931
p274
I1
sV21327279
p275
I1
sV3979684
p276
I1
sV27737940
p277
I1
sV17238114
p278
I2
sV309409
p279
I2
sV274057
p280
I1
sV24502385
p281
I2
sV2938643
p282
I1
sV31309416
p283
I1
sV77414
p284
I1
sV3376492
p285
I1
sV14091
p286
I3
sV149243
p287
I2
sV848561
p288
I1
sV782230
p289
I1
sV390672
p290
I2
sV19308640
p291
I1
sV5269876
p292
I3
sV715193
p293
I1
sV19230710
p294
I1
sV426404
p295
I2
sV3162905
p296
I1
sV680871
p297
I1
sV155117
p298
I4
sV3955536
p299
I1
sV764148
p300
I3
sV234141
p301
I1
sV1597987
p302
I1
sV299461
p303
I1
sV3877024
p304
I1
sV31086707
p305
I1
sV217201
p306
I1
sV1165940
p307
I1
sV25885543
p308
I3
sV23684226
p309
I1
sV8524
p310
I1
sV11236984
p311
I5
sV151585
p312
I1
sV43421
p313
I3
sV199775
p314
I1
sV887147
p315
I1
sV1646294
p316
I1
sV1709766
p317
I1
sV16992
p318
I1
sV14640471
p319
I2
sV10023921
p320
I1
sV13942
p321
I1
sV18701436
p322
I1
sV45324
p323
I1
sV5040937
p324
I2
sV87418
p325
I3
sV62153
p326
I1
sV9792
p327
I2
sV10410626
p328
I1
sV8295096
p329
I2
sV472866
p330
I1
sV26584221
p331
I1
sV28198410
p332
I1
sV6388260
p333
I13
sV6270699
p334
I1
sV2088
p335
I3
sV76959
p336
I1
sV238972
p337
I1
sV22069800
p338
I2
sV23998041
p339
I8
sV1880951
p340
I1
sV23789438
p341
I1
sV14648851
p342
I1
sV36911266
p343
I1
sV2661424
p344
I1
sV1673723
p345
I2
sV470734
p346
I1
sV58880
p347
I2
sV1106818
p348
I2
sV24009433
p349
I1
sV54743
p350
I1
sV13865
p351
I1
sV1762389
p352
I1
sV3567020
p353
I1
sV45159
p354
I1
sV17419097
p355
I1
sV2703758
p356
I3
ssS'kdammers'
p357
(dp358
V2369
p359
I2
sV2260219
p360
I1
sV53606
p361
I5
sV48605
p362
I1
sV2819174
p363
I1
sV35613447
p364
I1
sV1140805
p365
I2
sV22921078
p366
I2
sV35783
p367
I1
sV132246
p368
I1
sV7383
p369
I2
sV3882514
p370
I2
sV23166704
p371
I1
sV291512
p372
I1
sV7301
p373
I2
sV1246883
p374
I1
sV10029446
p375
I1
sV11393019
p376
I1
sV7417191
p377
I1
sV110884
p378
I4
sV19835919
p379
I1
sV30754635
p380
I6
sV32985704
p381
I2
sV4694223
p382
I1
sV15996172
p383
I1
sV1090517
p384
I2
sV3974798
p385
I1
sV431003
p386
I6
sV33287287
p387
I3
sV12239446
p388
I1
sV31635677
p389
I3
sV29007186
p390
I1
sV2566694
p391
I1
sV4484462
p392
I1
sV33285539
p393
I1
sV2694295
p394
I2
sV2106329
p395
I3
sV35307189
p396
I1
sV17625262
p397
I2
sV3568684
p398
I2
sV5352549
p399
I1
sV273555
p400
I1
sV102853
p401
I1
sV28844284
p402
I1
sV25653605
p403
I1
sV18261453
p404
I1
sV12202019
p405
I4
sV343641
p406
I1
sV34012290
p407
I3
sV1279493
p408
I1
sV22875340
p409
I1
sV27200555
p410
I1
sV768700
p411
I1
sV1891999
p412
I1
sV7235622
p413
I1
sV4807505
p414
I1
sV21207241
p415
I1
sV3476829
p416
I1
sV27617640
p417
I1
sV742605
p418
I1
sV13694
p419
I1
sV5002871
p420
I1
sV20361
p421
I1
sV433754
p422
I1
sV28773934
p423
I1
sV167266
p424
I82
sV29672787
p425
I1
sV738658
p426
I1
sV34622387
p427
I2
sV463975
p428
I1
sV23229024
p429
I1
sV35400830
p430
I9
sV366317
p431
I1
sV2225215
p432
I1
sV29090562
p433
I3
sV10154603
p434
I1
sV1265417
p435
I1
sV431228
p436
I1
sV476905
p437
I1
sV4428040
p438
I1
sV4220148
p439
I1
sV20976469
p440
I1
sV30250873
p441
I1
sV494442
p442
I2
sV26357939
p443
I2
sV34880265
p444
I1
sV35119453
p445
I1
sV169499
p446
I1
sV110984
p447
I1
sV12474609
p448
I1
sV13312037
p449
I1
sV14625406
p450
I1
sV14688841
p451
I1
sV27962618
p452
I1
sV168094
p453
I2
sV20461830
p454
I1
sV371515
p455
I1
sV30690094
p456
I1
sV5944874
p457
I1
sV886680
p458
I3
sV24669653
p459
I1
sV876553
p460
I1
sV23569712
p461
I1
sV31742495
p462
I1
sV11795327
p463
I1
sV17668447
p464
I2
sV25431
p465
I1
sV189412
p466
I1
sV3063225
p467
I1
sV9140238
p468
I1
sV14861099
p469
I1
sV1249182
p470
I1
sV157994
p471
I1
sV28300244
p472
I2
sV22860
p473
I2
sV2036409
p474
I1
sV4900843
p475
I1
sV1354598
p476
I1
sV10921530
p477
I1
sV4470657
p478
I1
sV35613517
p479
I2
sV23903012
p480
I1
sV1316627
p481
I1
sV27757768
p482
I4
sV110873
p483
I1
sV10868514
p484
I1
sV35211830
p485
I1
sV6001333
p486
I1
sV1768585
p487
I1
sV538951
p488
I2
sV5665485
p489
I4
sV82275
p490
I1
sV1126572
p491
I1
sV22252902
p492
I2
sV2758486
p493
I1
sV531675
p494
I1
sV32428823
p495
I1
sV312757
p496
I1
sV14655086
p497
I1
sV32198612
p498
I1
sV1630110
p499
I1
sV1007534
p500
I1
sV27051151
p501
I1
sV181541
p502
I1
sV26713474
p503
I2
sV4839892
p504
I1
sV32247861
p505
I1
sV15305900
p506
I1
sV341640
p507
I1
sV7703314
p508
I1
sV5308272
p509
I1
sV9503702
p510
I3
sV1683072
p511
I1
sV45368
p512
I1
sV27606610
p513
I2
sV1480901
p514
I1
sV3404879
p515
I2
sV11099193
p516
I1
sV1683375
p517
I1
sV870334
p518
I1
sV14874963
p519
I2
sV468933
p520
I1
sV1458078
p521
I1
sV35024210
p522
I1
sV28534057
p523
I1
sV1059235
p524
I5
sV8250443
p525
I2
sV11111776
p526
I1
sV13011860
p527
I1
sV16569434
p528
I1
sV2340902
p529
I1
sV29075652
p530
I1
sV117105
p531
I2
sV9057940
p532
I1
sV194985
p533
I1
sV944901
p534
I1
sV8955445
p535
I1
sV1554826
p536
I1
sV25652995
p537
I1
sV74297
p538
I1
sV10191916
p539
I2
sV12367448
p540
I1
sV53629
p541
I1
sV16934
p542
I1
sV9172139
p543
I1
sV311764
p544
I2
sV29736469
p545
I1
sV35144436
p546
I1
sV578942
p547
I2
sV19159283
p548
I1
sV36953333
p549
I3
sV9279697
p550
I1
sV169991
p551
I1
sV34952941
p552
I1
sV19622627
p553
I1
sV668815
p554
I2
sV5692969
p555
I2
sV35500306
p556
I1
sV224168
p557
I1
sV27904697
p558
I1
sV13218373
p559
I1
sV1048113
p560
I1
sV30378873
p561
I4
sV761892
p562
I1
sV30564
p563
I1
sV32189577
p564
I3
sV301135
p565
I1
sV31790769
p566
I1
sV46601
p567
I1
sV1649526
p568
I1
sV2020294
p569
I1
sV32720057
p570
I3
sV305738
p571
I1
sV25802213
p572
I1
sV2348392
p573
I1
sV18680159
p574
I1
sV358153
p575
I1
sV8335969
p576
I1
sV1431256
p577
I1
sV523475
p578
I1
sV1543485
p579
I1
sV28627025
p580
I1
sV163585
p581
I1
sV9923962
p582
I2
sV967891
p583
I12
sV28195360
p584
I2
sV65139
p585
I1
sV1637452
p586
I1
sV1497802
p587
I1
sV359664
p588
I1
sV4546769
p589
I2
sV3911998
p590
I1
sV1252899
p591
I12
sV600560
p592
I2
sV473695
p593
I1
sV340262
p594
I2
sV650164
p595
I1
sV238699
p596
I2
sV6405266
p597
I1
sV28867050
p598
I4
sV19887961
p599
I1
sV23323664
p600
I1
sV199779
p601
I4
sV22556154
p602
I1
sV907712
p603
I1
sV729764
p604
I1
sV741725
p605
I1
sV379140
p606
I1
sV29688222
p607
I1
sV295039
p608
I1
sV27991586
p609
I2
sV3960800
p610
I1
sV28844087
p611
I2
sV656640
p612
I1
sV3356
p613
I1
sV8711580
p614
I6
sV2035013
p615
I1
sV36711955
p616
I4
sV1478845
p617
I1
sV24151411
p618
I7
sV35145066
p619
I1
sV4990224
p620
I1
sV5346371
p621
I1
sV33213010
p622
I1
sV25111205
p623
I1
sV5258693
p624
I1
sV2128378
p625
I1
sV12788114
p626
I1
sV32923
p627
I1
sV2942880
p628
I1
sV701781
p629
I1
sV33629639
p630
I1
sV1559968
p631
I1
sV15896065
p632
I1
sV17909631
p633
I1
sV7320543
p634
I1
ssS'pburka'
p635
(dp636
V24798173
p637
I1
sV14302906
p638
I1
sV33957632
p639
I1
sV15816402
p640
I1
sV5711494
p641
I1
sV30347950
p642
I1
sV21750756
p643
I1
sV1490016
p644
I1
sV1091211
p645
I1
sV7596485
p646
I1
sV34631672
p647
I1
sV20824388
p648
I2
sV12988298
p649
I1
sV8423668
p650
I5
sV32868536
p651
I1
sV28331328
p652
I1
sV13424972
p653
I1
sV36503305
p654
I3
sV18464055
p655
I1
sV5115432
p656
I1
sV1572838
p657
I2
sV27866304
p658
I1
sV3539040
p659
I2
sV559977
p660
I1
sV3201112
p661
I1
sV21310449
p662
I1
sV34446835
p663
I1
sV36896632
p664
I1
sV24156207
p665
I1
sV21017955
p666
I1
sV9561
p667
I2
sV3036775
p668
I5
sV3127340
p669
I1
sV827698
p670
I1
sV5795212
p671
I1
sV1456056
p672
I1
sV4611618
p673
I2
sV9235215
p674
I1
sV1066911
p675
I1
sV737807
p676
I1
sV2475514
p677
I4
sV36639760
p678
I2
sV2844304
p679
I1
sV574917
p680
I1
sV493411
p681
I2
sV2796917
p682
I2
sV2639136
p683
I1
sV8553377
p684
I1
sV1095660
p685
I1
sV182740
p686
I1
sV59860
p687
I1
sV27580691
p688
I1
sV31638720
p689
I1
sV3550083
p690
I1
sV36504274
p691
I3
sV12229182
p692
I1
sV37001357
p693
I12
sV35108134
p694
I2
sV10451699
p695
I1
sV4406377
p696
I5
sV4919225
p697
I1
sV33943773
p698
I2
sV34340363
p699
I1
sV12404875
p700
I1
sV18391505
p701
I2
sV11083449
p702
I1
sV193763
p703
I8
sV6045011
p704
I1
sV1906802
p705
I1
sV5734747
p706
I1
sV19814146
p707
I1
sV8848452
p708
I1
sV7573
p709
I1
sV18851942
p710
I1
sV36486236
p711
I1
sV348378
p712
I1
sV8737089
p713
I2
sV36508627
p714
I1
sV36242133
p715
I1
sV6256
p716
I1
sV4033847
p717
I1
sV4401533
p718
I1
sV20154557
p719
I1
sV977401
p720
I1
sV1546564
p721
I1
sV22218
p722
I2
sV36592459
p723
I2
sV1017033
p724
I1
sV18015759
p725
I1
sV591615
p726
I2
sV1453933
p727
I1
sV36835359
p728
I1
sV3311097
p729
I1
sV343652
p730
I1
sV28994984
p731
I1
sV26581728
p732
I1
sV28163685
p733
I1
sV14570900
p734
I1
sV4575461
p735
I1
sV878067
p736
I3
sV903381
p737
I1
sV35762231
p738
I1
sV4369562
p739
I1
sV33590452
p740
I3
sV32480991
p741
I2
sV7764297
p742
I1
sV36443637
p743
I1
sV14385303
p744
I1
sV32638696
p745
I1
sV36364267
p746
I1
sV4396760
p747
I1
sV11483172
p748
I3
sV176486
p749
I1
sV9107967
p750
I2
sV3091744
p751
I1
sV34942411
p752
I1
sV2879873
p753
I2
sV23947334
p754
I2
sV234610
p755
I1
sV4950271
p756
I1
sV1821201
p757
I1
sV18808130
p758
I1
sV254812
p759
I1
sV5098487
p760
I1
sV36176931
p761
I1
sV33829849
p762
I1
sV28272850
p763
I6
sV6349602
p764
I3
sV12119603
p765
I1
sV113100
p766
I1
sV22118684
p767
I1
sV22050249
p768
I1
sV36033749
p769
I1
sV933304
p770
I1
sV2870114
p771
I1
sV2576513
p772
I1
sV35644552
p773
I2
sV936538
p774
I2
sV23364918
p775
I1
sV24567922
p776
I1
sV8788893
p777
I7
sV25153508
p778
I1
sV9687121
p779
I1
sV3084974
p780
I1
sV2244532
p781
I1
sV289566
p782
I2
sV36307422
p783
I1
sV36666975
p784
I2
sV13101874
p785
I1
sV857463
p786
I1
sV4254758
p787
I2
sV33577593
p788
I1
sV11840791
p789
I1
sV33597678
p790
I1
sV12050205
p791
I1
sV12326
p792
I2
sV717016
p793
I1
sV1853795
p794
I1
sV1841436
p795
I1
sV5098255
p796
I1
sV30533927
p797
I1
sV23916
p798
I1
sV5818558
p799
I1
sV898437
p800
I1
sV25430637
p801
I1
sV154698
p802
I2
sV995971
p803
I1
sV29049040
p804
I1
sV3549957
p805
I1
sV4990446
p806
I1
sV62500
p807
I1
sV9650286
p808
I1
sV13706579
p809
I1
sV2465685
p810
I1
sV35575292
p811
I1
sV22125803
p812
I2
sV34518285
p813
I1
sV7066793
p814
I1
sV30703772
p815
I1
sV29131757
p816
I1
sV1926746
p817
I2
sV1795570
p818
I1
sV5095178
p819
I1
sV12585962
p820
I2
sV22741476
p821
I1
sV4670
p822
I1
sV36395347
p823
I1
sV6030967
p824
I1
sV5621689
p825
I1
sV30844914
p826
I1
sV2255118
p827
I1
sV9775976
p828
I2
sV10240666
p829
I5
sV3093718
p830
I1
sV11339239
p831
I1
sV233913
p832
I1
sV1556948
p833
I5
sV31370186
p834
I1
sV34369128
p835
I1
sV2597746
p836
I1
sV10656393
p837
I1
sV1254515
p838
I1
sV117239
p839
I1
sV7513679
p840
I1
sV28319
p841
I1
sV1227691
p842
I1
sV8009553
p843
I1
sV34045581
p844
I1
sV18501962
p845
I1
sV4188981
p846
I1
sV2387661
p847
I2
sV5355933
p848
I1
sV3973020
p849
I1
sV26898444
p850
I1
sV31419759
p851
I1
sV2700966
p852
I1
sV25331505
p853
I1
sV37026502
p854
I3
sV2683521
p855
I1
sV36837590
p856
I1
sV33988570
p857
I1
sV9486119
p858
I1
sV4585113
p859
I1
sV6547669
p860
I1
sV31483697
p861
I2
sV30872127
p862
I1
sV5576209
p863
I2
sV2206059
p864
I1
sV5999298
p865
I1
sV14709
p866
I1
sV4651265
p867
I1
sV2868308
p868
I3
sV33959192
p869
I1
sV31238087
p870
I2
sV5615805
p871
I1
sV2353614
p872
I1
sV23294830
p873
I1
sV10524605
p874
I2
sV6149666
p875
I3
sV341798
p876
I2
sV244284
p877
I1
sV5098327
p878
I1
sV3338882
p879
I1
sV19179702
p880
I1
sV36182119
p881
I1
sV2217115
p882
I1
sV29022505
p883
I1
sV13384999
p884
I1
sV15190256
p885
I1
sV935857
p886
I1
sV36661339
p887
I1
sV29049754
p888
I1
sV25303229
p889
I1
sV73073
p890
I3
sV21745045
p891
I2
sV11766374
p892
I1
sV10965117
p893
I2
sV28050256
p894
I1
sV13514686
p895
I1
sV328618
p896
I1
sV431695
p897
I2
sV37027185
p898
I1
sV971265
p899
I1
sV33206296
p900
I1
sV185095
p901
I1
sV37027181
p902
I4
sV5100166
p903
I1
sV436659
p904
I1
sV9722875
p905
I1
sV2782370
p906
I1
sV2760040
p907
I1
sV34279378
p908
I1
sV24038218
p909
I1
sV23517249
p910
I1
sV30885686
p911
I1
sV2300083
p912
I2
sV33959278
p913
I1
sV13956488
p914
I1
sV4357394
p915
I3
sV90273
p916
I1
sV20785179
p917
I4
sV7379178
p918
I1
sV4396642
p919
I1
sV35613134
p920
I1
sV25077389
p921
I1
sV1844757
p922
I3
sV2224094
p923
I1
sV32916901
p924
I1
sV21062713
p925
I1
sV31604845
p926
I1
sV18432112
p927
I1
sV363618
p928
I1
sV35206985
p929
I1
sV9952413
p930
I2
sV33495304
p931
I2
sV18065382
p932
I1
sV11432313
p933
I1
sV9444273
p934
I4
sV14620419
p935
I1
sV2539110
p936
I1
sV9185766
p937
I1
sV36355847
p938
I1
sV151937
p939
I1
sV4337458
p940
I4
sV36460331
p941
I14
sV418853
p942
I1
sV2748112
p943
I1
sV12408498
p944
I1
sV25212284
p945
I2
sV13242016
p946
I1
sV4369358
p947
I1
sV4027017
p948
I1
sV28333321
p949
I1
sV10405724
p950
I1
sV421127
p951
I1
sV36192780
p952
I1
sV933349
p953
I5
sV33563052
p954
I3
sV30611476
p955
I1
sV1706739
p956
I3
sV59906
p957
I2
sV1185656
p958
I1
sV218690
p959
I1
sV5884062
p960
I1
sV6185312
p961
I1
sV25180233
p962
I1
sV876507
p963
I6
sV30259098
p964
I1
sV2164548
p965
I1
sV2509793
p966
I1
sV12098704
p967
I8
sV8070831
p968
I1
sV36966182
p969
I2
sV15245815
p970
I1
ssS'stephanwehner'
p971
(dp972
V178749
p973
I1
sV10017908
p974
I1
sV1609989
p975
I1
sV2262333
p976
I1
sV12548913
p977
I1
sV284925
p978
I1
sV1649321
p979
I2
sV39343
p980
I1
sV4572
p981
I1
sV1026799
p982
I1
sV26471
p983
I1
sV2193537
p984
I1
sV33928241
p985
I2
sV101919
p986
I1
sV9223
p987
I1
sV505449
p988
I1
sV10790339
p989
I1
sV41879
p990
I1
sV509009
p991
I1
sV26421781
p992
I1
sV28168
p993
I1
sV16095
p994
I1
sV47641
p995
I1
sV23550923
p996
I4
sV6184
p997
I1
sV622545
p998
I1
sV1217979
p999
I3
sV64719
p1000
I1
sV1678619
p1001
I2
sV619925
p1002
I1
sV1941523
p1003
I1
sV9764107
p1004
I1
sV252543
p1005
I1
sV446056
p1006
I2
sV213202
p1007
I1
sV23243880
p1008
I1
sV5256974
p1009
I1
sV2973673
p1010
I1
sV66393
p1011
I1
sV797653
p1012
I1
sV4054664
p1013
I1
sV7055037
p1014
I1
sV1283449
p1015
I3
sV340867
p1016
I1
sV155414
p1017
I1
sV3708321
p1018
I1
sV17939
p1019
I1
sV5044573
p1020
I2
sV20646438
p1021
I2
sV1572255
p1022
I2
sV1471836
p1023
I1
sV21289
p1024
I1
sV184903
p1025
I3
sV256322
p1026
I1
sV5524054
p1027
I1
sV164910
p1028
I1
sV2677564
p1029
I1
sV17910885
p1030
I1
sV12083679
p1031
I3
sV3296177
p1032
I1
sV5838658
p1033
I1
sV81590
p1034
I1
sV18933400
p1035
I1
sV36233760
p1036
I1
ssS'amlnet49'
p1037
(dp1038
sS'schuminweb'
p1039
(dp1040
V13035299
p1041
I1
sV4633098
p1042
I1
ssS'titodutta'
p1043
(dp1044
V73016
p1045
I1
sV32231
p1046
I1
sV12813235
p1047
I1
sV21559229
p1048
I1
sV83449
p1049
I1
sV28512185
p1050
I1
sV22729991
p1051
I1
sV14953216
p1052
I1
sV22801829
p1053
I1
sV19270495
p1054
I1
sV35843610
p1055
I1
sV1481651
p1056
I1
sV2701938
p1057
I1
sV36436558
p1058
I1
sV25188316
p1059
I1
sV35725572
p1060
I1
sV18572060
p1061
I1
sV36749268
p1062
I1
sV27934527
p1063
I1
sV287666
p1064
I1
sV34191129
p1065
I2
sV5570621
p1066
I1
sV419710
p1067
I1
sV6753991
p1068
I1
sV30942552
p1069
I1
sV26182445
p1070
I1
sV36110108
p1071
I3
sV47898
p1072
I1
sV21871694
p1073
I1
sV19156839
p1074
I1
sV6827661
p1075
I2
sV8637873
p1076
I1
sV37029567
p1077
I1
sV26874175
p1078
I1
sV5644372
p1079
I1
sV68256
p1080
I1
sV4738979
p1081
I1
sV20361758
p1082
I1
sV7395994
p1083
I1
sV4768705
p1084
I1
sV14554640
p1085
I1
sV3382322
p1086
I1
sV2503334
p1087
I1
sV33253259
p1088
I1
sV2210606
p1089
I1
sV2369327
p1090
I2
sV28832339
p1091
I1
sV18585865
p1092
I2
sV302286
p1093
I1
sV2969878
p1094
I1
sV15099803
p1095
I1
sV373154
p1096
I1
sV20657783
p1097
I1
sV36413254
p1098
I1
sV26050582
p1099
I1
sV34869821
p1100
I1
sV36992429
p1101
I1
sV37030194
p1102
I2
sV334547
p1103
I1
sV28221409
p1104
I1
sV17790182
p1105
I1
sV5501300
p1106
I1
sV35940098
p1107
I1
sV6067928
p1108
I1
sV4777711
p1109
I1
sV35912502
p1110
I1
sV29276888
p1111
I1
sV14991421
p1112
I1
sV20149097
p1113
I1
sV36296423
p1114
I1
sV4257638
p1115
I1
sV36796136
p1116
I2
sV2830226
p1117
I1
sV36795294
p1118
I1
sV30711932
p1119
I1
sV31090942
p1120
I1
sV24702330
p1121
I1
sV36700101
p1122
I1
sV4138080
p1123
I1
sV100588
p1124
I1
sV23585669
p1125
I1
sV100230
p1126
I1
sV30615198
p1127
I1
sV27136377
p1128
I1
sV20572527
p1129
I1
sV36571301
p1130
I1
sV28690604
p1131
I1
sV30260006
p1132
I1
sV12117356
p1133
I1
sV10570745
p1134
I1
sV23215522
p1135
I1
sV36508271
p1136
I1
sV36858688
p1137
I1
sV18950494
p1138
I1
sV258669
p1139
I2
sV17607434
p1140
I1
sV10938283
p1141
I1
sV8933344
p1142
I1
sV3131782
p1143
I1
sV28074722
p1144
I2
sV99552
p1145
I1
sV8359241
p1146
I1
sV37516
p1147
I1
sV37072586
p1148
I6
sV18437334
p1149
I1
sV14825555
p1150
I1
sV15099779
p1151
I1
sV33343089
p1152
I1
sV22516323
p1153
I2
sV14088790
p1154
I1
sV33906834
p1155
I1
sV2853233
p1156
I1
sV62682
p1157
I1
sV32523642
p1158
I1
sV6686251
p1159
I1
sV36244267
p1160
I1
sV35557493
p1161
I5
sV2641122
p1162
I1
sV36420034
p1163
I1
sV19749150
p1164
I1
sV24965731
p1165
I1
sV20757634
p1166
I1
sV23942908
p1167
I1
sV3906468
p1168
I1
sV30051398
p1169
I1
sV5113496
p1170
I1
sV2321610
p1171
I1
sV3450151
p1172
I1
sV36335906
p1173
I1
sV20475808
p1174
I1
sV8546619
p1175
I1
sV18257729
p1176
I1
sV42508
p1177
I1
sV350794
p1178
I1
sV22302078
p1179
I1
sV7210204
p1180
I1
sV35755945
p1181
I1
sV34681732
p1182
I1
sV2701474
p1183
I1
sV20259978
p1184
I1
sV8553078
p1185
I1
sV2062707
p1186
I1
sV33383136
p1187
I2
sV28989877
p1188
I1
sV36788635
p1189
I1
sV35515897
p1190
I2
sV36788732
p1191
I1
sV35593211
p1192
I1
sV20579738
p1193
I1
sV34796363
p1194
I1
sV7706853
p1195
I1
sV2377
p1196
I1
sV1809240
p1197
I1
sV8567744
p1198
I1
sV2768750
p1199
I1
sV11040532
p1200
I1
sV2451368
p1201
I1
sV30482267
p1202
I2
sV20864181
p1203
I2
sV36765567
p1204
I1
sV36889984
p1205
I4
sV2737074
p1206
I1
sV10552046
p1207
I1
sV1650959
p1208
I2
sV19941857
p1209
I1
sV13037480
p1210
I1
sV26995709
p1211
I1
sV28989054
p1212
I1
sV17666193
p1213
I1
sV4632930
p1214
I1
sV36763217
p1215
I1
sV1368369
p1216
I1
sV5204358
p1217
I1
sV35408607
p1218
I1
sV36562586
p1219
I1
sV2466926
p1220
I1
sV9346215
p1221
I1
sV11275113
p1222
I1
sV33903477
p1223
I1
sV9633533
p1224
I2
sV31140992
p1225
I1
sV36863438
p1226
I3
sV32695725
p1227
I3
sV2149331
p1228
I3
sV1938728
p1229
I1
sV37047676
p1230
I1
sV26676930
p1231
I7
sV25222200
p1232
I1
sV100220
p1233
I1
sV9945907
p1234
I1
sV2061333
p1235
I1
sV4027716
p1236
I1
sV189351
p1237
I1
sV900749
p1238
I1
sV690295
p1239
I1
sV12248410
p1240
I1
sV34828190
p1241
I1
sV37066666
p1242
I1
sV10615881
p1243
I1
sV22783772
p1244
I1
sV12071859
p1245
I1
sV17607424
p1246
I1
sV35781156
p1247
I1
sV36128387
p1248
I2
sV11660
p1249
I1
sV10375481
p1250
I2
sV36185918
p1251
I1
sV1147947
p1252
I1
sV35783803
p1253
I1
sV2120121
p1254
I1
sV33022521
p1255
I1
sV791314
p1256
I1
sV4374054
p1257
I1
sV1268230
p1258
I1
sV1885496
p1259
I1
sV36894869
p1260
I3
sV36956053
p1261
I1
sV5393791
p1262
I1
sV28906394
p1263
I1
sV529189
p1264
I1
sV3907314
p1265
I1
sV2008344
p1266
I1
sV455236
p1267
I1
sV36437937
p1268
I2
sV9956761
p1269
I1
sV3525258
p1270
I1
sV5871230
p1271
I1
sV30208648
p1272
I1
sV7704202
p1273
I1
sV5846197
p1274
I1
sV37050117
p1275
I1
sV27984921
p1276
I1
sV1627023
p1277
I1
sV23465288
p1278
I1
sV9629572
p1279
I1
sV37041281
p1280
I1
sV28855436
p1281
I1
sV6976329
p1282
I2
sV4131480
p1283
I1
sV19233883
p1284
I1
sV19397610
p1285
I1
sV11235616
p1286
I1
sV3917437
p1287
I3
sV8703702
p1288
I1
sV186160
p1289
I1
sV28906047
p1290
I1
sV10622314
p1291
I1
sV15288499
p1292
I1
sV26244363
p1293
I2
sV24448361
p1294
I1
sV23045350
p1295
I1
sV3140804
p1296
I1
sV601971
p1297
I1
sV8659345
p1298
I1
sV56280
p1299
I1
sV33763656
p1300
I1
sV1027240
p1301
I1
sV4169991
p1302
I1
sV29222872
p1303
I1
sV4959681
p1304
I1
sV36747798
p1305
I1
sV2081776
p1306
I1
sV6271255
p1307
I1
sV26665777
p1308
I1
sV4662097
p1309
I1
sV2425
p1310
I1
sV36850242
p1311
I2
sV29942403
p1312
I1
sV36965417
p1313
I2
sV21505580
p1314
I1
sV1804375
p1315
I1
sV18278322
p1316
I1
sV3463238
p1317
I1
sV21311132
p1318
I1
sV1009245
p1319
I1
sV1129691
p1320
I1
sV21262029
p1321
I1
sV34874736
p1322
I1
sV1684337
p1323
I1
sV10552774
p1324
I1
sV23803543
p1325
I1
sV875027
p1326
I1
sV401745
p1327
I1
sV2892130
p1328
I1
sV28474633
p1329
I1
sV24611221
p1330
I1
sV197225
p1331
I1
sV2466950
p1332
I1
sV12989462
p1333
I1
sV36426440
p1334
I1
sV2383365
p1335
I1
sV189733
p1336
I1
sV3528975
p1337
I1
sV563915
p1338
I1
sV6505620
p1339
I1
sV2032271
p1340
I1
sV35404877
p1341
I1
sV7209996
p1342
I1
sV3601700
p1343
I1
sV36754545
p1344
I4
sV7805524
p1345
I1
sV1070743
p1346
I1
sV25832037
p1347
I1
sV1227394
p1348
I1
sV14303563
p1349
I1
sV5725209
p1350
I1
sV3004239
p1351
I1
sV36424064
p1352
I1
sV1355575
p1353
I1
sV5810554
p1354
I1
sV11642804
p1355
I1
sV13533468
p1356
I1
sV2701457
p1357
I1
sV24651863
p1358
I2
sV174201
p1359
I1
sV35152473
p1360
I1
sV5872994
p1361
I1
sV37016380
p1362
I1
sV31133594
p1363
I1
sV1456742
p1364
I1
sV36066679
p1365
I1
sV14615081
p1366
I1
sV60613
p1367
I1
sV23697673
p1368
I1
sV638723
p1369
I1
sV34635555
p1370
I1
sV1825828
p1371
I1
sV35356507
p1372
I1
sV25648241
p1373
I1
sV2777585
p1374
I1
sV200011
p1375
I5
sV3981192
p1376
I1
sV5436441
p1377
I1
sV37076763
p1378
I1
sV15378962
p1379
I1
sV8429721
p1380
I1
sV27565460
p1381
I1
sV7302852
p1382
I1
sV3244634
p1383
I1
sV4312402
p1384
I1
sV25208899
p1385
I11
sV34703067
p1386
I1
sV12937349
p1387
I1
sV19349895
p1388
I1
sV711236
p1389
I1
sV2659825
p1390
I1
sV35781843
p1391
I1
sV32143106
p1392
I1
sV5170162
p1393
I2
sV32622320
p1394
I1
sV24761459
p1395
I1
sV100252
p1396
I1
sV6122271
p1397
I1
sV32417
p1398
I1
sV10599304
p1399
I1
sV31388587
p1400
I1
sV1400423
p1401
I1
sV343949
p1402
I1
sV1340127
p1403
I1
sV33554068
p1404
I1
sV14778343
p1405
I1
sV36435674
p1406
I1
sV20124241
p1407
I1
sV36739351
p1408
I1
sV20805236
p1409
I1
sV24592568
p1410
I1
sV1332106
p1411
I1
sV15619833
p1412
I1
sV1151730
p1413
I1
sV27534817
p1414
I1
sV7865082
p1415
I1
sV36881581
p1416
I3
sV35919133
p1417
I2
sV36620316
p1418
I1
sV36377778
p1419
I1
sV6793060
p1420
I1
sV36955116
p1421
I1
sV33474792
p1422
I1
sV12117361
p1423
I1
sV36881108
p1424
I13
sV547015
p1425
I1
sV442475
p1426
I1
sV46116
p1427
I1
sV936834
p1428
I1
sV998470
p1429
I1
sV3180747
p1430
I1
sV30175697
p1431
I2
sV36887786
p1432
I3
sV36691143
p1433
I1
sV30192191
p1434
I1
sV2685258
p1435
I1
sV429283
p1436
I1
sV24434886
p1437
I1
sV31574093
p1438
I1
sV1406144
p1439
I1
sV1108304
p1440
I1
sV6162043
p1441
I2
sV4535231
p1442
I1
sV1224078
p1443
I1
sV30703210
p1444
I1
sV26625210
p1445
I1
sV11173883
p1446
I1
sV2862970
p1447
I2
sV1386213
p1448
I1
sV3727826
p1449
I1
sV2049842
p1450
I2
sV848254
p1451
I1
sV7991687
p1452
I1
ssS'fanf'
p1453
(dp1454
V31797
p1455
I2
sV531162
p1456
I1
sV28304073
p1457
I10
sV529967
p1458
I1
sV1162065
p1459
I4
sV30056
p1460
I1
sV3093466
p1461
I2
sV531732
p1462
I5
sV3578829
p1463
I1
sV531046
p1464
I1
sV18155
p1465
I2
sV13636
p1466
I4
sV100076
p1467
I1
sV1759543
p1468
I1
sV19461027
p1469
I1
sV5103474
p1470
I1
sV31089076
p1471
I1
sV19019
p1472
I1
sV1439939
p1473
I2
sV18436536
p1474
I1
sV893689
p1475
I1
sV2614324
p1476
I1
sV78011
p1477
I1
sV3402793
p1478
I1
sV9896305
p1479
I1
sV28587
p1480
I1
sV337389
p1481
I1
sV375785
p1482
I1
sV30990924
p1483
I1
sV653998
p1484
I10
sV5356051
p1485
I1
sV147438
p1486
I3
sV30570375
p1487
I1
sV23685094
p1488
I1
sV48600
p1489
I1
sV149848
p1490
I2
sV6010
p1491
I1
sV14744
p1492
I2
sV6549044
p1493
I1
sV14097392
p1494
I1
sV296074
p1495
I4
sV625653
p1496
I1
sV5314244
p1497
I3
sV297010
p1498
I1
sV18932830
p1499
I1
sV531733
p1500
I1
sV892736
p1501
I1
sV23941708
p1502
I1
sV1557738
p1503
I1
sV32493
p1504
I1
sV28308656
p1505
I1
sV1104882
p1506
I1
sV12684962
p1507
I1
sV86344
p1508
I4
sV556296
p1509
I1
sV9646
p1510
I1
sV25673787
p1511
I1
sV15020
p1512
I1
sV181361
p1513
I2
sV531613
p1514
I1
sV5218
p1515
I1
sV530991
p1516
I1
sV309358
p1517
I1
sV1195560
p1518
I1
sV10677545
p1519
I1
sV20624
p1520
I2
sV34341
p1521
I1
sV23697764
p1522
I1
sV585336
p1523
I2
sV327523
p1524
I1
sV198977
p1525
I1
sV34509
p1526
I1
sV11797805
p1527
I1
sV2360464
p1528
I1
sV11178099
p1529
I1
sV531760
p1530
I1
sV150287
p1531
I1
sV17839
p1532
I1
sV531566
p1533
I2
sV150044
p1534
I1
sV240527
p1535
I1
sV531688
p1536
I1
sV294545
p1537
I6
sV34332
p1538
I1
sV5879
p1539
I2
sV67436
p1540
I1
sV180326
p1541
I1
sV24484686
p1542
I5
sV893561
p1543
I1
sV14254136
p1544
I1
sV223016
p1545
I2
sV29253
p1546
I1
sV10251
p1547
I4
sV31804
p1548
I4
sV8237971
p1549
I1
sV1771747
p1550
I2
sV11018
p1551
I1
sV31803
p1552
I1
sV20989785
p1553
I1
sV16552524
p1554
I1
sV529776
p1555
I4
sV2826681
p1556
I1
sV498089
p1557
I6
sV7968527
p1558
I1
sV6484015
p1559
I1
sV373721
p1560
I1
sV531336
p1561
I1
sV4223800
p1562
I1
sV55941
p1563
I2
sV39434
p1564
I1
sV3062858
p1565
I1
sV10187530
p1566
I2
sV380586
p1567
I1
sV2594501
p1568
I1
sV24504672
p1569
I1
sV531705
p1570
I1
sV157265
p1571
I2
sV144146
p1572
I5
sV28211
p1573
I2
sV11600033
p1574
I1
sV670570
p1575
I5
sV532495
p1576
I2
sV1045988
p1577
I3
sV43315
p1578
I2
sV28684
p1579
I1
sV25978572
p1580
I1
sV570428
p1581
I1
sV23957383
p1582
I1
sV531186
p1583
I2
sV12197034
p1584
I1
sV12663390
p1585
I1
sV566484
p1586
I2
sV28754352
p1587
I1
sV11459078
p1588
I1
sV530987
p1589
I1
sV1209287
p1590
I1
sV9365537
p1591
I1
sV52070
p1592
I1
sV376723
p1593
I1
sV7580554
p1594
I1
sV226636
p1595
I1
sV40642
p1596
I1
sV403357
p1597
I3
sV531686
p1598
I2
sV1101069
p1599
I3
sV478091
p1600
I1
sV1631700
p1601
I1
sV672127
p1602
I1
sV472463
p1603
I1
sV4965560
p1604
I1
sV28368
p1605
I3
sV1845456
p1606
I1
sV18005948
p1607
I1
sV213462
p1608
I1
sV529379
p1609
I1
sV480307
p1610
I1
ssS'goldman60'
p1611
(dp1612
V6058336
p1613
I2
sV375625
p1614
I1
sV26286410
p1615
I5
sV22298986
p1616
I1
sV14372374
p1617
I1
sV18447388
p1618
I1
sV28189991
p1619
I1
sV6100128
p1620
I18
sV16631944
p1621
I1
sV427714
p1622
I1
sV235647
p1623
I1
sV690689
p1624
I19
sV12351412
p1625
I1
sV14333354
p1626
I1
sV647693
p1627
I1
sV21327612
p1628
I1
sV11621900
p1629
I1
sV1996882
p1630
I1
sV15415962
p1631
I1
sV14098654
p1632
I1
sV23682
p1633
I1
sV26277975
p1634
I1
sV5058690
p1635
I1
sV13085243
p1636
I1
sV22352824
p1637
I1
sV17128651
p1638
I1
sV2051873
p1639
I8
sV174270
p1640
I1
sV780670
p1641
I51
sV1221065
p1642
I1
sV33292446
p1643
I1
sV19464139
p1644
I1
sV3131592
p1645
I1
sV24602186
p1646
I3
sV820384
p1647
I1
sV2210697
p1648
I1
sV21931005
p1649
I1
sV19785100
p1650
I1
sV1375910
p1651
I2
sV19862091
p1652
I1
sV5022942
p1653
I1
sV27660
p1654
I2
sV13917021
p1655
I1
sV2587870
p1656
I1
sV1844074
p1657
I1
sV138024
p1658
I2
sV11722257
p1659
I1
sV7441219
p1660
I1
sV26541812
p1661
I8
sV18825099
p1662
I1
sV1293306
p1663
I1
sV2935400
p1664
I1
sV6480411
p1665
I1
sV23030766
p1666
I1
sV21819443
p1667
I9
sV22418439
p1668
I3
sV5022616
p1669
I3
sV378197
p1670
I1
sV23030193
p1671
I18
sV4071534
p1672
I1
sV1313500
p1673
I1
sV22141821
p1674
I1
sV18433496
p1675
I2
sV22311948
p1676
I2
sV21511103
p1677
I5
sV16158709
p1678
I1
sV19425425
p1679
I1
sV1095609
p1680
I1
sV596815
p1681
I1
sV607556
p1682
I2
sV18316011
p1683
I1
sV2974556
p1684
I1
sV501252
p1685
I49
sV13570494
p1686
I2
sV23030754
p1687
I1
sV890892
p1688
I3
sV11647789
p1689
I1
sV15218017
p1690
I1
sV22327188
p1691
I1
sV17615988
p1692
I9
sV4471473
p1693
I1
sV2415924
p1694
I2
sV12091532
p1695
I1
sV21431335
p1696
I1
sV593964
p1697
I1
sV3519969
p1698
I63
sV9350258
p1699
I1
sV343428
p1700
I4
sV9605156
p1701
I1
sV4075498
p1702
I1
sV255413
p1703
I2
sV3254526
p1704
I2
sV9045072
p1705
I1
sV18394322
p1706
I3
sV23030623
p1707
I1
sV5023487
p1708
I6
sV3226321
p1709
I3
sV867663
p1710
I19
sV1037393
p1711
I2
sV26541022
p1712
I1
sV23030827
p1713
I1
sV3132403
p1714
I1
sV137979
p1715
I6
sV647164
p1716
I1
sV34182971
p1717
I1
sV893301
p1718
I3
sV5024131
p1719
I2
sV1621787
p1720
I2
sV2183332
p1721
I2
sV21588103
p1722
I1
sV21796162
p1723
I1
sV7683516
p1724
I1
sV737237
p1725
I1
sV1182593
p1726
I1
sV4407029
p1727
I1
sV9795146
p1728
I1
sV889383
p1729
I2
sV4102040
p1730
I4
sV2531976
p1731
I1
sV179382
p1732
I1
sV3218019
p1733
I1
sV2772172
p1734
I1
sV1313985
p1735
I5
sV1315233
p1736
I1
sV16188814
p1737
I4
sV13015878
p1738
I2
sV4793445
p1739
I1
sV10935983
p1740
I1
sV8746013
p1741
I1
sV354286
p1742
I1
sV4939389
p1743
I2
sV22361532
p1744
I1
sV18099626
p1745
I30
sV7840840
p1746
I1
sV298221
p1747
I2
sV8807500
p1748
I4
sV890924
p1749
I1
sV750816
p1750
I7
ssS'evan1975'
p1751
(dp1752
V13522370
p1753
I1
sV1688037
p1754
I2
sV28080763
p1755
I2
sV24205020
p1756
I1
sV2320869
p1757
I1
sV16654243
p1758
I1
sV7458801
p1759
I2
sV4272178
p1760
I4
sV6755012
p1761
I1
sV309463
p1762
I3
sV622760
p1763
I1
sV30968197
p1764
I2
sV19139397
p1765
I1
sV3803778
p1766
I2
sV209904
p1767
I2
sV262510
p1768
I1
sV328679
p1769
I1
sV195726
p1770
I1
sV17906711
p1771
I1
sV26865950
p1772
I2
sV5514108
p1773
I1
sV6325765
p1774
I1
sV35874632
p1775
I1
sV535971
p1776
I1
sV4550590
p1777
I4
sV14197077
p1778
I1
sV12571625
p1779
I1
sV26106894
p1780
I1
sV1996745
p1781
I3
sV25434980
p1782
I1
sV708262
p1783
I1
sV23819012
p1784
I1
sV10942727
p1785
I4
sV29003909
p1786
I1
sV1035887
p1787
I1
sV11726144
p1788
I1
sV6906611
p1789
I1
sV2178138
p1790
I5
sV2084604
p1791
I1
sV27614417
p1792
I1
sV34029074
p1793
I1
sV74255
p1794
I1
sV76973
p1795
I1
sV318121
p1796
I1
sV3705230
p1797
I1
sV5410425
p1798
I2
sV26630415
p1799
I1
sV2243201
p1800
I2
sV5176098
p1801
I4
sV3046511
p1802
I1
sV8934801
p1803
I1
sV1234422
p1804
I1
sV139098
p1805
I4
sV2508881
p1806
I1
sV7743452
p1807
I1
sV245934
p1808
I3
sV34745060
p1809
I2
sV9533027
p1810
I2
sV5719476
p1811
I1
sV9061286
p1812
I1
sV34452224
p1813
I3
sV4783017
p1814
I1
sV4221870
p1815
I1
sV14869879
p1816
I1
sV30382349
p1817
I1
sV14595582
p1818
I1
sV18630926
p1819
I1
sV20604084
p1820
I1
sV8581253
p1821
I1
sV751030
p1822
I2
sV3968036
p1823
I1
sV5513622
p1824
I1
sV2252664
p1825
I2
sV1971532
p1826
I1
sV2829019
p1827
I1
sV863286
p1828
I2
sV4062296
p1829
I5
sV846548
p1830
I2
sV36423280
p1831
I1
sV5049103
p1832
I1
sV17508154
p1833
I2
sV4851655
p1834
I1
sV11265809
p1835
I4
sV10680422
p1836
I2
sV27509349
p1837
I1
sV6610810
p1838
I1
sV35114691
p1839
I2
sV519115
p1840
I2
sV936452
p1841
I1
sV21697524
p1842
I1
sV4980218
p1843
I1
sV11327862
p1844
I1
sV3091469
p1845
I1
sV1993582
p1846
I1
sV276518
p1847
I2
sV17920823
p1848
I1
sV12835405
p1849
I1
sV397028
p1850
I1
sV3106742
p1851
I3
sV30865892
p1852
I1
sV98351
p1853
I2
sV1548364
p1854
I1
sV27946039
p1855
I1
sV2768189
p1856
I2
sV1051605
p1857
I1
sV773931
p1858
I1
sV4586151
p1859
I1
sV512999
p1860
I1
sV7778837
p1861
I1
sV147791
p1862
I1
sV454305
p1863
I1
sV1231321
p1864
I1
sV3825974
p1865
I2
sV5116927
p1866
I1
sV35259188
p1867
I11
sV1027406
p1868
I1
sV6129720
p1869
I1
sV34568210
p1870
I1
sV1044842
p1871
I3
sV286738
p1872
I1
sV36904802
p1873
I1
sV7280584
p1874
I3
sV143895
p1875
I1
sV32717904
p1876
I1
sV2280311
p1877
I1
sV36579497
p1878
I1
sV10272948
p1879
I1
sV6136724
p1880
I1
sV298561
p1881
I2
sV5983221
p1882
I1
sV2610223
p1883
I1
sV397738
p1884
I1
sV771305
p1885
I1
sV32459224
p1886
I1
sV3107281
p1887
I1
sV9017917
p1888
I1
sV21078132
p1889
I1
sV8459519
p1890
I1
sV7051491
p1891
I1
sV5683430
p1892
I1
sV2312566
p1893
I2
sV4214783
p1894
I1
sV3624200
p1895
I1
sV3219767
p1896
I2
sV5917207
p1897
I2
sV4424476
p1898
I10
sV6068076
p1899
I3
sV1047834
p1900
I3
sV7098555
p1901
I1
sV394412
p1902
I1
sV9790960
p1903
I1
sV24820060
p1904
I1
sV1790845
p1905
I1
sV12753305
p1906
I3
sV5385158
p1907
I1
sV87533
p1908
I1
sV19503013
p1909
I1
sV29993570
p1910
I4
sV3188023
p1911
I1
sV201912
p1912
I2
sV7169738
p1913
I3
sV13864289
p1914
I1
sV20774874
p1915
I1
sV11639806
p1916
I3
sV27886277
p1917
I1
sV6358299
p1918
I1
sV29089
p1919
I1
sV2318117
p1920
I2
sV11184262
p1921
I1
sV12009766
p1922
I10
sV5733711
p1923
I2
sV19322752
p1924
I1
sV35205466
p1925
I1
sV12810960
p1926
I1
sV17671459
p1927
I2
sV264062
p1928
I1
sV3744572
p1929
I1
sV19137519
p1930
I3
sV316553
p1931
I3
sV3966243
p1932
I2
sV55273
p1933
I1
sV17729889
p1934
I1
sV25491713
p1935
I2
sV410227
p1936
I1
sV612741
p1937
I13
sV9315712
p1938
I1
sV1007217
p1939
I2
sV24851547
p1940
I1
sV1298738
p1941
I1
sV5320361
p1942
I1
sV1047827
p1943
I3
sV6339494
p1944
I1
sV1039065
p1945
I1
sV17176826
p1946
I1
sV7900872
p1947
I2
sV2273357
p1948
I1
sV7170267
p1949
I4
sV18697669
p1950
I2
sV7248442
p1951
I1
sV3614859
p1952
I1
sV864714
p1953
I1
sV1605509
p1954
I1
sV392804
p1955
I1
sV8495796
p1956
I1
sV1722447
p1957
I1
sV305023
p1958
I1
sV27356522
p1959
I10
sV17086025
p1960
I1
sV4803480
p1961
I1
sV3098499
p1962
I1
sV265317
p1963
I1
sV36506130
p1964
I1
sV26813148
p1965
I3
sV733874
p1966
I2
sV2146758
p1967
I2
sV88678
p1968
I1
sV403018
p1969
I1
sV23559284
p1970
I1
sV4044832
p1971
I18
sV208407
p1972
I2
sV794371
p1973
I1
sV3483595
p1974
I1
sV55072
p1975
I1
sV7552376
p1976
I1
sV4201066
p1977
I2
sV31156577
p1978
I1
sV20615335
p1979
I2
sV1537680
p1980
I1
sV9111614
p1981
I1
sV2931650
p1982
I8
sV17946391
p1983
I1
sV1094569
p1984
I1
sV2121844
p1985
I1
sV20904668
p1986
I1
sV12581821
p1987
I1
sV440355
p1988
I1
sV242570
p1989
I1
sV6086466
p1990
I1
sV27008752
p1991
I1
sV22286691
p1992
I7
sV8675313
p1993
I2
sV1181712
p1994
I1
sV337284
p1995
I1
sV820420
p1996
I1
sV4452885
p1997
I1
sV13228434
p1998
I1
sV5162931
p1999
I1
sV12000049
p2000
I1
sV955460
p2001
I1
sV2919327
p2002
I1
sV24050273
p2003
I1
sV24760939
p2004
I3
sV2206877
p2005
I1
sV5513715
p2006
I1
sV7297871
p2007
I1
sV1537619
p2008
I2
sV13275898
p2009
I1
sV6020781
p2010
I1
sV21381653
p2011
I1
sV2766129
p2012
I1
sV3175651
p2013
I4
sV826344
p2014
I3
sV2076640
p2015
I2
sV1498583
p2016
I4
sV546082
p2017
I7
sV20966683
p2018
I1
sV32586667
p2019
I1
sV5004659
p2020
I1
sV2016311
p2021
I1
sV3084083
p2022
I1
sV33966060
p2023
I1
sV336003
p2024
I1
sV7760423
p2025
I1
sV489530
p2026
I1
sV31272182
p2027
I1
sV2923681
p2028
I1
sV6619631
p2029
I2
sV1968455
p2030
I1
sV7325401
p2031
I3
sV2136885
p2032
I1
sV2275892
p2033
I5
sV6708645
p2034
I2
sV28697980
p2035
I2
sV1312587
p2036
I2
sV3279728
p2037
I3
ssS'shadowranger'
p2038
(dp2039
sS'Koman90'
p2040
(dp2041
V5096279
p2042
I1
sV758905
p2043
I1
sV71996
p2044
I1
sV412205
p2045
I1
sV187482
p2046
I1
sV4727235
p2047
I1
sV929394
p2048
I1
sV21128138
p2049
I3
sV151799
p2050
I1
sV12610483
p2051
I1
sV326123
p2052
I1
sV27814100
p2053
I3
sV15564259
p2054
I1
sV278025
p2055
I1
sV197489
p2056
I1
sV7674562
p2057
I2
sV31441675
p2058
I2
sV15854175
p2059
I27
sV363734
p2060
I1
sV473097
p2061
I1
sV89388
p2062
I3
sV24001304
p2063
I2
sV526868
p2064
I1
sV2906333
p2065
I1
sV748670
p2066
I1
sV7670893
p2067
I22
sV750830
p2068
I6
sV1652437
p2069
I6
sV456838
p2070
I1
sV23715667
p2071
I1
sV154549
p2072
I1
sV8111362
p2073
I1
sV4047442
p2074
I3
sV7439181
p2075
I1
sV18774429
p2076
I1
sV1351756
p2077
I1
sV2797986
p2078
I1
sV24573
p2079
I1
sV5134242
p2080
I4
sV408072
p2081
I1
sV16090138
p2082
I2
sV536576
p2083
I2
sV4502754
p2084
I1
sV2447806
p2085
I2
sV3190097
p2086
I2
sV27775127
p2087
I2
sV8934260
p2088
I2
sV569005
p2089
I2
sV24001014
p2090
I3
sV304833
p2091
I1
sV18415485
p2092
I1
sV27584121
p2093
I2
sV750854
p2094
I3
sV18399902
p2095
I1
sV16575110
p2096
I2
sV18619278
p2097
I1
sV1861502
p2098
I1
sV9494667
p2099
I6
sV18016796
p2100
I1
sV24755801
p2101
I1
sV18724
p2102
I1
sV5136671
p2103
I7
sV13440573
p2104
I1
sV1004868
p2105
I4
sV2281448
p2106
I2
sV24806506
p2107
I2
sV2281361
p2108
I1
sV468631
p2109
I1
sV23018642
p2110
I7
sV23533163
p2111
I45
sV13340828
p2112
I1
sV32844829
p2113
I18
sV23058553
p2114
I1
sV5442405
p2115
I1
sV2289648
p2116
I3
sV4669804
p2117
I1
sV465434
p2118
I1
sV1164253
p2119
I1
sV2126501
p2120
I1
sV832574
p2121
I1
sV6088510
p2122
I1
sV210892
p2123
I4
sV4453260
p2124
I1
sV10292532
p2125
I1
sV2355379
p2126
I1
sV59695
p2127
I1
sV32242976
p2128
I1
sV17847167
p2129
I1
sV384375
p2130
I1
sV1527679
p2131
I98
sV3160118
p2132
I16
sV2229030
p2133
I1
sV25140600
p2134
I12
sV176595
p2135
I1
sV10062721
p2136
I1
sV32716
p2137
I2
sV28338635
p2138
I1
sV5187493
p2139
I3
sV13440544
p2140
I1
sV7415938
p2141
I1
sV476813
p2142
I1
sV288448
p2143
I1
sV6600912
p2144
I1
sV37563
p2145
I2
sV4046286
p2146
I2
sV15854211
p2147
I30
sV1011484
p2148
I1
sV556778
p2149
I1
sV15854193
p2150
I31
sV32351211
p2151
I12
sV4730032
p2152
I1
sV19133401
p2153
I13
sV770289
p2154
I2
sV24536639
p2155
I4
ssS'eeekster'
p2156
(dp2157
V36758175
p2158
I1
sV14247969
p2159
I1
sV36643068
p2160
I1
sV16720023
p2161
I1
sV36352657
p2162
I3
sV36758579
p2163
I1
sV34254263
p2164
I1
sV36894126
p2165
I1
sV3150851
p2166
I2
sV9954197
p2167
I1
sV5830939
p2168
I1
sV37063743
p2169
I2
sV36758715
p2170
I1
sV17359827
p2171
I1
sV36444210
p2172
I1
sV6719239
p2173
I1
sV2747930
p2174
I1
sV36635062
p2175
I1
sV36650624
p2176
I2
sV36767209
p2177
I1
sV36642609
p2178
I1
sV57723
p2179
I1
sV171336
p2180
I1
sV36758782
p2181
I1
sV6356488
p2182
I2
sV36562381
p2183
I1
sV36894018
p2184
I1
sV25748
p2185
I1
sV36527548
p2186
I1
sV1607674
p2187
I1
sV31323827
p2188
I1
sV3895745
p2189
I2
sV36641948
p2190
I1
sV36767842
p2191
I1
sV36499772
p2192
I1
sV36865493
p2193
I1
sV36828485
p2194
I1
sV21774156
p2195
I1
sV36590488
p2196
I1
sV36855217
p2197
I1
sV36793143
p2198
I1
sV183387
p2199
I1
sV8960847
p2200
I1
sV36856599
p2201
I1
sV36511409
p2202
I1
sV8826389
p2203
I3
sV36635410
p2204
I1
sV36856227
p2205
I1
sV36769947
p2206
I2
sV36732622
p2207
I2
sV36441903
p2208
I1
sV34345756
p2209
I1
sV36430646
p2210
I1
sV31178
p2211
I1
sV36182088
p2212
I1
sV36835758
p2213
I1
sV15233369
p2214
I1
sV14034
p2215
I1
sV36650755
p2216
I1
sV36901742
p2217
I2
sV34278
p2218
I1
sV36650958
p2219
I1
sV36871038
p2220
I1
sV36732919
p2221
I1
sV36418344
p2222
I1
sV176660
p2223
I2
sV36357560
p2224
I1
sV28061517
p2225
I1
sV21448384
p2226
I1
sV31587273
p2227
I1
sV36779467
p2228
I1
sV36650277
p2229
I1
sV441735
p2230
I1
sV23761571
p2231
I1
sV12628
p2232
I1
sV269726
p2233
I1
sV36411218
p2234
I5
sV36359352
p2235
I1
sV4329299
p2236
I1
sV36813784
p2237
I1
sV36758130
p2238
I3
sV36512095
p2239
I1
sV15909999
p2240
I1
sV36396496
p2241
I1
sV8885522
p2242
I2
sV4991705
p2243
I1
sV36901603
p2244
I2
sV36855250
p2245
I1
sV33594521
p2246
I1
sV36562379
p2247
I1
sV36565049
p2248
I1
sV926934
p2249
I1
sV24593850
p2250
I1
sV32382490
p2251
I1
sV36780452
p2252
I1
sV36801774
p2253
I2
sV36430759
p2254
I1
sV36767052
p2255
I1
sV20329484
p2256
I1
sV2731214
p2257
I1
sV36758910
p2258
I1
sV36825559
p2259
I2
sV36825493
p2260
I2
sV36854927
p2261
I2
sV33205843
p2262
I1
sV15235391
p2263
I1
sV36512969
p2264
I1
sV107669
p2265
I1
sV36396027
p2266
I1
sV36642597
p2267
I1
sV31690973
p2268
I1
sV36553445
p2269
I1
sV36733036
p2270
I1
sV36353788
p2271
I1
sV36853593
p2272
I1
sV36779801
p2273
I1
sV3618927
p2274
I1
sV36352732
p2275
I1
sV36511055
p2276
I1
sV36853943
p2277
I1
sV36855073
p2278
I1
sV36766055
p2279
I1
sV36395020
p2280
I1
sV36395974
p2281
I1
sV20417841
p2282
I1
sV36811097
p2283
I1
sV36159182
p2284
I1
sV2867238
p2285
I1
sV36642075
p2286
I1
sV36514595
p2287
I1
sV36793375
p2288
I2
sV30402021
p2289
I1
sV823840
p2290
I1
sV36535602
p2291
I1
sV34417401
p2292
I1
sV888488
p2293
I1
sV37065779
p2294
I1
sV36627393
p2295
I1
sV36640895
p2296
I1
sV13017011
p2297
I1
sV36565005
p2298
I1
sV33529835
p2299
I1
sV36444115
p2300
I1
sV36641571
p2301
I1
sV56825
p2302
I1
sV36396638
p2303
I1
sV36759408
p2304
I1
sV36751328
p2305
I1
sV2793187
p2306
I1
sV36856453
p2307
I2
sV36758083
p2308
I1
sV36346705
p2309
I1
sV36183953
p2310
I1
sV36758088
p2311
I3
sV36514425
p2312
I1
sV184399
p2313
I1
sV36560930
p2314
I1
sV36476899
p2315
I2
sV7241539
p2316
I1
sV37054169
p2317
I1
sV27611667
p2318
I1
sV36444511
p2319
I2
sV36616493
p2320
I1
sV36642037
p2321
I1
sV36184532
p2322
I1
sV24172078
p2323
I1
sV2302347
p2324
I1
sV24998247
p2325
I1
sV36779554
p2326
I2
sV950572
p2327
I1
sV36441746
p2328
I1
sV36855024
p2329
I1
sV36184283
p2330
I1
sV36395894
p2331
I1
sV35608064
p2332
I1
sV15361363
p2333
I2
sV36562408
p2334
I1
sV12081912
p2335
I1
sV21566645
p2336
I1
sV746152
p2337
I1
sV36801460
p2338
I1
sV31196990
p2339
I3
sV3971063
p2340
I1
sV37066238
p2341
I1
sV161316
p2342
I1
sV36741690
p2343
I1
sV2472816
p2344
I1
sV36793329
p2345
I1
sV35684401
p2346
I1
sV7815982
p2347
I1
sV429917
p2348
I1
sV36396175
p2349
I1
sV36182758
p2350
I1
sV9029469
p2351
I1
sV37062092
p2352
I1
sV3625423
p2353
I1
sV36531425
p2354
I1
sV35698892
p2355
I1
sV36500119
p2356
I1
sV20062
p2357
I2
sV2262820
p2358
I1
sV18391915
p2359
I1
sV2138332
p2360
I1
sV1935120
p2361
I1
sV36825825
p2362
I1
sV36600416
p2363
I2
sV36641393
p2364
I1
sV36856309
p2365
I1
sV36553955
p2366
I1
sV36600795
p2367
I1
sV12315419
p2368
I1
sV36352915
p2369
I1
sV36825540
p2370
I3
sV36580811
p2371
I1
sV5956662
p2372
I1
sV36183357
p2373
I1
sV124796
p2374
I1
sV36766727
p2375
I1
sV36626920
p2376
I2
sV36825760
p2377
I2
sV36825442
p2378
I2
sV629154
p2379
I1
sV2310823
p2380
I1
sV2646776
p2381
I1
sV18422126
p2382
I1
sV37028506
p2383
I1
sV37072187
p2384
I1
sV36635435
p2385
I1
sV36769614
p2386
I1
sV36651398
p2387
I1
sV36769717
p2388
I2
sV36801820
p2389
I1
sV36587169
p2390
I1
sV24124736
p2391
I1
sV23797605
p2392
I1
sV1089224
p2393
I2
sV37064166
p2394
I1
sV2669492
p2395
I2
sV48664
p2396
I1
sV36352726
p2397
I1
sV3192040
p2398
I1
sV36575760
p2399
I1
sV36820322
p2400
I1
sV10686991
p2401
I1
sV2097524
p2402
I1
sV25887718
p2403
I1
sV36601157
p2404
I1
sV36359820
p2405
I9
sV36356112
p2406
I1
sV36562358
p2407
I1
sV36356116
p2408
I2
sV107633
p2409
I1
sV36378247
p2410
I1
sV37076514
p2411
I3
sV222346
p2412
I1
sV773032
p2413
I1
sV37076512
p2414
I1
sV24031020
p2415
I1
sV36257934
p2416
I2
sV8227362
p2417
I1
sV36526807
p2418
I1
sV620709
p2419
I1
sV36828977
p2420
I1
sV785203
p2421
I1
sV36553911
p2422
I1
sV36758804
p2423
I1
sV36354549
p2424
I1
sV36553868
p2425
I1
sV36643784
p2426
I1
sV32906239
p2427
I1
sV36355549
p2428
I1
sV191537
p2429
I1
sV36642328
p2430
I1
sV36732375
p2431
I1
sV7324416
p2432
I1
sV12102
p2433
I1
sV31388580
p2434
I2
sV36765750
p2435
I1
sV36713242
p2436
I1
sV36444091
p2437
I2
sV36732268
p2438
I1
sV17476321
p2439
I1
sV1414831
p2440
I1
sV36553313
p2441
I1
sV36182282
p2442
I1
sV7993310
p2443
I1
sV27510702
p2444
I1
sV36642027
p2445
I1
sV36855740
p2446
I1
sV36801371
p2447
I1
sV36291481
p2448
I1
sV6319632
p2449
I2
sV312075
p2450
I1
sV65145
p2451
I1
sV36978590
p2452
I3
sV37076412
p2453
I1
sV28840
p2454
I1
sV36430763
p2455
I1
sV36903583
p2456
I1
sV36801673
p2457
I1
sV36291633
p2458
I1
sV3052631
p2459
I1
sV36758112
p2460
I2
sV31777962
p2461
I2
sV36562173
p2462
I1
sV1991570
p2463
I1
sV36758666
p2464
I1
sV36564792
p2465
I1
sV36711090
p2466
I1
sV36856389
p2467
I2
sV8641308
p2468
I1
sV36811145
p2469
I1
sV36825306
p2470
I1
sV36476543
p2471
I1
sV37062398
p2472
I1
sV36428194
p2473
I1
sV36430777
p2474
I1
sV36768173
p2475
I1
sV36855836
p2476
I2
sV24018430
p2477
I1
sV36395237
p2478
I1
sV25357953
p2479
I1
sV37076630
p2480
I2
sV1359922
p2481
I1
sV36717033
p2482
I1
sV36266835
p2483
I2
sV9785450
p2484
I1
sV13476965
p2485
I1
sV36568298
p2486
I1
sV6225903
p2487
I1
sV36636042
p2488
I1
sV6250226
p2489
I2
sV36616584
p2490
I2
sV36651407
p2491
I1
sV36642276
p2492
I2
sV25408438
p2493
I1
sV36713215
p2494
I1
sV233478
p2495
I2
sV36855297
p2496
I3
sV26553271
p2497
I4
sV3931914
p2498
I1
sV220221
p2499
I1
sV36536153
p2500
I1
sV37076355
p2501
I1
sV4679889
p2502
I1
sV36291772
p2503
I1
sV36855713
p2504
I1
sV36857399
p2505
I1
sV36825759
p2506
I1
sV36793059
p2507
I1
sV36441867
p2508
I1
sV36707457
p2509
I1
sV1249322
p2510
I1
sV36396434
p2511
I1
sV36206980
p2512
I3
sV1649542
p2513
I2
sV36758581
p2514
I1
sV8768989
p2515
I1
sV382387
p2516
I1
sV36290798
p2517
I2
sV36599920
p2518
I1
sV25699133
p2519
I1
sV1467021
p2520
I1
sV36654296
p2521
I1
sV36767628
p2522
I1
sV36758122
p2523
I1
sV2999461
p2524
I1
sV372031
p2525
I2
sV36834010
p2526
I1
sV34217293
p2527
I2
sV36650461
p2528
I1
sV36394753
p2529
I1
sV5735334
p2530
I1
sV20814339
p2531
I1
sV36422372
p2532
I2
sV36641643
p2533
I2
sV36641903
p2534
I2
sV35979325
p2535
I2
sV26777050
p2536
I1
sV36732266
p2537
I1
sV173575
p2538
I1
sV36855316
p2539
I3
sV5526285
p2540
I3
sV5092420
p2541
I1
sV7287919
p2542
I1
sV6263203
p2543
I1
sV37054067
p2544
I1
sV1530612
p2545
I1
sV36635809
p2546
I1
sV37076311
p2547
I1
sV36430692
p2548
I6
sV35334121
p2549
I1
sV36565238
p2550
I1
sV37075296
p2551
I2
sV36535705
p2552
I1
sV36792370
p2553
I1
sV36627507
p2554
I2
sV138077
p2555
I1
sV4886621
p2556
I1
sV1095706
p2557
I1
sV36443940
p2558
I1
sV36352597
p2559
I1
ssS'chrisrus'
p2560
(dp2561
V2449536
p2562
I3
sV518441
p2563
I22
sV23409839
p2564
I3
sV7793293
p2565
I1
sV730844
p2566
I1
sV36797471
p2567
I3
sV276589
p2568
I1
sV20370386
p2569
I1
sV825162
p2570
I2
sV9918743
p2571
I5
sV35857653
p2572
I22
sV6315316
p2573
I3
sV36960784
p2574
I1
sV273243
p2575
I6
sV469644
p2576
I1
sV1787860
p2577
I1
sV36651549
p2578
I1
sV36359248
p2579
I2
sV17846
p2580
I1
sV2858559
p2581
I6
sV12928529
p2582
I1
sV5412903
p2583
I1
sV14812001
p2584
I2
sV36968230
p2585
I1
sV36636235
p2586
I1
sV2621188
p2587
I1
sV35861938
p2588
I1
sV6359773
p2589
I1
sV36248679
p2590
I1
sV609144
p2591
I1
sV28895137
p2592
I2
sV4318009
p2593
I1
sV1283082
p2594
I1
sV567608
p2595
I1
sV6710
p2596
I5
sV36748904
p2597
I1
sV483147
p2598
I1
sV36914105
p2599
I1
sV153865
p2600
I1
sV325917
p2601
I1
sV992836
p2602
I2
sV3442968
p2603
I1
sV611093
p2604
I1
sV6993136
p2605
I1
sV36721761
p2606
I1
sV33594947
p2607
I1
sV11526617
p2608
I1
sV19285924
p2609
I1
sV34172929
p2610
I1
sV52255
p2611
I1
sV3595064
p2612
I1
sV36847704
p2613
I1
sV13275842
p2614
I1
sV751544
p2615
I1
sV1485116
p2616
I1
sV13490096
p2617
I1
sV9607955
p2618
I1
sV36801422
p2619
I1
sV209203
p2620
I14
sV29634158
p2621
I3
sV28642
p2622
I1
sV36488815
p2623
I3
sV747516
p2624
I2
sV1527737
p2625
I3
sV1515866
p2626
I7
sV21576798
p2627
I1
sV36133424
p2628
I1
sV9948980
p2629
I2
sV36580310
p2630
I1
sV36208396
p2631
I1
sV23502467
p2632
I1
sV6334004
p2633
I1
sV35975859
p2634
I1
sV12531841
p2635
I1
sV36359236
p2636
I1
sV22531588
p2637
I1
sV3095
p2638
I2
sV36362532
p2639
I1
sV144192
p2640
I1
sV34645656
p2641
I1
sV171166
p2642
I1
sV21063349
p2643
I1
sV36475557
p2644
I1
sV33686773
p2645
I2
sV4841127
p2646
I1
sV19492527
p2647
I2
sV649718
p2648
I1
sV28871384
p2649
I11
sV36778023
p2650
I1
sV128921
p2651
I2
sV24912404
p2652
I1
sV269186
p2653
I2
sV33702
p2654
I3
sV335568
p2655
I1
sV31537965
p2656
I1
sV4097096
p2657
I1
sV11700118
p2658
I1
sV36939082
p2659
I1
sV2676271
p2660
I6
sV217723
p2661
I1
sV27635504
p2662
I1
sV28360275
p2663
I1
sV682482
p2664
I14
sV316157
p2665
I2
sV3304092
p2666
I1
sV740355
p2667
I1
sV36812863
p2668
I1
sV16188
p2669
I1
sV476072
p2670
I1
sV1914826
p2671
I1
sV575970
p2672
I1
sV36917589
p2673
I1
sV714862
p2674
I1
sV1276833
p2675
I1
sV3063610
p2676
I1
sV7376329
p2677
I1
sV19071176
p2678
I1
sV1392096
p2679
I1
sV284312
p2680
I2
sV10068133
p2681
I1
sV5884694
p2682
I1
sV12363778
p2683
I2
sV8367928
p2684
I1
sV22052
p2685
I1
sV3751745
p2686
I1
sV5266543
p2687
I1
sV32716064
p2688
I1
sV1667046
p2689
I2
sV50530
p2690
I2
sV1802377
p2691
I1
sV5758638
p2692
I1
sV45798
p2693
I1
sV1606420
p2694
I1
sV22777727
p2695
I18
sV17266353
p2696
I4
sV19903061
p2697
I8
sV2858526
p2698
I1
sV24807696
p2699
I7
sV25764051
p2700
I1
sV825393
p2701
I4
sV36845212
p2702
I1
sV33592554
p2703
I2
sV2884201
p2704
I6
sV27421165
p2705
I1
sV16900235
p2706
I1
sV36742896
p2707
I1
sV187637
p2708
I13
sV2230239
p2709
I124
sV1219503
p2710
I1
sV11822557
p2711
I1
sV36571159
p2712
I1
sV31235666
p2713
I2
sV70024
p2714
I2
sV36722259
p2715
I1
sV10772
p2716
I1
sV2114815
p2717
I1
sV38221
p2718
I2
sV762143
p2719
I2
sV505721
p2720
I12
sV3279728
p2721
I9
ssS'dajf'
p2722
(dp2723
sS'07bargem'
p2724
(dp2725
V7870652
p2726
I2
sV3085726
p2727
I1
sV22971009
p2728
I1
sV26616873
p2729
I1
sV9896988
p2730
I1
sV1642000
p2731
I2
sV30440822
p2732
I1
sV3415614
p2733
I1
sV3690173
p2734
I1
sV23596556
p2735
I1
sV21086384
p2736
I5
sV8048977
p2737
I1
sV6083977
p2738
I1
sV3331070
p2739
I1
sV26410537
p2740
I1
sV31418753
p2741
I3
sV5975272
p2742
I1
sV639926
p2743
I1
sV560563
p2744
I1
sV16707963
p2745
I4
sV31466657
p2746
I1
sV2861230
p2747
I2
sV8219410
p2748
I1
sV2898933
p2749
I1
sV27646373
p2750
I10
sV31417644
p2751
I1
sV26352500
p2752
I1
sV31465966
p2753
I1
sV15163175
p2754
I4
sV84627
p2755
I1
sV23088407
p2756
I1
sV31496968
p2757
I1
sV7660842
p2758
I1
sV23834214
p2759
I1
sV25789759
p2760
I2
sV26616699
p2761
I1
sV27965301
p2762
I27
sV8219428
p2763
I1
sV7998661
p2764
I2
sV31455348
p2765
I8
sV27830442
p2766
I83
sV13928526
p2767
I1
sV31477070
p2768
I2
sV26698544
p2769
I1
sV21508375
p2770
I2
sV365376
p2771
I1
sV534280
p2772
I2
sV2122384
p2773
I1
sV31842021
p2774
I2
sV31507832
p2775
I1
sV1827694
p2776
I1
sV34609551
p2777
I1
sV7885111
p2778
I1
sV31498563
p2779
I2
sV27581485
p2780
I2
sV27731706
p2781
I1
sV3340585
p2782
I1
sV539375
p2783
I2
sV79508
p2784
I1
sV7061437
p2785
I1
sV31091121
p2786
I1
sV4503223
p2787
I1
sV429743
p2788
I1
sV27804117
p2789
I5
sV3794961
p2790
I3
sV32744507
p2791
I15
sV31407692
p2792
I3
sV5682770
p2793
I1
sV31448103
p2794
I2
sV31466205
p2795
I2
sV3225418
p2796
I1
sV12683469
p2797
I1
sV31468751
p2798
I3
sV8049067
p2799
I1
sV27647989
p2800
I1
sV1779964
p2801
I1
sV27648077
p2802
I3
sV31507880
p2803
I2
sV1826119
p2804
I4
sV5777110
p2805
I1
sV31448992
p2806
I6
sV3303229
p2807
I1
sV8164553
p2808
I2
sV3360754
p2809
I1
sV27342161
p2810
I4
sV27657514
p2811
I2
sV23359783
p2812
I1
sV31478015
p2813
I2
sV23088594
p2814
I4
sV771553
p2815
I1
sV21747860
p2816
I1
sV217536
p2817
I5
sV5555879
p2818
I1
sV567323
p2819
I1
sV4462971
p2820
I1
sV1797312
p2821
I1
sV3629444
p2822
I1
sV8219344
p2823
I1
sV11099297
p2824
I3
sV8049016
p2825
I1
sV1826090
p2826
I2
sV27646662
p2827
I6
sV32006878
p2828
I9
sV8163830
p2829
I1
sV23725099
p2830
I21
sV23088339
p2831
I1
sV3275069
p2832
I1
sV35069473
p2833
I1
sV240578
p2834
I1
sV31459141
p2835
I1
sV31476763
p2836
I4
sV31459147
p2837
I2
sV27680728
p2838
I2
sV31456502
p2839
I1
sV27590499
p2840
I1
sV31405477
p2841
I2
sV27590496
p2842
I1
sV8049004
p2843
I1
sV31081882
p2844
I1
sV31497486
p2845
I3
sV4294
p2846
I1
sV8163741
p2847
I1
sV30557220
p2848
I1
sV31481647
p2849
I3
sV7998162
p2850
I1
sV27657632
p2851
I2
sV6826248
p2852
I1
sV31481524
p2853
I1
sV1699417
p2854
I1
sV35389443
p2855
I1
sV1393019
p2856
I1
sV9898341
p2857
I1
sV31421074
p2858
I7
sV591778
p2859
I3
sV5264591
p2860
I1
sV9823371
p2861
I1
sV20971637
p2862
I3
sV33864215
p2863
I1
sV4826905
p2864
I2
sV8048494
p2865
I1
sV27647809
p2866
I5
sV1231355
p2867
I1
sV1826147
p2868
I1
sV8164509
p2869
I1
sV23734703
p2870
I2
sV11108921
p2871
I1
sV79787
p2872
I1
sV317001
p2873
I1
sV31448597
p2874
I1
sV27591617
p2875
I8
sV31459160
p2876
I2
sV26708799
p2877
I1
sV7873246
p2878
I1
sV8386244
p2879
I1
sV13828
p2880
I1
sV25558854
p2881
I4
sV9898390
p2882
I1
sV31459560
p2883
I1
sV27648129
p2884
I4
sV26945571
p2885
I3
sV10792437
p2886
I1
sV31675664
p2887
I4
sV27564214
p2888
I37
sV3795013
p2889
I4
sV8219390
p2890
I1
sV31430937
p2891
I2
sV6036
p2892
I2
sV11824537
p2893
I12
ssS'amanwithnoplan'
p2894
(dp2895
sS'lquilter'
p2896
(dp2897
V31422045
p2898
I2
sV36817039
p2899
I1
sV34284395
p2900
I1
sV469470
p2901
I1
sV14457458
p2902
I3
sV36803940
p2903
I1
sV36690524
p2904
I20
sV36742463
p2905
I18
sV36742193
p2906
I1
sV36980293
p2907
I1
sV6073923
p2908
I1
sV36633519
p2909
I7
sV36980294
p2910
I1
sV36820374
p2911
I1
sV36819030
p2912
I1
sV18469977
p2913
I2
sV31257382
p2914
I2
sV32694218
p2915
I1
sV36670687
p2916
I1
sV36821262
p2917
I5
sV10362025
p2918
I1
sV19391
p2919
I1
sV21889256
p2920
I1
sV1290247
p2921
I1
sV36964861
p2922
I1
sV541144
p2923
I1
sV11705243
p2924
I1
sV36826679
p2925
I29
sV3725273
p2926
I1
sV21810173
p2927
I1
sV36742297
p2928
I1
sV23699683
p2929
I1
sV2586473
p2930
I1
sV36674738
p2931
I1
sV31857694
p2932
I1
sV7569676
p2933
I1
sV8152652
p2934
I1
sV36751716
p2935
I1
sV22574887
p2936
I1
sV36804313
p2937
I1
sV36960581
p2938
I1
sV26203705
p2939
I1
sV3392088
p2940
I2
sV36742375
p2941
I1
sV36742181
p2942
I6
sV20310479
p2943
I5
sV36815992
p2944
I1
sV36815997
p2945
I1
sV36670691
p2946
I1
sV36724575
p2947
I1
sV11394237
p2948
I1
sV49813
p2949
I2
sV22360020
p2950
I1
sV4401921
p2951
I1
sV5300398
p2952
I1
sV5845337
p2953
I1
sV37055992
p2954
I1
sV36804418
p2955
I1
sV3613332
p2956
I1
sV36904924
p2957
I1
sV36628470
p2958
I1
sV35313254
p2959
I1
sV265242
p2960
I2
sV4454022
p2961
I4
sV37056152
p2962
I5
sV37055941
p2963
I1
sV124460
p2964
I1
sV13237334
p2965
I1
sV2321755
p2966
I2
sV36696862
p2967
I1
sV37046681
p2968
I1
sV36820328
p2969
I1
sV28471954
p2970
I1
sV32039
p2971
I1
sV5218938
p2972
I1
sV36820327
p2973
I1
sV1438317
p2974
I4
sV24883338
p2975
I1
sV26010
p2976
I2
sV36628466
p2977
I1
sV36628469
p2978
I1
sV36960506
p2979
I1
sV18372497
p2980
I2
sV20507286
p2981
I2
sV37046583
p2982
I11
sV22359401
p2983
I1
sV227417
p2984
I5
sV36813368
p2985
I11
sV3168087
p2986
I1
sV32879655
p2987
I1
sV12024683
p2988
I1
sV35264387
p2989
I4
sV32462269
p2990
I1
sV36960489
p2991
I1
sV36803919
p2992
I1
sV25985492
p2993
I1
sV25078779
p2994
I2
sV57180
p2995
I1
sV23737938
p2996
I1
sV33146807
p2997
I1
sV36820330
p2998
I1
sV36699418
p2999
I2
sV36733514
p3000
I1
sV28969055
p3001
I1
sV4155716
p3002
I1
sV35965118
p3003
I2
sV25473051
p3004
I1
sV37055937
p3005
I1
sV3826715
p3006
I1
sV36690748
p3007
I2
sV2420085
p3008
I1
sV7715782
p3009
I1
sV36696900
p3010
I1
sV36959695
p3011
I1
sV36960577
p3012
I1
sV2279544
p3013
I1
sV515609
p3014
I2
sV5625208
p3015
I1
sV32462253
p3016
I1
sV36699373
p3017
I1
sV36817078
p3018
I18
sV2925212
p3019
I1
sV36742551
p3020
I2
sV36585062
p3021
I2
sV36699379
p3022
I1
sV27699287
p3023
I1
sV11138311
p3024
I2
sV31582757
p3025
I1
sV5563510
p3026
I1
sV36696730
p3027
I1
sV36804420
p3028
I1
sV1559325
p3029
I1
sV21828092
p3030
I1
sV36688713
p3031
I1
sV36585253
p3032
I1
sV29693439
p3033
I1
sV4287527
p3034
I1
sV30523814
p3035
I6
sV26838799
p3036
I2
sV25174422
p3037
I1
sV36688272
p3038
I18
sV17658565
p3039
I1
sV35644998
p3040
I1
sV36961017
p3041
I1
sV5687670
p3042
I1
sV36804045
p3043
I12
sV36583932
p3044
I3
sV36803931
p3045
I1
sV5345636
p3046
I1
sV3399571
p3047
I2
sV36742230
p3048
I1
sV106451
p3049
I1
sV36965744
p3050
I1
sV1494563
p3051
I1
sV33961769
p3052
I1
sV19248002
p3053
I1
sV4332294
p3054
I3
sV391223
p3055
I1
sV36699388
p3056
I1
sV36690649
p3057
I1
sV1977395
p3058
I1
sV11472032
p3059
I2
sV36742389
p3060
I1
sV33357619
p3061
I1
sV36956076
p3062
I16
sV3833695
p3063
I1
sV36742380
p3064
I1
sV36804362
p3065
I2
sV36742034
p3066
I1
sV36960574
p3067
I1
sV36960575
p3068
I1
sV7284200
p3069
I2
sV36818629
p3070
I1
sV31258066
p3071
I1
sV36803925
p3072
I1
sV15199017
p3073
I1
sV26944245
p3074
I1
sV34726554
p3075
I1
sV37046568
p3076
I1
sV37046402
p3077
I1
sV37046562
p3078
I1
sV14062336
p3079
I2
sV36803806
p3080
I1
sV37046565
p3081
I1
sV14062704
p3082
I1
sV36742435
p3083
I1
sV5481051
p3084
I1
sV1613414
p3085
I1
sV521765
p3086
I2
sV36580976
p3087
I33
sV37055986
p3088
I1
sV3333184
p3089
I1
sV36585230
p3090
I1
sV3686611
p3091
I1
sV36628455
p3092
I1
sV36688772
p3093
I1
sV36966044
p3094
I1
sV6925638
p3095
I1
sV2361420
p3096
I2
sV261307
p3097
I1
sV25497710
p3098
I3
sV13029061
p3099
I1
sV36815972
p3100
I1
sV3260094
p3101
I1
sV445022
p3102
I1
sV36603386
p3103
I3
sV36818940
p3104
I1
sV34327784
p3105
I2
sV9764
p3106
I1
sV1503181
p3107
I1
sV30603358
p3108
I1
sV32264800
p3109
I1
sV1471598
p3110
I1
sV36820371
p3111
I10
sV33284700
p3112
I1
sV11176679
p3113
I2
sV7720992
p3114
I2
sV10772
p3115
I1
sV36585226
p3116
I1
sV22688522
p3117
I1
sV20473497
p3118
I1
sV6847105
p3119
I1
sV16242160
p3120
I2
sV36696662
p3121
I10
sV36696663
p3122
I1
ssS'markreidyhp'
p3123
(dp3124
V6056792
p3125
I2
sV184391
p3126
I1
sV4480845
p3127
I2
sV1338374
p3128
I2
sV12858904
p3129
I2
sV14902559
p3130
I5
sV246701
p3131
I3
sV53276
p3132
I15
sV23248420
p3133
I2
sV80130
p3134
I1
sV64249
p3135
I1
sV14902670
p3136
I2
sV12976982
p3137
I2
sV8027559
p3138
I1
sV2126501
p3139
I1
sV1153379
p3140
I1
sV23426573
p3141
I1
sV1338351
p3142
I1
sV3774806
p3143
I4
sV10901590
p3144
I3
sV16689357
p3145
I2
sV14359857
p3146
I1
sV5415565
p3147
I4
sV14762880
p3148
I1
sV3637193
p3149
I2
sV7043159
p3150
I1
sV392648
p3151
I2
sV1237967
p3152
I2
sV223630
p3153
I2
sV1766990
p3154
I1
sV6225227
p3155
I1
sV999940
p3156
I1
sV14383825
p3157
I4
sV2595704
p3158
I2
sV13752054
p3159
I1
sV3833378
p3160
I1
sV16848530
p3161
I1
sV14590465
p3162
I1
sV4590023
p3163
I1
sV2731583
p3164
I1
sV2952183
p3165
I4
sV16111669
p3166
I1
sV2276234
p3167
I1
sV59610
p3168
I3
sV4798523
p3169
I1
sV1849179
p3170
I1
sV15557014
p3171
I5
sV336922
p3172
I2
sV14206321
p3173
I1
sV4639196
p3174
I1
sV14055397
p3175
I1
sV1027679
p3176
I2
sV13618195
p3177
I2
sV5036751
p3178
I1
sV9587
p3179
I1
sV25213
p3180
I1
sV9627102
p3181
I6
sV14193662
p3182
I7
sV35983
p3183
I1
sV12252187
p3184
I33
sV3658014
p3185
I1
sV1339582
p3186
I1
sV92621
p3187
I3
sV15167275
p3188
I1
sV10455942
p3189
I1
sV8233464
p3190
I2
sV11665017
p3191
I4
sV30875797
p3192
I6
sV6458470
p3193
I1
sV216283
p3194
I3
sV9960598
p3195
I1
sV1076753
p3196
I1
sV11914067
p3197
I1
sV21265
p3198
I1
sV10388527
p3199
I3
sV2604927
p3200
I2
sV14902694
p3201
I4
sV1347288
p3202
I1
sV628890
p3203
I1
sV1493949
p3204
I1
sV4467849
p3205
I2
ssS'ke4roh'
p3206
(dp3207
V5253778
p3208
I1
sV758653
p3209
I3
sV34813255
p3210
I1
sV29773691
p3211
I1
sV34684501
p3212
I1
sV7253550
p3213
I1
sV163395
p3214
I6
sV15077149
p3215
I1
sV7393343
p3216
I1
sV2448088
p3217
I4
sV7264531
p3218
I1
sV13332651
p3219
I1
sV5508817
p3220
I6
sV35582111
p3221
I1
sV17418486
p3222
I1
sV23958326
p3223
I4
sV28622
p3224
I1
sV19718874
p3225
I1
sV307263
p3226
I1
sV575575
p3227
I1
sV2845999
p3228
I2
sV1662886
p3229
I1
sV171130
p3230
I2
sV33394484
p3231
I2
sV34813226
p3232
I1
sV1461
p3233
I1
sV11979169
p3234
I1
sV35245603
p3235
I1
sV261987
p3236
I1
sV20846650
p3237
I1
sV32645713
p3238
I1
sV6271370
p3239
I2
sV102595
p3240
I1
sV1189689
p3241
I1
sV1199945
p3242
I1
sV34684469
p3243
I1
sV711997
p3244
I1
sV18612939
p3245
I1
sV308915
p3246
I1
sV25205811
p3247
I3
sV10879587
p3248
I2
sV22011721
p3249
I1
sV572843
p3250
I1
sV363856
p3251
I2
sV1796057
p3252
I1
sV161971
p3253
I1
sV16785068
p3254
I1
sV889377
p3255
I1
sV382594
p3256
I1
sV4465102
p3257
I3
sV5874112
p3258
I1
sV5557528
p3259
I2
sV157222
p3260
I1
sV154549
p3261
I2
sV12541321
p3262
I25
sV1239464
p3263
I1
sV20584918
p3264
I1
sV16768102
p3265
I2
sV13692
p3266
I1
sV13756164
p3267
I1
sV5301417
p3268
I1
sV35787067
p3269
I1
sV69955
p3270
I1
sV34937541
p3271
I1
sV362987
p3272
I2
sV35772988
p3273
I1
sV7735709
p3274
I1
sV186853
p3275
I1
sV10541571
p3276
I1
sV4026847
p3277
I1
sV699247
p3278
I1
sV23197167
p3279
I2
sV8423780
p3280
I1
sV7499420
p3281
I1
sV543412
p3282
I1
sV30834766
p3283
I1
sV611022
p3284
I1
sV15030688
p3285
I1
sV5859561
p3286
I2
sV32665356
p3287
I1
sV24490303
p3288
I2
sV18563918
p3289
I1
sV32853923
p3290
I1
sV11675105
p3291
I1
sV29130399
p3292
I3
sV33079948
p3293
I24
sV98350
p3294
I1
sV1543262
p3295
I2
sV102605
p3296
I2
sV2657868
p3297
I8
sV34585537
p3298
I1
sV2731946
p3299
I1
sV57575
p3300
I1
sV146151
p3301
I1
sV35787073
p3302
I1
sV6724462
p3303
I1
sV383405
p3304
I1
sV25736
p3305
I1
sV4241857
p3306
I3
sV303
p3307
I1
sV20733981
p3308
I5
sV69144
p3309
I1
sV988975
p3310
I41
sV87012
p3311
I1
sV5321
p3312
I1
sV32807420
p3313
I1
sV32853914
p3314
I1
sV137896
p3315
I1
sV114759
p3316
I1
sV33783
p3317
I2
sV25971
p3318
I1
sV35738909
p3319
I1
sV143890
p3320
I3
sV1470787
p3321
I1
sV36808426
p3322
I1
sV91740
p3323
I3
sV592830
p3324
I1
sV33895801
p3325
I3
sV12232045
p3326
I3
sV34494277
p3327
I1
sV6233014
p3328
I2
sV33651
p3329
I1
sV34169427
p3330
I5
sV5226267
p3331
I2
sV318516
p3332
I2
sV593844
p3333
I3
sV33685997
p3334
I1
sV25990728
p3335
I2
sV35306935
p3336
I1
sV25965786
p3337
I1
sV79670
p3338
I1
sV62345
p3339
I2
sV32692615
p3340
I2
sV199033
p3341
I1
sV13965157
p3342
I6
sV36254084
p3343
I1
sV34880949
p3344
I1
sV87009
p3345
I1
sV104854
p3346
I1
sV32899796
p3347
I1
sV5720835
p3348
I1
sV2829037
p3349
I3
sV10226746
p3350
I1
sV135203
p3351
I3
sV21844254
p3352
I1
sV7979583
p3353
I1
sV746070
p3354
I1
sV940774
p3355
I1
sV1717016
p3356
I1
sV35484182
p3357
I1
sV36254079
p3358
I1
sV2491857
p3359
I1
sV572830
p3360
I1
sV4514305
p3361
I2
sV625197
p3362
I1
sV801578
p3363
I1
sV14960830
p3364
I1
sV314626
p3365
I1
sV23554820
p3366
I2
sV11007252
p3367
I1
sV28612895
p3368
I1
sV35545674
p3369
I1
sV31630387
p3370
I1
sV3014842
p3371
I2
sV213242
p3372
I1
sV6266230
p3373
I1
sV1149687
p3374
I1
sV1401672
p3375
I1
sV8016028
p3376
I2
sV8570283
p3377
I1
sV2608725
p3378
I2
sV33477112
p3379
I1
sV33008190
p3380
I2
sV27358495
p3381
I1
sV31855860
p3382
I1
sV5737369
p3383
I3
sV336285
p3384
I1
sV2407040
p3385
I2
sV2829162
p3386
I1
sV34684421
p3387
I8
sV504394
p3388
I1
sV573160
p3389
I1
sV19302309
p3390
I1
sV2011
p3391
I1
sV26764193
p3392
I1
sV3009153
p3393
I1
sV35727550
p3394
I1
sV23780234
p3395
I1
sV34342752
p3396
I1
sV5510148
p3397
I1
sV16768897
p3398
I2
sV34540617
p3399
I8
sV8635479
p3400
I1
sV185973
p3401
I1
sV27629790
p3402
I1
sV14977629
p3403
I1
sV32853921
p3404
I1
sV11524854
p3405
I3
sV35740920
p3406
I17
sV32718984
p3407
I1
sV22554980
p3408
I1
sV4282934
p3409
I1
sV1970
p3410
I1
sV2373169
p3411
I1
sV34684521
p3412
I1
sV474121
p3413
I1
sV34684454
p3414
I1
sV710471
p3415
I1
sV6522312
p3416
I4
sV22411601
p3417
I1
sV600624
p3418
I1
sV5011504
p3419
I1
sV473612
p3420
I1
sV2335673
p3421
I1
sV74202
p3422
I1
sV21844439
p3423
I3
sV93566
p3424
I1
sV1315426
p3425
I1
sV128297
p3426
I1
sV14257222
p3427
I2
sV2975219
p3428
I1
sV2931869
p3429
I1
sV91713
p3430
I3
sV23035
p3431
I1
sV14553883
p3432
I3
sV34814879
p3433
I1
sV12139185
p3434
I1
sV171123
p3435
I2
sV21650
p3436
I1
sV585576
p3437
I3
sV631374
p3438
I1
sV3133984
p3439
I1
sV34822211
p3440
I1
sV5995659
p3441
I1
sV4011838
p3442
I3
sV4858049
p3443
I2
sV295341
p3444
I3
sV7362822
p3445
I7
sV286478
p3446
I3
sV5576664
p3447
I2
sV53576
p3448
I1
sV6581126
p3449
I2
sV13925151
p3450
I1
sV173506
p3451
I1
sV26947559
p3452
I1
sV905957
p3453
I4
sV361392
p3454
I1
sV22127415
p3455
I1
sV5540651
p3456
I1
sV36191868
p3457
I1
sV31392103
p3458
I2
sV196523
p3459
I3
sV148869
p3460
I2
sV21717959
p3461
I1
ssS'bjenks'
p3462
(dp3463
V94211
p3464
I3
sV33655609
p3465
I3
sV1570519
p3466
I2
sV2544286
p3467
I1
sV149962
p3468
I1
sV8943637
p3469
I4
sV1126168
p3470
I2
sV1066456
p3471
I2
sV1279066
p3472
I1
sV37036819
p3473
I1
sV9497934
p3474
I2
sV4101984
p3475
I1
sV2185791
p3476
I1
sV516136
p3477
I2
sV2343230
p3478
I1
sV1378574
p3479
I1
sV4912432
p3480
I1
sV17216151
p3481
I1
sV26424607
p3482
I1
sV140465
p3483
I1
sV1943
p3484
I10
sV2542972
p3485
I2
sV2173230
p3486
I3
sV184192
p3487
I6
sV36017844
p3488
I1
sV6476862
p3489
I1
sV406118
p3490
I1
sV3696561
p3491
I4
sV677950
p3492
I1
sV2292805
p3493
I4
sV28178312
p3494
I1
sV867306
p3495
I2
sV15767477
p3496
I1
sV435988
p3497
I2
sV36129399
p3498
I1
sV10333687
p3499
I1
sV8890448
p3500
I1
sV49030
p3501
I3
sV20270224
p3502
I1
sV878506
p3503
I2
sV1149009
p3504
I1
sV171629
p3505
I3
sV12359821
p3506
I1
sV421305
p3507
I2
sV691737
p3508
I1
sV211289
p3509
I2
sV308804
p3510
I1
sV2147616
p3511
I1
sV6013651
p3512
I1
sV2339569
p3513
I2
sV565883
p3514
I1
sV1694508
p3515
I1
sV2634055
p3516
I2
sV17906629
p3517
I1
sV18429444
p3518
I1
sV18049461
p3519
I2
sV1943904
p3520
I1
sV1941607
p3521
I3
sV27078728
p3522
I1
sV1208280
p3523
I3
sV17946859
p3524
I3
sV4363493
p3525
I2
sV36258169
p3526
I2
sV10213140
p3527
I3
sV3745723
p3528
I1
sV296393
p3529
I3
sV23624094
p3530
I1
sV13735215
p3531
I1
sV229612
p3532
I1
sV81837
p3533
I2
sV4589008
p3534
I2
sV34980872
p3535
I3
sV794439
p3536
I1
sV17571858
p3537
I1
sV18128050
p3538
I1
sV11238853
p3539
I1
sV6000991
p3540
I1
sV1038265
p3541
I1
sV35944745
p3542
I5
sV655368
p3543
I2
sV6508770
p3544
I2
sV24976298
p3545
I4
sV1128023
p3546
I7
sV10999063
p3547
I1
sV26169420
p3548
I5
sV5227653
p3549
I1
sV1885335
p3550
I1
sV5228940
p3551
I2
sV24757109
p3552
I1
sV2204451
p3553
I1
sV23916526
p3554
I3
sV26318974
p3555
I6
sV3846192
p3556
I1
sV8300648
p3557
I1
sV2735824
p3558
I2
sV1030558
p3559
I3
sV12261654
p3560
I2
sV33064247
p3561
I4
sV8692196
p3562
I2
sV959771
p3563
I3
sV5530973
p3564
I3
sV34051703
p3565
I1
sV2633071
p3566
I1
sV20531
p3567
I1
sV245369
p3568
I1
sV44276
p3569
I1
sV1877082
p3570
I1
sV4305749
p3571
I1
sV21105581
p3572
I2
sV26337499
p3573
I1
sV1471537
p3574
I1
sV5771
p3575
I1
sV587290
p3576
I1
sV7248306
p3577
I1
sV840012
p3578
I1
sV26743
p3579
I2
sV36299419
p3580
I2
sV25437639
p3581
I1
sV2696738
p3582
I1
sV15277629
p3583
I1
sV19536857
p3584
I1
sV1053470
p3585
I1
sV16815
p3586
I1
sV4066267
p3587
I1
sV1018073
p3588
I2
sV30479
p3589
I7
sV34901644
p3590
I2
sV149424
p3591
I2
sV7898687
p3592
I2
sV24263316
p3593
I4
sV6751931
p3594
I1
sV10088279
p3595
I7
sV260863
p3596
I4
sV1991209
p3597
I1
sV18053
p3598
I1
sV16988550
p3599
I2
sV35941689
p3600
I2
sV35646369
p3601
I5
sV146693
p3602
I2
sV11152494
p3603
I3
sV4091204
p3604
I1
sV510534
p3605
I1
sV1008130
p3606
I4
sV35469220
p3607
I1
sV33873
p3608
I21
sV29583767
p3609
I1
sV298329
p3610
I2
sV4836350
p3611
I2
sV31359739
p3612
I5
sV462159
p3613
I2
sV34800308
p3614
I3
sV1465995
p3615
I1
sV304947
p3616
I3
sV24355
p3617
I5
sV101984
p3618
I1
sV8826
p3619
I1
sV892047
p3620
I1
sV5085171
p3621
I2
sV2597249
p3622
I2
sV3157952
p3623
I3
sV22025586
p3624
I1
sV53343
p3625
I3
sV25484096
p3626
I1
sV2188082
p3627
I1
sV12361089
p3628
I1
sV462675
p3629
I1
sV20194618
p3630
I1
sV22810256
p3631
I2
sV31347821
p3632
I3
sV3282563
p3633
I4
sV3480047
p3634
I1
sV17521945
p3635
I2
sV1845389
p3636
I5
sV240307
p3637
I6
sV11034947
p3638
I1
sV3619581
p3639
I2
sV463101
p3640
I1
sV199023
p3641
I2
sV18281588
p3642
I2
sV674175
p3643
I1
sV610773
p3644
I1
sV3356765
p3645
I3
sV2595515
p3646
I1
sV627169
p3647
I3
sV263401
p3648
I2
sV20310221
p3649
I1
sV661838
p3650
I1
sV92195
p3651
I1
sV3310645
p3652
I1
sV232417
p3653
I1
sV36761465
p3654
I3
sV1678760
p3655
I1
sV2365104
p3656
I2
sV27862
p3657
I2
sV20213946
p3658
I1
sV228736
p3659
I1
sV9520611
p3660
I1
sV302997
p3661
I1
sV27658893
p3662
I2
sV13720915
p3663
I3
sV2155472
p3664
I2
sV601288
p3665
I2
sV1203778
p3666
I1
sV2700729
p3667
I1
sV19085996
p3668
I4
sV36985
p3669
I2
sV15363871
p3670
I1
sV22320733
p3671
I1
sV634909
p3672
I3
sV34943500
p3673
I2
sV762230
p3674
I1
sV595016
p3675
I5
sV3517488
p3676
I1
sV31042780
p3677
I2
sV315471
p3678
I4
sV5348514
p3679
I1
sV637056
p3680
I1
sV238788
p3681
I4
sV58730
p3682
I2
sV28746531
p3683
I1
sV554979
p3684
I1
sV37072412
p3685
I1
sV5966760
p3686
I1
sV22451846
p3687
I1
sV90072
p3688
I1
sV7550182
p3689
I1
sV35124614
p3690
I1
sV8397312
p3691
I2
sV439686
p3692
I1
sV15043987
p3693
I1
sV26809004
p3694
I2
sV1047419
p3695
I2
sV172350
p3696
I1
sV1881
p3697
I1
sV467103
p3698
I2
sV311664
p3699
I1
sV5762254
p3700
I1
sV5103444
p3701
I1
sV655357
p3702
I1
sV3637132
p3703
I2
sV505953
p3704
I1
sV25871616
p3705
I1
sV23742928
p3706
I4
sV571177
p3707
I1
sV4667
p3708
I1
sV4299450
p3709
I1
sV381424
p3710
I4
sV17987857
p3711
I1
sV10976954
p3712
I2
sV1841761
p3713
I1
sV1758238
p3714
I2
sV2142702
p3715
I1
sV1481539
p3716
I2
sV6639602
p3717
I1
ssS'warpflyght'
p3718
(dp3719
V15598695
p3720
I2
sV6722435
p3721
I1
sV8072339
p3722
I1
sV8454212
p3723
I3
sV889697
p3724
I7
sV3630457
p3725
I1
sV6911609
p3726
I3
sV8557389
p3727
I2
sV163395
p3728
I1
sV2891685
p3729
I1
sV4936306
p3730
I2
sV14740555
p3731
I1
sV26825
p3732
I1
sV11692305
p3733
I1
sV7450395
p3734
I1
sV2196912
p3735
I2
sV13212778
p3736
I1
sV327786
p3737
I1
sV10705678
p3738
I1
sV1936223
p3739
I1
sV12215456
p3740
I1
sV1684531
p3741
I1
sV3186510
p3742
I1
sV2196857
p3743
I10
sV62761
p3744
I1
sV9739
p3745
I1
sV1856419
p3746
I2
sV7853993
p3747
I1
sV339616
p3748
I1
sV9208454
p3749
I1
sV334876
p3750
I1
sV1660576
p3751
I1
sV36541
p3752
I1
sV109508
p3753
I19
sV310802
p3754
I1
sV651876
p3755
I2
sV517952
p3756
I1
sV7097646
p3757
I7
sV10036866
p3758
I1
sV385467
p3759
I1
sV1529629
p3760
I1
sV475101
p3761
I1
sV4573728
p3762
I4
sV1010280
p3763
I1
sV617947
p3764
I1
sV7471
p3765
I1
sV40594
p3766
I1
sV3138
p3767
I15
sV1027216
p3768
I1
sV61645
p3769
I1
sV3618498
p3770
I1
sV72806
p3771
I1
sV224225
p3772
I1
sV1178217
p3773
I1
sV173394
p3774
I1
sV8753550
p3775
I2
sV115678
p3776
I1
sV1025498
p3777
I1
sV14945828
p3778
I1
sV109900
p3779
I1
sV1215341
p3780
I3
sV536669
p3781
I4
sV3015787
p3782
I21
sV1738919
p3783
I1
sV1863543
p3784
I1
sV3432996
p3785
I1
sV454975
p3786
I4
sV6452
p3787
I1
sV431301
p3788
I1
sV632132
p3789
I1
sV1741022
p3790
I11
sV1258520
p3791
I1
sV391011
p3792
I2
sV8012153
p3793
I1
sV4098593
p3794
I3
sV34327739
p3795
I1
sV13149
p3796
I1
sV95214
p3797
I10
sV146704
p3798
I1
sV232711
p3799
I1
sV14426142
p3800
I5
sV79604
p3801
I1
sV3652354
p3802
I3
sV847661
p3803
I1
sV703561
p3804
I1
sV3998480
p3805
I1
sV1411624
p3806
I1
sV327808
p3807
I2
sV11338590
p3808
I2
sV25536
p3809
I1
sV49603
p3810
I10
sV20557247
p3811
I1
sV3355809
p3812
I1
sV109816
p3813
I1
sV7460657
p3814
I1
sV65580
p3815
I1
sV1539021
p3816
I4
sV784723
p3817
I1
sV1716633
p3818
I1
sV65504
p3819
I1
sV5800885
p3820
I4
sV4936508
p3821
I1
sV12666722
p3822
I1
sV106680
p3823
I1
sV2471093
p3824
I1
sV85023
p3825
I1
sV17549768
p3826
I1
sV160020
p3827
I5
sV109162
p3828
I21
sV879191
p3829
I1
sV505920
p3830
I1
sV3052573
p3831
I2
sV2403518
p3832
I1
sV418558
p3833
I1
sV356074
p3834
I2
sV1603248
p3835
I1
sV122283
p3836
I10
sV9708680
p3837
I1
sV1481564
p3838
I2
sV349335
p3839
I1
sV2375038
p3840
I1
sV654611
p3841
I1
sV3583863
p3842
I1
sV8555844
p3843
I2
sV34846
p3844
I1
sV4157940
p3845
I1
sV11439394
p3846
I1
sV1750033
p3847
I1
sV1138357
p3848
I1
sV1012818
p3849
I1
sV12882237
p3850
I1
sV6839904
p3851
I1
sV1769160
p3852
I1
sV75118
p3853
I1
sV16217079
p3854
I1
sV1122841
p3855
I2
sV805879
p3856
I1
sV143541
p3857
I1
sV1215420
p3858
I1
sV7840016
p3859
I5
sV527084
p3860
I1
sV6597242
p3861
I1
sV17549751
p3862
I1
sV2663092
p3863
I1
sV3998660
p3864
I1
sV25657
p3865
I1
sV109738
p3866
I15
sV8841749
p3867
I1
sV342207
p3868
I1
sV5844481
p3869
I1
sV9096497
p3870
I1
sV461524
p3871
I2
sV38847
p3872
I1
sV9232
p3873
I2
sV37231
p3874
I1
sV2647312
p3875
I1
sV704778
p3876
I9
sV108093
p3877
I1
sV4567001
p3878
I1
sV8550588
p3879
I2
sV13701359
p3880
I1
sV15221398
p3881
I1
sV152534
p3882
I1
sV72357
p3883
I1
sV159063
p3884
I1
sV66460
p3885
I1
sV3828146
p3886
I1
sV1016446
p3887
I1
sV962509
p3888
I1
sV7797981
p3889
I1
sV705068
p3890
I1
sV75478
p3891
I1
sV20110967
p3892
I1
sV3183878
p3893
I1
sV1527679
p3894
I1
sV2058878
p3895
I1
sV1171760
p3896
I1
sV137471
p3897
I1
sV2001664
p3898
I1
sV3773618
p3899
I2
sV3280746
p3900
I2
sV7735733
p3901
I1
sV1128611
p3902
I1
sV6847247
p3903
I1
sV1687023
p3904
I1
sV31396195
p3905
I2
sV4390032
p3906
I1
sV12327
p3907
I1
sV320118
p3908
I1
sV2213191
p3909
I1
sV37671
p3910
I1
sV50399
p3911
I1
sV11692230
p3912
I2
sV110139
p3913
I1
sV959434
p3914
I1
sV3551820
p3915
I1
sV768464
p3916
I1
sV43953
p3917
I4
sV43950
p3918
I10
sV73188
p3919
I14
sV2926287
p3920
I1
sV7090886
p3921
I2
sV1874251
p3922
I1
sV2599087
p3923
I1
sV867489
p3924
I1
sV2173406
p3925
I1
sV8915120
p3926
I1
sV103155
p3927
I1
sV2196968
p3928
I1
sV43795
p3929
I1
sV106653
p3930
I32
sV355908
p3931
I1
sV596911
p3932
I1
sV28486339
p3933
I19
ssS'ginkgo100'
p3934
(dp3935
V58221
p3936
I1
sV2312328
p3937
I1
sV420456
p3938
I1
sV4787648
p3939
I1
sV102065
p3940
I1
sV92399
p3941
I1
sV538058
p3942
I1
sV19013315
p3943
I1
sV384999
p3944
I1
sV30876330
p3945
I1
sV535805
p3946
I1
sV3011472
p3947
I1
sV33044028
p3948
I5
sV13433313
p3949
I4
sV1555671
p3950
I1
sV83449
p3951
I1
sV80332
p3952
I3
sV21956596
p3953
I1
sV25071854
p3954
I1
sV21466012
p3955
I1
sV23512552
p3956
I1
sV16946852
p3957
I1
sV1494
p3958
I1
sV17896035
p3959
I1
sV288210
p3960
I3
sV1869857
p3961
I1
sV806538
p3962
I2
sV21005792
p3963
I1
sV12667
p3964
I1
sV23963
p3965
I1
sV45936
p3966
I1
sV18568127
p3967
I1
sV286392
p3968
I1
sV149644
p3969
I1
sV2099019
p3970
I1
sV20782785
p3971
I1
sV21848
p3972
I1
sV457905
p3973
I2
sV52000
p3974
I1
sV1190487
p3975
I1
sV4786098
p3976
I1
sV2822
p3977
I1
sV7632
p3978
I1
sV52098
p3979
I1
sV723549
p3980
I1
sV32524511
p3981
I1
sV618991
p3982
I1
sV159856
p3983
I1
sV25152964
p3984
I1
sV390530
p3985
I1
sV10833705
p3986
I1
sV9482
p3987
I1
sV27879822
p3988
I1
sV25114529
p3989
I3
sV28851134
p3990
I1
sV166029
p3991
I2
sV20826
p3992
I1
sV21536939
p3993
I5
sV34185
p3994
I2
sV28289557
p3995
I1
sV20728122
p3996
I1
sV8833400
p3997
I1
sV17077015
p3998
I4
sV888171
p3999
I1
sV30782566
p4000
I1
sV15731061
p4001
I1
sV16197637
p4002
I1
sV4901146
p4003
I1
sV3707072
p4004
I1
sV675277
p4005
I1
sV351269
p4006
I2
sV10445002
p4007
I2
sV4757087
p4008
I1
sV48362
p4009
I1
sV24242235
p4010
I1
sV33075848
p4011
I1
sV73165
p4012
I2
sV24742969
p4013
I1
sV17077516
p4014
I2
sV559292
p4015
I1
sV5160010
p4016
I1
sV17159479
p4017
I1
sV547154
p4018
I1
sV1792890
p4019
I1
sV10568177
p4020
I1
sV685428
p4021
I1
sV3097810
p4022
I1
sV17215813
p4023
I1
sV16197646
p4024
I1
sV694740
p4025
I1
sV624912
p4026
I1
sV16277070
p4027
I2
sV2333116
p4028
I1
sV30717701
p4029
I1
sV24737975
p4030
I1
sV19471303
p4031
I1
sV57713
p4032
I1
sV1524906
p4033
I2
sV13974541
p4034
I1
sV21373347
p4035
I1
sV27711384
p4036
I1
sV4045760
p4037
I1
sV1341151
p4038
I1
sV5580522
p4039
I2
sV410131
p4040
I1
sV25190699
p4041
I1
sV769166
p4042
I1
sV1771587
p4043
I3
sV234393
p4044
I1
sV19075384
p4045
I1
sV27879599
p4046
I2
sV12256383
p4047
I1
sV6035
p4048
I1
sV200033
p4049
I1
sV8729253
p4050
I1
sV12319758
p4051
I1
sV9776346
p4052
I1
sV14938775
p4053
I1
sV26508916
p4054
I4
sV21496038
p4055
I1
sV15832610
p4056
I12
sV6673432
p4057
I1
sV203182
p4058
I1
sV53951
p4059
I1
sV20728096
p4060
I2
sV619925
p4061
I1
sV15842578
p4062
I1
sV1562000
p4063
I1
sV7168931
p4064
I1
sV513093
p4065
I1
sV2294818
p4066
I1
sV3572371
p4067
I1
sV370268
p4068
I1
sV30703152
p4069
I1
sV259335
p4070
I1
sV647417
p4071
I1
sV20083491
p4072
I1
sV486429
p4073
I1
sV32863484
p4074
I1
sV21956562
p4075
I4
sV456838
p4076
I1
sV82181
p4077
I1
sV28527188
p4078
I2
sV233082
p4079
I1
sV3469533
p4080
I2
sV18529537
p4081
I1
sV24027
p4082
I2
sV288343
p4083
I1
sV11289459
p4084
I1
sV26509386
p4085
I1
sV26509380
p4086
I1
sV25190658
p4087
I1
sV347105
p4088
I1
sV16937878
p4089
I1
sV1861994
p4090
I1
sV19313622
p4091
I2
sV3049456
p4092
I1
sV4273140
p4093
I1
sV27879793
p4094
I2
sV20530746
p4095
I1
sV20530743
p4096
I1
sV6536
p4097
I1
sV707501
p4098
I3
sV17539
p4099
I1
sV15771405
p4100
I3
sV8707438
p4101
I1
sV4447619
p4102
I1
sV32478049
p4103
I1
sV30728117
p4104
I1
sV30717684
p4105
I3
sV25434956
p4106
I1
sV6503360
p4107
I2
sV37789
p4108
I1
sV1241101
p4109
I1
sV16013974
p4110
I3
sV5111123
p4111
I1
sV184342
p4112
I1
sV4003535
p4113
I1
sV27036
p4114
I1
sV2988441
p4115
I1
sV17077506
p4116
I1
sV4080953
p4117
I1
sV11287720
p4118
I1
sV29098462
p4119
I1
sV211941
p4120
I1
sV16493011
p4121
I1
sV215891
p4122
I1
sV1778598
p4123
I1
sV22253888
p4124
I1
sV5193508
p4125
I1
sV16226468
p4126
I1
sV359650
p4127
I2
sV234801
p4128
I1
sV222300
p4129
I1
sV108036
p4130
I1
sV17214443
p4131
I6
sV21802302
p4132
I1
sV151603
p4133
I1
sV300237
p4134
I1
sV415406
p4135
I1
sV23113679
p4136
I1
sV16300881
p4137
I1
sV713933
p4138
I1
sV1699176
p4139
I1
sV378319
p4140
I3
sV2196281
p4141
I1
sV157430
p4142
I1
sV6767747
p4143
I1
sV42076
p4144
I2
sV16458426
p4145
I2
sV28322095
p4146
I2
sV4395648
p4147
I1
sV4354646
p4148
I1
sV22667359
p4149
I1
sV8889903
p4150
I2
sV5751
p4151
I1
sV8530
p4152
I1
sV8531
p4153
I1
sV101965
p4154
I1
sV30717693
p4155
I1
sV25716089
p4156
I2
sV58890
p4157
I1
sV67477
p4158
I1
sV26976058
p4159
I1
sV2511409
p4160
I1
sV622145
p4161
I1
sV309754
p4162
I1
sV62286
p4163
I1
sV694777
p4164
I1
sV10959269
p4165
I1
sV10923102
p4166
I1
sV3706056
p4167
I3
sV32512440
p4168
I1
sV37149
p4169
I1
sV185848
p4170
I1
sV2190792
p4171
I1
sV16493296
p4172
I1
sV2934
p4173
I1
sV21492663
p4174
I1
sV4884363
p4175
I1
sV8331292
p4176
I1
sV21772369
p4177
I1
sV1167483
p4178
I1
sV14274423
p4179
I2
sV1276616
p4180
I1
sV18835541
p4181
I3
sV2523440
p4182
I1
sV2140979
p4183
I1
sV869864
p4184
I1
sV8158530
p4185
I1
sV27879816
p4186
I1
sV1764786
p4187
I1
sV25728976
p4188
I1
sV655563
p4189
I3
sV2810990
p4190
I1
sV1527289
p4191
I1
sV2225073
p4192
I1
sV402247
p4193
I1
sV529953
p4194
I1
sV4988053
p4195
I1
sV4635792
p4196
I1
sV341844
p4197
I2
sV23539285
p4198
I1
sV4065583
p4199
I1
sV1800826
p4200
I1
sV18492290
p4201
I3
sV57179
p4202
I1
sV171216
p4203
I1
sV5552783
p4204
I1
sV22553956
p4205
I1
sV262278
p4206
I1
sV22323903
p4207
I1
sV10611656
p4208
I1
sV20940628
p4209
I1
sV7009303
p4210
I1
sV75173
p4211
I1
sV236339
p4212
I1
sV1269557
p4213
I1
sV88869
p4214
I1
sV5080640
p4215
I1
sV642577
p4216
I1
sV625565
p4217
I1
sV1699242
p4218
I1
sV412114
p4219
I1
sV1248929
p4220
I1
sV12333426
p4221
I1
sV471852
p4222
I2
sV14542509
p4223
I8
sV897576
p4224
I1
sV409978
p4225
I1
sV3123925
p4226
I1
sV13275
p4227
I1
sV999634
p4228
I1
sV20506017
p4229
I1
sV28744473
p4230
I1
sV1171509
p4231
I1
sV15606
p4232
I1
sV39696
p4233
I1
sV765
p4234
I1
sV42446
p4235
I2
sV20076
p4236
I1
sV20656228
p4237
I2
sV23277971
p4238
I1
sV25151213
p4239
I3
sV56253
p4240
I1
sV6527784
p4241
I1
sV63087
p4242
I3
sV16489842
p4243
I1
sV30717754
p4244
I1
sV31620326
p4245
I1
sV29135540
p4246
I1
sV32512451
p4247
I1
sV26304690
p4248
I1
sV28897091
p4249
I2
sV2270767
p4250
I1
sV21326132
p4251
I1
sV17214152
p4252
I1
sV58046
p4253
I1
sV185369
p4254
I1
sV32554813
p4255
I1
sV4850486
p4256
I2
sV32554818
p4257
I1
sV2277688
p4258
I1
sV4777294
p4259
I1
sV45519
p4260
I1
sV24090930
p4261
I1
sV1252
p4262
I1
sV25806
p4263
I1
sV25151208
p4264
I1
sV415293
p4265
I1
sV15624438
p4266
I2
sV16235968
p4267
I1
sV1937
p4268
I1
sV16197626
p4269
I1
sV848457
p4270
I2
sV201304
p4271
I1
sV32554219
p4272
I1
sV33333838
p4273
I1
sV866807
p4274
I2
sV34445109
p4275
I1
sV26570339
p4276
I2
sV127058
p4277
I1
sV25434939
p4278
I3
sV28051437
p4279
I2
sV188018
p4280
I1
sV100730
p4281
I1
sV714268
p4282
I1
sV2598116
p4283
I1
sV31536961
p4284
I1
sV2973296
p4285
I1
sV50601
p4286
I1
sV201017
p4287
I1
sV3439669
p4288
I1
sV27879803
p4289
I1
sV14470168
p4290
I1
sV4709696
p4291
I1
sV16198388
p4292
I2
sV32524525
p4293
I1
sV4109769
p4294
I1
sV32524520
p4295
I1
sV1865123
p4296
I1
sV14065208
p4297
I1
sV18550651
p4298
I1
sV21374882
p4299
I1
sV1328218
p4300
I1
sV893141
p4301
I1
sV3739059
p4302
I1
sV681770
p4303
I1
sV8878962
p4304
I1
sV32524419
p4305
I2
sV405839
p4306
I1
sV18266036
p4307
I1
sV1064372
p4308
I1
sV22550685
p4309
I1
sV267247
p4310
I1
sV48203
p4311
I1
sV1368229
p4312
I1
sV577576
p4313
I1
sV32967702
p4314
I4
sV14573594
p4315
I1
sV15842501
p4316
I1
sV46594
p4317
I1
sV7466
p4318
I1
ssS'jonkerz'
p4319
(dp4320
V211997
p4321
I1
sV30334019
p4322
I1
sV8528437
p4323
I2
sV2245776
p4324
I1
sV8528431
p4325
I2
sV36975937
p4326
I1
sV35993155
p4327
I1
sV339302
p4328
I1
sV23523374
p4329
I1
sV3239072
p4330
I2
sV4682483
p4331
I1
sV17079791
p4332
I1
sV4307812
p4333
I1
sV4640060
p4334
I1
sV3609377
p4335
I1
sV1799316
p4336
I1
sV34764216
p4337
I1
sV7854108
p4338
I1
sV5179066
p4339
I1
sV35082576
p4340
I1
sV5779279
p4341
I1
sV27298083
p4342
I1
sV29759762
p4343
I1
sV24834
p4344
I1
sV36131761
p4345
I1
sV36201264
p4346
I1
sV18646178
p4347
I1
sV25647966
p4348
I2
sV4648476
p4349
I1
sV528999
p4350
I1
sV29188721
p4351
I1
sV36639372
p4352
I1
sV36986546
p4353
I1
sV11708574
p4354
I1
sV23971099
p4355
I1
sV49604
p4356
I1
sV14207184
p4357
I1
sV36992978
p4358
I2
sV4058774
p4359
I1
sV8528377
p4360
I2
sV5079427
p4361
I1
sV5079547
p4362
I1
sV23523282
p4363
I1
sV2047
p4364
I1
sV23523118
p4365
I1
sV23523117
p4366
I1
sV23523114
p4367
I1
sV6269850
p4368
I1
sV36996188
p4369
I1
sV27497110
p4370
I1
sV65837
p4371
I1
sV36988542
p4372
I2
sV20811397
p4373
I1
sV12773567
p4374
I1
sV17405382
p4375
I1
sV417043
p4376
I1
sV49261
p4377
I1
sV956982
p4378
I1
sV17844662
p4379
I1
sV31038826
p4380
I1
sV221188
p4381
I1
sV8453019
p4382
I1
sV23523372
p4383
I1
sV23523421
p4384
I1
sV32256713
p4385
I1
sV23523276
p4386
I1
sV161570
p4387
I2
sV36980916
p4388
I1
sV1158125
p4389
I1
sV30968304
p4390
I1
sV187401
p4391
I1
sV21861955
p4392
I1
sV27917278
p4393
I2
sV4220348
p4394
I1
sV19423896
p4395
I1
sV19504278
p4396
I1
sV23523309
p4397
I1
sV23523307
p4398
I1
sV23523304
p4399
I1
sV23523305
p4400
I1
sV237132
p4401
I1
sV23523300
p4402
I1
sV169509
p4403
I1
sV35612736
p4404
I2
sV3494039
p4405
I1
sV24482951
p4406
I1
sV23522991
p4407
I1
sV1659679
p4408
I1
sV850588
p4409
I1
sV23522997
p4410
I1
sV574945
p4411
I1
sV29400
p4412
I1
sV13289817
p4413
I1
sV29436529
p4414
I1
sV26195
p4415
I1
sV4589338
p4416
I2
sV4739144
p4417
I1
sV146880
p4418
I1
sV9978334
p4419
I1
sV32665664
p4420
I1
sV3036154
p4421
I1
sV67363
p4422
I1
sV344879
p4423
I1
sV11205600
p4424
I1
sV22024319
p4425
I1
sV29505444
p4426
I1
sV840055
p4427
I1
sV7222744
p4428
I1
sV4285105
p4429
I1
sV194485
p4430
I1
sV11966591
p4431
I1
sV24347589
p4432
I1
sV23523018
p4433
I1
sV656245
p4434
I1
sV20057633
p4435
I2
sV1999146
p4436
I1
sV23523271
p4437
I1
sV9819863
p4438
I1
sV418436
p4439
I1
sV8528308
p4440
I2
sV18498060
p4441
I1
sV32468874
p4442
I1
sV1645942
p4443
I1
sV3410
p4444
I1
sV33178155
p4445
I1
sV13592568
p4446
I1
sV28182
p4447
I1
sV23523166
p4448
I1
sV5590004
p4449
I1
sV23523163
p4450
I1
sV11242731
p4451
I1
sV23224587
p4452
I1
sV31744838
p4453
I1
sV924152
p4454
I1
sV35763643
p4455
I2
sV8151408
p4456
I1
sV6074674
p4457
I1
sV15909409
p4458
I1
sV34988851
p4459
I1
sV36993023
p4460
I1
sV2969268
p4461
I1
sV2871940
p4462
I1
sV23523343
p4463
I1
sV34665749
p4464
I1
sV23523262
p4465
I1
sV21475739
p4466
I1
sV36996038
p4467
I1
sV272260
p4468
I1
sV11960442
p4469
I2
sV80327
p4470
I1
sV162780
p4471
I1
sV20599992
p4472
I1
sV438005
p4473
I1
sV9015
p4474
I1
sV1070788
p4475
I1
sV37046687
p4476
I1
sV576334
p4477
I1
sV25184696
p4478
I1
sV28524
p4479
I1
sV10966236
p4480
I1
sV30377959
p4481
I1
sV36994813
p4482
I1
sV25758
p4483
I1
sV167539
p4484
I1
sV4512923
p4485
I1
sV3406733
p4486
I1
sV35791850
p4487
I1
sV46496
p4488
I1
sV26875817
p4489
I2
sV35143615
p4490
I1
sV35409555
p4491
I1
sV5719126
p4492
I1
sV208999
p4493
I1
sV475160
p4494
I1
sV23522940
p4495
I1
sV167202
p4496
I1
sV36994703
p4497
I1
sV34516014
p4498
I1
sV847615
p4499
I2
sV5079387
p4500
I1
sV16151188
p4501
I1
sV36995810
p4502
I1
sV5790660
p4503
I1
sV8528094
p4504
I1
sV12480521
p4505
I1
sV11960494
p4506
I1
sV2140705
p4507
I1
sV31571798
p4508
I1
sV23523121
p4509
I1
sV30876044
p4510
I1
sV7326191
p4511
I1
sV23523128
p4512
I1
sV2173279
p4513
I1
sV128608
p4514
I1
sV35718371
p4515
I1
sV8528646
p4516
I1
sV418974
p4517
I1
sV155192
p4518
I1
sV20226904
p4519
I1
sV23523124
p4520
I1
sV20194691
p4521
I1
sV17369680
p4522
I1
sV23523387
p4523
I1
sV23523229
p4524
I1
sV36992892
p4525
I1
sV23523381
p4526
I1
sV21700962
p4527
I1
sV6599910
p4528
I1
sV31635423
p4529
I2
sV16702710
p4530
I1
sV8528349
p4531
I2
sV11960409
p4532
I2
sV23523418
p4533
I1
sV23523411
p4534
I1
sV26350
p4535
I1
sV12169644
p4536
I1
sV475233
p4537
I2
sV156428
p4538
I1
sV264189
p4539
I1
sV13714
p4540
I1
sV35568660
p4541
I1
sV23523367
p4542
I1
sV23523315
p4543
I1
sV23523319
p4544
I1
sV956106
p4545
I1
sV23522795
p4546
I1
sV24650416
p4547
I2
sV196493
p4548
I1
sV23522980
p4549
I2
sV36354932
p4550
I1
sV23522985
p4551
I1
sV22742
p4552
I1
sV23522988
p4553
I1
sV23523358
p4554
I1
sV13036229
p4555
I1
sV4307644
p4556
I1
sV8528300
p4557
I2
sV8528635
p4558
I2
sV21758819
p4559
I2
sV23523353
p4560
I1
sV13550861
p4561
I1
sV36990120
p4562
I1
sV1068230
p4563
I1
sV23523007
p4564
I1
sV23523003
p4565
I1
sV31613
p4566
I1
sV3986130
p4567
I1
sV49033
p4568
I1
sV6865793
p4569
I1
sV8528251
p4570
I1
sV8528319
p4571
I1
sV4037035
p4572
I1
sV197274
p4573
I1
sV35215076
p4574
I1
sV23523170
p4575
I1
sV31064997
p4576
I1
sV23523072
p4577
I1
sV35893223
p4578
I1
sV1732164
p4579
I1
sV14694092
p4580
I1
sV152623
p4581
I1
sV202584
p4582
I1
sV4318918
p4583
I1
sV15624586
p4584
I2
sV416953
p4585
I1
sV18516910
p4586
I1
sV36516639
p4587
I1
sV7692130
p4588
I1
sV23523355
p4589
I1
sV26901564
p4590
I1
sV33443283
p4591
I1
sV195295
p4592
I1
sV22693879
p4593
I1
sV6614349
p4594
I1
sV4050729
p4595
I1
sV33690397
p4596
I1
sV28357294
p4597
I1
sV4849238
p4598
I1
sV2212957
p4599
I1
sV27850
p4600
I1
sV36995004
p4601
I1
sV28517605
p4602
I2
sV8920423
p4603
I2
sV3874010
p4604
I2
sV23523329
p4605
I1
sV23523322
p4606
I2
sV4143172
p4607
I1
sV20226396
p4608
I1
sV8528384
p4609
I1
sV304064
p4610
I1
sV224915
p4611
I1
sV411951
p4612
I2
sV23522977
p4613
I1
sV36979028
p4614
I1
sV31220183
p4615
I1
sV21308661
p4616
I1
sV240127
p4617
I1
sV4308184
p4618
I1
sV101521
p4619
I1
sV30427771
p4620
I1
sV8528230
p4621
I2
sV9517830
p4622
I1
sV31467566
p4623
I1
sV8528212
p4624
I1
sV24457106
p4625
I1
sV5554
p4626
I1
sV316656
p4627
I1
sV2685269
p4628
I1
sV20846142
p4629
I2
sV25923896
p4630
I1
sV23522818
p4631
I1
sV23523136
p4632
I1
sV23523132
p4633
I1
sV457618
p4634
I1
sV22210655
p4635
I1
sV23803009
p4636
I1
sV8528674
p4637
I1
sV26254474
p4638
I1
sV8028391
p4639
I1
sV23523398
p4640
I1
sV66599
p4641
I1
sV23523395
p4642
I1
sV507342
p4643
I1
sV4780974
p4644
I1
sV23522868
p4645
I1
sV395477
p4646
I1
sV265059
p4647
I1
sV23971105
p4648
I1
sV23523401
p4649
I1
sV23523408
p4650
I1
sV2010174
p4651
I1
sV45445
p4652
I1
sV24991592
p4653
I1
sV22042724
p4654
I1
sV27854472
p4655
I1
sV31488259
p4656
I1
sV23523363
p4657
I1
sV35732089
p4658
I1
sV23523245
p4659
I1
sV28207284
p4660
I1
sV5079615
p4661
I1
sV34585913
p4662
I1
sV5079207
p4663
I1
sV36979263
p4664
I1
sV21304415
p4665
I1
sV4612245
p4666
I1
sV1717684
p4667
I1
sV16036651
p4668
I1
sV9703
p4669
I1
sV29938353
p4670
I1
sV6236356
p4671
I2
sV30831822
p4672
I1
sV14094649
p4673
I1
sV400989
p4674
I1
sV25560111
p4675
I1
sV31585282
p4676
I1
sV25616973
p4677
I1
sV23522924
p4678
I1
sV2951258
p4679
I1
sV23522928
p4680
I1
sV1280458
p4681
I1
sV3702202
p4682
I1
sV25274245
p4683
I2
sV29759115
p4684
I1
sV1379331
p4685
I1
sV8528242
p4686
I1
sV1819766
p4687
I1
sV20846707
p4688
I1
sV23678
p4689
I1
sV2016505
p4690
I1
sV1108628
p4691
I1
sV8973495
p4692
I1
sV21564241
p4693
I1
sV4320127
p4694
I1
sV36992240
p4695
I1
sV23523106
p4696
I1
sV34534224
p4697
I1
sV8528624
p4698
I1
sV15048335
p4699
I1
sV8528628
p4700
I1
sV28254009
p4701
I1
sV1158788
p4702
I1
sV1951461
p4703
I1
sV232937
p4704
I1
sV50982
p4705
I1
sV36181854
p4706
I1
sV5878362
p4707
I1
sV28685870
p4708
I1
sV3943139
p4709
I1
sV548102
p4710
I1
sV3543477
p4711
I1
sV9033
p4712
I1
sV8936156
p4713
I1
sV9070698
p4714
I1
sV4019290
p4715
I1
sV23523339
p4716
I1
sV36426464
p4717
I1
sV56114
p4718
I2
sV23523336
p4719
I1
sV23523334
p4720
I1
sV40375
p4721
I1
sV156964
p4722
I1
sV36120328
p4723
I1
sV5174623
p4724
I1
sV23522966
p4725
I1
sV23522960
p4726
I1
sV4557455
p4727
I1
sV20598041
p4728
I1
sV21708001
p4729
I1
sV9215618
p4730
I1
sV14314537
p4731
I1
sV5529014
p4732
I1
sV5079796
p4733
I1
sV309221
p4734
I1
sV23523299
p4735
I1
sV140968
p4736
I1
sV7481621
p4737
I1
sV8528613
p4738
I1
sV36994662
p4739
I1
sV28685
p4740
I1
sV882845
p4741
I1
sV6121445
p4742
I1
sV8528194
p4743
I1
sV21501041
p4744
I1
sV23522919
p4745
I1
sV36992207
p4746
I1
sV24985751
p4747
I2
sV23523025
p4748
I1
sV8528298
p4749
I1
sV23523021
p4750
I1
sV382924
p4751
I1
sV774572
p4752
I11
sV1039393
p4753
I1
sV29720472
p4754
I1
sV27309722
p4755
I1
sV66997
p4756
I1
sV8528685
p4757
I1
sV12536716
p4758
I1
sV7630531
p4759
I1
sV10891264
p4760
I1
sV23522871
p4761
I1
sV16017459
p4762
I1
sV23522994
p4763
I1
sV18994037
p4764
I1
sV152296
p4765
I4
sV34401877
p4766
I1
sV5696063
p4767
I1
sV36975712
p4768
I1
sV23522810
p4769
I1
ss.