(lp0
Vjampilot
p1
aVangeldeb82
p2
aVdajf
p3
aVmaunus
p4
aVal-andalusi
p5
aVticklewickleukulele
p6
aVjcrules
p7
aVmiguelemejia
p8
aVjmyrlefuller
p9
aVponyo
p10
aVpatapsco913
p11
aVwcquidditch
p12
aVbigears42
p13
aVstevey7788
p14
aVcassianto
p15
aVcaringtype1
p16
aVasdfgh
p17
aVschuminweb
p18
aVgvnayr
p19
aVedmon74
p20
aVjonkerz
p21
aVxpto
p22
aVjamesam
p23
aVchetvorno
p24
aVthefarix
p25
aVkaran1974
p26
aVnightscream
p27
aVcarrite
p28
aVthree-quarter-ten
p29
aVgcstackmoney
p30
aVmichael5046
p31
aVamlnet49
p32
aVdadaneem
p33
aVzonafan39
p34
aVvik-thor
p35
aVinevercry
p36
aVprimehunter
p37
aVswistertwister
p38
aVdainomite
p39
aVeeekster
p40
aVminiapolis
p41
aVnabla
p42
aVkatharineamy
p43
aVevaders99
p44
aVvipersnake151
p45
aVspacepotato
p46
aVravichandar84
p47
aVmaclean25
p48
aVgeorgelouis
p49
aVkdammers
p50
aVkoavf
p51
aVtvoz
p52
aVdavejohnsan
p53
aVa31lover
p54
aVinvertzoo
p55
aVhectormoffet
p56
aVtitodutta
p57
aVvsmith
p58
aVkissoffire
p59
aVevan1975
p60
aVnoname2
p61
aVdcirovic
p62
aVbollyjeff
p63
aVfisherqueen
p64
aVbobrayner
p65
aVacwbuff276
p66
aVjytdog
p67
aVhulmem
p68
aVlugia2453
p69
aVthakaran
p70
aVshadowranger
p71
aVlquilter
p72
aVfrance3470
p73
aVpburka
p74
aVjun19
p75
aVofficer781
p76
aVqworty
p77
aVchrisrus
p78
aVthespecialuser
p79
aVshipguy
p80
aVkupirijo
p81
aVgoingbatty
p82
aVfuturist110
p83
aVcawylie
p84
aVstylteralmaldo
p85
aVaymatth2
p86
aVamanwithnoplan
p87
aVjonridinger
p88
aVwareh
p89
aVhertz1888
p90
aVnonenmac
p91
aVjayemd
p92
aVjoannaserah
p93
aVkaiketsu
p94
aVgene93k
p95
aVattys
p96
aVhugosworld92
p97
aVwikidemon
p98
aVmedeis
p99
aVbjenks
p100
a.