(dp0
S'Cadwaladr'
p1
(dp2
V22504
p3
I1
sV89775
p4
I1
sV23878
p5
I1
sV5658
p6
I1
sV23206
p7
I1
sV16489070
p8
I2
sV18093
p9
I1
sV1170995
p10
I1
sV31085401
p11
I1
sV16253826
p12
I1
sV18449273
p13
I1
sV352733
p14
I2
sV4465464
p15
I1
sV231065
p16
I2
sV19914843
p17
I2
sV22704997
p18
I1
sV22076
p19
I1
sV175531
p20
I1
sV2723752
p21
I1
sV17011
p22
I5
sV2981230
p23
I1
sV7053
p24
I1
sV54317
p25
I2
sV13193885
p26
I1
sV22734912
p27
I1
sV17132648
p28
I1
sV5038134
p29
I2
sV7682366
p30
I1
sV367585
p31
I1
sV72227
p32
I1
sV2340343
p33
I2
sV11109808
p34
I1
sV2734725
p35
I1
sV2228434
p36
I1
sV70369
p37
I1
sV251485
p38
I1
sV31752
p39
I1
sV1449827
p40
I2
sV286012
p41
I2
sV2460
p42
I1
sV54048
p43
I1
sV33550
p44
I1
sV45597
p45
I1
sV43536
p46
I1
sV179572
p47
I1
sV18451040
p48
I2
sV1388325
p49
I2
sV18213
p50
I3
sV11579
p51
I1
sV711997
p52
I1
sV1814699
p53
I1
sV855220
p54
I1
sV160575
p55
I1
sV761313
p56
I1
sV14992
p57
I1
sV5068752
p58
I1
sV3769379
p59
I1
sV4823890
p60
I1
sV402750
p61
I1
sV9429158
p62
I1
sV12415416
p63
I1
sV7316
p64
I2
sV22830375
p65
I1
sV330091
p66
I1
sV3217530
p67
I1
sV83537
p68
I4
sV284163
p69
I1
sV13149979
p70
I1
sV1095160
p71
I1
sV372920
p72
I1
sV180362
p73
I3
sV45503
p74
I4
sV716765
p75
I1
sV25013517
p76
I1
sV621845
p77
I1
sV185083
p78
I1
sV2004204
p79
I1
sV323592
p80
I1
sV318215
p81
I1
sV16890
p82
I1
sV25067088
p83
I1
sV59701
p84
I1
sV2909
p85
I3
sV15920
p86
I1
sV536767
p87
I1
sV19128855
p88
I1
sV14457
p89
I1
sV3173054
p90
I2
sV12984
p91
I1
sV89251
p92
I1
sV27650538
p93
I1
sV302068
p94
I2
sV11438045
p95
I1
sV4749651
p96
I1
sV38257
p97
I2
sV74321
p98
I1
sV2443993
p99
I2
sV50477
p100
I2
sV586075
p101
I1
sV195216
p102
I1
sV1966185
p103
I1
sV289795
p104
I1
sV4675402
p105
I1
sV270445
p106
I3
sV142123
p107
I1
sV333496
p108
I1
sV18307589
p109
I2
sV169409
p110
I2
sV26301156
p111
I1
sV23618119
p112
I1
sV47628
p113
I1
sV43619
p114
I2
sV14129466
p115
I9
sV33153
p116
I4
sV952214
p117
I1
sV1467228
p118
I1
sV8286923
p119
I1
sV29570267
p120
I1
sV44403
p121
I1
sV22861361
p122
I1
sV16808
p123
I2
sV24721900
p124
I2
sV14775
p125
I2
sV523770
p126
I1
sV7499159
p127
I2
sV5489
p128
I1
sV20347
p129
I5
sV249326
p130
I1
sV2341363
p131
I6
sV5853545
p132
I1
sV20545
p133
I5
sV996192
p134
I1
sV4804207
p135
I1
sV2405253
p136
I1
sV25432731
p137
I1
sV797291
p138
I2
sV18717883
p139
I3
sV600841
p140
I2
sV380741
p141
I2
sV472278
p142
I1
sV14283
p143
I1
sV29381
p144
I1
sV10243986
p145
I1
sV407847
p146
I1
sV33306
p147
I1
sV22385461
p148
I2
sV3208905
p149
I1
sV13554
p150
I1
sV65178
p151
I3
sV23704557
p152
I2
sV256611
p153
I1
sV21231
p154
I4
sV783023
p155
I1
sV32203923
p156
I1
sV19859
p157
I5
sV75515
p158
I1
sV25015033
p159
I1
sV23857044
p160
I1
sV287991
p161
I1
sV17199866
p162
I1
sV1589081
p163
I1
sV73212
p164
I1
sV28165728
p165
I1
sV1101633
p166
I1
sV119247
p167
I1
sV313530
p168
I2
sV9324
p169
I2
sV46356
p170
I1
sV854
p171
I1
sV20611083
p172
I2
sV1555636
p173
I1
sV1524606
p174
I2
sV152833
p175
I1
sV15038191
p176
I1
sV38011
p177
I3
sV462490
p178
I1
sV3363
p179
I1
sV292279
p180
I2
sV1281022
p181
I1
sV25447
p182
I2
sV2689
p183
I1
sV6786927
p184
I1
sV3212
p185
I9
sV859747
p186
I1
sV34226
p187
I1
sV2763571
p188
I1
sV27122
p189
I1
sV25169562
p190
I1
sV19590
p191
I2
sV4925
p192
I1
sV14834691
p193
I4
sV161013
p194
I1
sV12366
p195
I1
sV64235
p196
I2
sV145096
p197
I1
sV4166493
p198
I1
sV420661
p199
I4
sV19916686
p200
I1
sV27737946
p201
I1
sV200966
p202
I4
sV2273121
p203
I1
sV140807
p204
I1
sV4724491
p205
I2
sV173400
p206
I1
sV22984
p207
I1
sV37782
p208
I2
sV2559629
p209
I1
sV2270846
p210
I1
sV203785
p211
I1
sV1623
p212
I1
sV195306
p213
I1
sV4399
p214
I3
sV11258
p215
I4
sV1614244
p216
I1
sV2566958
p217
I1
sV26779
p218
I1
sV783
p219
I1
sV14208
p220
I2
sV34932571
p221
I1
sV6359
p222
I1
sV2750170
p223
I2
sV43380
p224
I4
sV500451
p225
I1
sV24307192
p226
I1
sV376898
p227
I1
sV146573
p228
I1
sV21442111
p229
I1
sV207190
p230
I1
sV519666
p231
I1
sV29969
p232
I6
sV49892
p233
I2
sV65433
p234
I3
sV30864931
p235
I1
sV21327279
p236
I1
sV3979684
p237
I1
sV27737940
p238
I1
sV17238114
p239
I2
sV309409
p240
I2
sV274057
p241
I1
sV24502385
p242
I2
sV2938643
p243
I1
sV31309416
p244
I1
sV77414
p245
I1
sV3376492
p246
I1
sV14091
p247
I3
sV149243
p248
I2
sV848561
p249
I1
sV782230
p250
I1
sV390672
p251
I2
sV19308640
p252
I1
sV5269876
p253
I3
sV715193
p254
I1
sV19230710
p255
I1
sV426404
p256
I2
sV3162905
p257
I1
sV680871
p258
I1
sV155117
p259
I4
sV3955536
p260
I1
sV764148
p261
I3
sV234141
p262
I1
sV1597987
p263
I1
sV299461
p264
I1
sV3877024
p265
I1
sV31086707
p266
I1
sV217201
p267
I1
sV1165940
p268
I1
sV25885543
p269
I3
sV23684226
p270
I1
sV8524
p271
I1
sV11236984
p272
I5
sV151585
p273
I1
sV43421
p274
I3
sV199775
p275
I1
sV887147
p276
I1
sV1646294
p277
I1
sV1709766
p278
I1
sV16992
p279
I1
sV14640471
p280
I2
sV10023921
p281
I1
sV13942
p282
I1
sV18701436
p283
I1
sV45324
p284
I1
sV5040937
p285
I2
sV87418
p286
I3
sV62153
p287
I1
sV9792
p288
I2
sV10410626
p289
I1
sV8295096
p290
I2
sV472866
p291
I1
sV26584221
p292
I1
sV28198410
p293
I1
sV6388260
p294
I13
sV6270699
p295
I1
sV2088
p296
I3
sV76959
p297
I1
sV238972
p298
I1
sV22069800
p299
I2
sV23998041
p300
I8
sV1880951
p301
I1
sV23789438
p302
I1
sV14648851
p303
I1
sV36911266
p304
I1
sV2661424
p305
I1
sV1673723
p306
I2
sV470734
p307
I1
sV58880
p308
I2
sV1106818
p309
I2
sV24009433
p310
I1
sV54743
p311
I1
sV13865
p312
I1
sV1762389
p313
I1
sV3567020
p314
I1
sV45159
p315
I1
sV17419097
p316
I1
sV2703758
p317
I3
ssS'fanf'
p318
(dp319
V31797
p320
I2
sV531162
p321
I1
sV28304073
p322
I10
sV529967
p323
I1
sV1162065
p324
I4
sV30056
p325
I1
sV3093466
p326
I2
sV531732
p327
I5
sV3578829
p328
I1
sV531046
p329
I1
sV18155
p330
I2
sV13636
p331
I4
sV100076
p332
I1
sV1759543
p333
I1
sV19461027
p334
I1
sV5103474
p335
I1
sV31089076
p336
I1
sV19019
p337
I1
sV1439939
p338
I2
sV18436536
p339
I1
sV893689
p340
I1
sV2614324
p341
I1
sV78011
p342
I1
sV3402793
p343
I1
sV9896305
p344
I1
sV28587
p345
I1
sV337389
p346
I1
sV375785
p347
I1
sV30990924
p348
I1
sV653998
p349
I10
sV5356051
p350
I1
sV147438
p351
I3
sV30570375
p352
I1
sV23685094
p353
I1
sV48600
p354
I1
sV149848
p355
I2
sV6010
p356
I1
sV14744
p357
I2
sV6549044
p358
I1
sV14097392
p359
I1
sV296074
p360
I4
sV625653
p361
I1
sV5314244
p362
I3
sV297010
p363
I1
sV18932830
p364
I1
sV531733
p365
I1
sV892736
p366
I1
sV23941708
p367
I1
sV1557738
p368
I1
sV32493
p369
I1
sV28308656
p370
I1
sV1104882
p371
I1
sV12684962
p372
I1
sV86344
p373
I4
sV556296
p374
I1
sV9646
p375
I1
sV25673787
p376
I1
sV15020
p377
I1
sV181361
p378
I2
sV531613
p379
I1
sV5218
p380
I1
sV530991
p381
I1
sV309358
p382
I1
sV1195560
p383
I1
sV10677545
p384
I1
sV20624
p385
I2
sV34341
p386
I1
sV23697764
p387
I1
sV585336
p388
I2
sV327523
p389
I1
sV198977
p390
I1
sV34509
p391
I1
sV11797805
p392
I1
sV2360464
p393
I1
sV11178099
p394
I1
sV531760
p395
I1
sV150287
p396
I1
sV17839
p397
I1
sV531566
p398
I2
sV150044
p399
I1
sV240527
p400
I1
sV531688
p401
I1
sV294545
p402
I6
sV34332
p403
I1
sV5879
p404
I2
sV67436
p405
I1
sV180326
p406
I1
sV24484686
p407
I5
sV893561
p408
I1
sV14254136
p409
I1
sV223016
p410
I2
sV29253
p411
I1
sV10251
p412
I4
sV31804
p413
I4
sV8237971
p414
I1
sV1771747
p415
I2
sV11018
p416
I1
sV31803
p417
I1
sV20989785
p418
I1
sV16552524
p419
I1
sV529776
p420
I4
sV2826681
p421
I1
sV498089
p422
I6
sV7968527
p423
I1
sV6484015
p424
I1
sV373721
p425
I1
sV531336
p426
I1
sV4223800
p427
I1
sV55941
p428
I2
sV39434
p429
I1
sV3062858
p430
I1
sV10187530
p431
I2
sV380586
p432
I1
sV2594501
p433
I1
sV24504672
p434
I1
sV531705
p435
I1
sV157265
p436
I2
sV144146
p437
I5
sV28211
p438
I2
sV11600033
p439
I1
sV670570
p440
I5
sV532495
p441
I2
sV1045988
p442
I3
sV43315
p443
I2
sV28684
p444
I1
sV25978572
p445
I1
sV570428
p446
I1
sV23957383
p447
I1
sV531186
p448
I2
sV12197034
p449
I1
sV12663390
p450
I1
sV566484
p451
I2
sV28754352
p452
I1
sV11459078
p453
I1
sV530987
p454
I1
sV1209287
p455
I1
sV9365537
p456
I1
sV52070
p457
I1
sV376723
p458
I1
sV7580554
p459
I1
sV226636
p460
I1
sV40642
p461
I1
sV403357
p462
I3
sV531686
p463
I2
sV1101069
p464
I3
sV478091
p465
I1
sV1631700
p466
I1
sV672127
p467
I1
sV472463
p468
I1
sV4965560
p469
I1
sV28368
p470
I3
sV1845456
p471
I1
sV18005948
p472
I1
sV213462
p473
I1
sV529379
p474
I1
sV480307
p475
I1
ssS'stephanwehner'
p476
(dp477
V178749
p478
I1
sV10017908
p479
I1
sV1609989
p480
I1
sV2262333
p481
I1
sV12548913
p482
I1
sV284925
p483
I1
sV1649321
p484
I2
sV39343
p485
I1
sV4572
p486
I1
sV1026799
p487
I1
sV26471
p488
I1
sV2193537
p489
I1
sV33928241
p490
I2
sV101919
p491
I1
sV9223
p492
I1
sV505449
p493
I1
sV10790339
p494
I1
sV41879
p495
I1
sV509009
p496
I1
sV26421781
p497
I1
sV28168
p498
I1
sV16095
p499
I1
sV47641
p500
I1
sV23550923
p501
I4
sV6184
p502
I1
sV622545
p503
I1
sV1217979
p504
I3
sV64719
p505
I1
sV1678619
p506
I2
sV619925
p507
I1
sV1941523
p508
I1
sV9764107
p509
I1
sV252543
p510
I1
sV446056
p511
I2
sV213202
p512
I1
sV23243880
p513
I1
sV5256974
p514
I1
sV2973673
p515
I1
sV66393
p516
I1
sV797653
p517
I1
sV4054664
p518
I1
sV7055037
p519
I1
sV1283449
p520
I3
sV340867
p521
I1
sV155414
p522
I1
sV3708321
p523
I1
sV17939
p524
I1
sV5044573
p525
I2
sV20646438
p526
I2
sV1572255
p527
I2
sV1471836
p528
I1
sV21289
p529
I1
sV184903
p530
I3
sV256322
p531
I1
sV5524054
p532
I1
sV164910
p533
I1
sV2677564
p534
I1
sV17910885
p535
I1
sV12083679
p536
I3
sV3296177
p537
I1
sV5838658
p538
I1
sV81590
p539
I1
sV18933400
p540
I1
sV36233760
p541
I1
ssS'ke4roh'
p542
(dp543
V5253778
p544
I1
sV758653
p545
I3
sV34813255
p546
I1
sV29773691
p547
I1
sV34684501
p548
I1
sV7253550
p549
I1
sV69955
p550
I1
sV15077149
p551
I1
sV7393343
p552
I1
sV2448088
p553
I4
sV7264531
p554
I1
sV13332651
p555
I1
sV5508817
p556
I6
sV35582111
p557
I1
sV17418486
p558
I1
sV23958326
p559
I4
sV28622
p560
I1
sV19718874
p561
I1
sV307263
p562
I1
sV575575
p563
I1
sV2845999
p564
I2
sV1662886
p565
I1
sV171130
p566
I2
sV33394484
p567
I2
sV34813226
p568
I1
sV1461
p569
I1
sV11979169
p570
I1
sV35245603
p571
I1
sV261987
p572
I1
sV20846650
p573
I1
sV32645713
p574
I1
sV6271370
p575
I2
sV2235023
p576
I1
sV102595
p577
I1
sV1189689
p578
I1
sV1199945
p579
I1
sV34684469
p580
I1
sV711997
p581
I1
sV18612939
p582
I1
sV308915
p583
I1
sV25205811
p584
I3
sV10879587
p585
I2
sV22011721
p586
I1
sV572843
p587
I1
sV363856
p588
I2
sV1796057
p589
I1
sV362987
p590
I2
sV16785068
p591
I1
sV889377
p592
I1
sV382594
p593
I1
sV4465102
p594
I3
sV5874112
p595
I1
sV5557528
p596
I2
sV157222
p597
I1
sV154549
p598
I2
sV12541321
p599
I25
sV1239464
p600
I1
sV20584918
p601
I1
sV16768102
p602
I2
sV13692
p603
I1
sV13756164
p604
I1
sV5301417
p605
I1
sV35787067
p606
I1
sV163395
p607
I6
sV34937541
p608
I1
sV161971
p609
I1
sV35772988
p610
I1
sV7735709
p611
I1
sV186853
p612
I1
sV10541571
p613
I1
sV4026847
p614
I1
sV699247
p615
I1
sV23197167
p616
I2
sV8423780
p617
I1
sV7499420
p618
I1
sV543412
p619
I1
sV30834766
p620
I1
sV611022
p621
I1
sV15030688
p622
I1
sV5859561
p623
I2
sV32665356
p624
I1
sV24490303
p625
I2
sV18563918
p626
I1
sV32853923
p627
I1
sV11675105
p628
I1
sV29130399
p629
I3
sV33079948
p630
I24
sV98350
p631
I1
sV1543262
p632
I2
sV102605
p633
I2
sV2657868
p634
I8
sV34585537
p635
I1
sV2731946
p636
I1
sV57575
p637
I1
sV146151
p638
I1
sV35787073
p639
I1
sV6724462
p640
I1
sV383405
p641
I1
sV25736
p642
I1
sV4241857
p643
I3
sV303
p644
I1
sV20733981
p645
I5
sV69144
p646
I1
sV988975
p647
I41
sV87012
p648
I1
sV5321
p649
I1
sV32807420
p650
I1
sV32853914
p651
I1
sV114759
p652
I1
sV33783
p653
I2
sV25971
p654
I1
sV35738909
p655
I1
sV143890
p656
I3
sV1470787
p657
I1
sV36808426
p658
I1
sV35727550
p659
I1
sV592830
p660
I1
sV33895801
p661
I3
sV12232045
p662
I3
sV34494277
p663
I1
sV6233014
p664
I2
sV33651
p665
I1
sV34169427
p666
I5
sV5226267
p667
I2
sV318516
p668
I2
sV593844
p669
I3
sV33685997
p670
I1
sV25990728
p671
I2
sV35306935
p672
I1
sV25965786
p673
I1
sV79670
p674
I1
sV62345
p675
I2
sV32692615
p676
I2
sV27489177
p677
I1
sV13965157
p678
I6
sV36254084
p679
I1
sV34880949
p680
I1
sV87009
p681
I1
sV104854
p682
I1
sV32899796
p683
I1
sV5720835
p684
I1
sV2829037
p685
I3
sV10226746
p686
I1
sV135203
p687
I3
sV21844254
p688
I1
sV7979583
p689
I1
sV746070
p690
I1
sV940774
p691
I1
sV1717016
p692
I1
sV35484182
p693
I1
sV36254079
p694
I1
sV2491857
p695
I1
sV572830
p696
I1
sV4514305
p697
I2
sV625197
p698
I1
sV801578
p699
I1
sV14960830
p700
I1
sV314626
p701
I1
sV23554820
p702
I2
sV11007252
p703
I1
sV28612895
p704
I1
sV35545674
p705
I1
sV31630387
p706
I1
sV3014842
p707
I2
sV213242
p708
I1
sV6266230
p709
I1
sV1149687
p710
I1
sV1401672
p711
I1
sV8570283
p712
I1
sV2608725
p713
I2
sV33477112
p714
I1
sV33008190
p715
I2
sV27358495
p716
I1
sV31855860
p717
I1
sV5737369
p718
I3
sV336285
p719
I1
sV2407040
p720
I2
sV2829162
p721
I1
sV34684421
p722
I8
sV504394
p723
I1
sV573160
p724
I1
sV19302309
p725
I1
sV2011
p726
I1
sV26764193
p727
I1
sV3009153
p728
I1
sV91740
p729
I3
sV23780234
p730
I1
sV34342752
p731
I1
sV432459
p732
I1
sV16768897
p733
I2
sV34540617
p734
I8
sV8635479
p735
I1
sV185973
p736
I1
sV27629790
p737
I1
sV14977629
p738
I1
sV32853921
p739
I1
sV11524854
p740
I3
sV35740920
p741
I17
sV5510148
p742
I1
sV32718984
p743
I1
sV22554980
p744
I1
sV4282934
p745
I1
sV1970
p746
I1
sV2373169
p747
I1
sV34684521
p748
I1
sV474121
p749
I1
sV34684454
p750
I1
sV710471
p751
I1
sV6522312
p752
I4
sV22411601
p753
I1
sV600624
p754
I1
sV5011504
p755
I1
sV473612
p756
I1
sV2335673
p757
I1
sV74202
p758
I1
sV21844439
p759
I3
sV93566
p760
I1
sV1315426
p761
I1
sV128297
p762
I1
sV14257222
p763
I2
sV2975219
p764
I1
sV2931869
p765
I1
sV91713
p766
I3
sV23035
p767
I1
sV14553883
p768
I3
sV34814879
p769
I1
sV12139185
p770
I1
sV171123
p771
I2
sV21650
p772
I1
sV585576
p773
I3
sV631374
p774
I1
sV3133984
p775
I1
sV34822211
p776
I1
sV5995659
p777
I1
sV4011838
p778
I3
sV4858049
p779
I2
sV295341
p780
I3
sV7362822
p781
I7
sV286478
p782
I3
sV5576664
p783
I2
sV53576
p784
I1
sV6581126
p785
I2
sV13925151
p786
I1
sV173506
p787
I1
sV26947559
p788
I1
sV905957
p789
I4
sV361392
p790
I1
sV22127415
p791
I1
sV5540651
p792
I1
sV36191868
p793
I1
sV199033
p794
I1
sV31392103
p795
I2
sV196523
p796
I3
sV148869
p797
I2
sV21717959
p798
I1
ssS'07bargem'
p799
(dp800
V7870652
p801
I2
sV3085726
p802
I1
sV22971009
p803
I1
sV26616873
p804
I1
sV9896988
p805
I1
sV1642000
p806
I2
sV30440822
p807
I1
sV3415614
p808
I1
sV3690173
p809
I1
sV23596556
p810
I1
sV21086384
p811
I5
sV8048977
p812
I1
sV6083977
p813
I1
sV3331070
p814
I1
sV26410537
p815
I1
sV31418753
p816
I3
sV5975272
p817
I1
sV639926
p818
I1
sV560563
p819
I1
sV16707963
p820
I4
sV31466657
p821
I1
sV2861230
p822
I2
sV8219410
p823
I1
sV2898933
p824
I1
sV27646373
p825
I10
sV31417644
p826
I1
sV26352500
p827
I1
sV31465966
p828
I1
sV15163175
p829
I4
sV84627
p830
I1
sV23088407
p831
I1
sV31496968
p832
I1
sV7660842
p833
I1
sV23834214
p834
I1
sV25789759
p835
I2
sV26616699
p836
I1
sV27965301
p837
I27
sV8219428
p838
I1
sV7998661
p839
I2
sV31455348
p840
I8
sV27830442
p841
I83
sV13928526
p842
I1
sV31477070
p843
I2
sV26698544
p844
I1
sV21508375
p845
I2
sV365376
p846
I1
sV534280
p847
I2
sV2122384
p848
I1
sV31842021
p849
I2
sV31507832
p850
I1
sV1827694
p851
I1
sV34609551
p852
I1
sV7885111
p853
I1
sV31498563
p854
I2
sV27581485
p855
I2
sV27731706
p856
I1
sV3340585
p857
I1
sV539375
p858
I2
sV79508
p859
I1
sV7061437
p860
I1
sV31091121
p861
I1
sV4503223
p862
I1
sV429743
p863
I1
sV27804117
p864
I5
sV3794961
p865
I3
sV32744507
p866
I15
sV31407692
p867
I3
sV5682770
p868
I1
sV31448103
p869
I2
sV31466205
p870
I2
sV3225418
p871
I1
sV12683469
p872
I1
sV31468751
p873
I3
sV8049067
p874
I1
sV27647989
p875
I1
sV1779964
p876
I1
sV27648077
p877
I3
sV31507880
p878
I2
sV1826119
p879
I4
sV5777110
p880
I1
sV31448992
p881
I6
sV3303229
p882
I1
sV8164553
p883
I2
sV3360754
p884
I1
sV27342161
p885
I4
sV27657514
p886
I2
sV23359783
p887
I1
sV31478015
p888
I2
sV23088594
p889
I4
sV771553
p890
I1
sV21747860
p891
I1
sV217536
p892
I5
sV5555879
p893
I1
sV567323
p894
I1
sV4462971
p895
I1
sV1797312
p896
I1
sV3629444
p897
I1
sV8219344
p898
I1
sV11099297
p899
I3
sV8049016
p900
I1
sV1826090
p901
I2
sV27646662
p902
I6
sV32006878
p903
I9
sV8163830
p904
I1
sV23725099
p905
I21
sV23088339
p906
I1
sV3275069
p907
I1
sV35069473
p908
I1
sV240578
p909
I1
sV31459141
p910
I1
sV31476763
p911
I4
sV31459147
p912
I2
sV27680728
p913
I2
sV31456502
p914
I1
sV27590499
p915
I1
sV31405477
p916
I2
sV27590496
p917
I1
sV8049004
p918
I1
sV31081882
p919
I1
sV31497486
p920
I3
sV4294
p921
I1
sV8163741
p922
I1
sV30557220
p923
I1
sV31481647
p924
I3
sV7998162
p925
I1
sV27657632
p926
I2
sV6826248
p927
I1
sV31481524
p928
I1
sV1699417
p929
I1
sV35389443
p930
I1
sV1393019
p931
I1
sV9898341
p932
I1
sV31421074
p933
I7
sV591778
p934
I3
sV5264591
p935
I1
sV9823371
p936
I1
sV20971637
p937
I3
sV33864215
p938
I1
sV4826905
p939
I2
sV8048494
p940
I1
sV27647809
p941
I5
sV1231355
p942
I1
sV1826147
p943
I1
sV8164509
p944
I1
sV23734703
p945
I2
sV11108921
p946
I1
sV79787
p947
I1
sV317001
p948
I1
sV31448597
p949
I1
sV27591617
p950
I8
sV31459160
p951
I2
sV26708799
p952
I1
sV7873246
p953
I1
sV8386244
p954
I1
sV13828
p955
I1
sV25558854
p956
I4
sV9898390
p957
I1
sV31459560
p958
I1
sV27648129
p959
I4
sV26945571
p960
I3
sV10792437
p961
I1
sV31675664
p962
I4
sV27564214
p963
I37
sV3795013
p964
I4
sV8219390
p965
I1
sV31430937
p966
I2
sV6036
p967
I2
sV11824537
p968
I12
ssS'Koman90'
p969
(dp970
V5096279
p971
I1
sV758905
p972
I1
sV71996
p973
I1
sV412205
p974
I1
sV187482
p975
I1
sV4727235
p976
I1
sV929394
p977
I1
sV21128138
p978
I3
sV151799
p979
I1
sV12610483
p980
I1
sV326123
p981
I1
sV27814100
p982
I3
sV15564259
p983
I1
sV278025
p984
I1
sV197489
p985
I1
sV7674562
p986
I2
sV31441675
p987
I2
sV15854175
p988
I27
sV363734
p989
I1
sV473097
p990
I1
sV89388
p991
I3
sV24001304
p992
I2
sV526868
p993
I1
sV2906333
p994
I1
sV748670
p995
I1
sV7670893
p996
I22
sV750830
p997
I6
sV1652437
p998
I6
sV456838
p999
I1
sV23715667
p1000
I1
sV154549
p1001
I1
sV8111362
p1002
I1
sV4047442
p1003
I3
sV7439181
p1004
I1
sV18774429
p1005
I1
sV1351756
p1006
I1
sV2797986
p1007
I1
sV24573
p1008
I1
sV5134242
p1009
I4
sV408072
p1010
I1
sV16090138
p1011
I2
sV536576
p1012
I2
sV4502754
p1013
I1
sV2447806
p1014
I2
sV3190097
p1015
I2
sV27775127
p1016
I2
sV8934260
p1017
I2
sV569005
p1018
I2
sV24001014
p1019
I3
sV304833
p1020
I1
sV18415485
p1021
I1
sV27584121
p1022
I2
sV750854
p1023
I3
sV18399902
p1024
I1
sV16575110
p1025
I2
sV18619278
p1026
I1
sV1861502
p1027
I1
sV9494667
p1028
I6
sV18016796
p1029
I1
sV24755801
p1030
I1
sV18724
p1031
I1
sV5136671
p1032
I7
sV13440573
p1033
I1
sV1004868
p1034
I4
sV2281448
p1035
I2
sV24806506
p1036
I2
sV2281361
p1037
I1
sV468631
p1038
I1
sV23018642
p1039
I7
sV23533163
p1040
I45
sV13340828
p1041
I1
sV32844829
p1042
I18
sV23058553
p1043
I1
sV5442405
p1044
I1
sV2289648
p1045
I3
sV4669804
p1046
I1
sV465434
p1047
I1
sV1164253
p1048
I1
sV2126501
p1049
I1
sV832574
p1050
I1
sV6088510
p1051
I1
sV210892
p1052
I4
sV4453260
p1053
I1
sV10292532
p1054
I1
sV2355379
p1055
I1
sV59695
p1056
I1
sV32242976
p1057
I1
sV17847167
p1058
I1
sV384375
p1059
I1
sV1527679
p1060
I98
sV3160118
p1061
I16
sV2229030
p1062
I1
sV25140600
p1063
I12
sV176595
p1064
I1
sV10062721
p1065
I1
sV32716
p1066
I2
sV28338635
p1067
I1
sV5187493
p1068
I3
sV13440544
p1069
I1
sV7415938
p1070
I1
sV476813
p1071
I1
sV288448
p1072
I1
sV6600912
p1073
I1
sV37563
p1074
I2
sV4046286
p1075
I2
sV15854211
p1076
I30
sV1011484
p1077
I1
sV556778
p1078
I1
sV15854193
p1079
I31
sV32351211
p1080
I12
sV4730032
p1081
I1
sV19133401
p1082
I13
sV770289
p1083
I2
sV24536639
p1084
I4
ssS'ginkgo100'
p1085
(dp1086
V58221
p1087
I1
sV2312328
p1088
I1
sV420456
p1089
I1
sV4787648
p1090
I1
sV102065
p1091
I1
sV92399
p1092
I1
sV538058
p1093
I1
sV19013315
p1094
I1
sV384999
p1095
I1
sV30876330
p1096
I1
sV535805
p1097
I1
sV3011472
p1098
I1
sV33044028
p1099
I5
sV13433313
p1100
I4
sV1555671
p1101
I1
sV83449
p1102
I1
sV80332
p1103
I3
sV21956596
p1104
I1
sV25071854
p1105
I1
sV21466012
p1106
I1
sV23512552
p1107
I1
sV16946852
p1108
I1
sV1494
p1109
I1
sV17896035
p1110
I1
sV288210
p1111
I3
sV1869857
p1112
I1
sV806538
p1113
I2
sV21005792
p1114
I1
sV12667
p1115
I1
sV23963
p1116
I1
sV45936
p1117
I1
sV18568127
p1118
I1
sV286392
p1119
I1
sV149644
p1120
I1
sV2099019
p1121
I1
sV20782785
p1122
I1
sV21848
p1123
I1
sV457905
p1124
I2
sV52000
p1125
I1
sV1190487
p1126
I1
sV4786098
p1127
I1
sV2822
p1128
I1
sV7632
p1129
I1
sV52098
p1130
I1
sV723549
p1131
I1
sV32524511
p1132
I1
sV618991
p1133
I1
sV159856
p1134
I1
sV25152964
p1135
I1
sV390530
p1136
I1
sV10833705
p1137
I1
sV9482
p1138
I1
sV27879822
p1139
I1
sV25114529
p1140
I3
sV28851134
p1141
I1
sV166029
p1142
I2
sV20826
p1143
I1
sV21536939
p1144
I5
sV34185
p1145
I2
sV28289557
p1146
I1
sV20728122
p1147
I1
sV8833400
p1148
I1
sV17077015
p1149
I4
sV888171
p1150
I1
sV30782566
p1151
I1
sV15731061
p1152
I1
sV16197637
p1153
I1
sV4901146
p1154
I1
sV3707072
p1155
I1
sV675277
p1156
I1
sV351269
p1157
I2
sV10445002
p1158
I2
sV4757087
p1159
I1
sV48362
p1160
I1
sV24242235
p1161
I1
sV33075848
p1162
I1
sV73165
p1163
I2
sV24742969
p1164
I1
sV17077516
p1165
I2
sV559292
p1166
I1
sV5160010
p1167
I1
sV17159479
p1168
I1
sV547154
p1169
I1
sV1792890
p1170
I1
sV10568177
p1171
I1
sV685428
p1172
I1
sV3097810
p1173
I1
sV17215813
p1174
I1
sV16197646
p1175
I1
sV694740
p1176
I1
sV624912
p1177
I1
sV16277070
p1178
I2
sV2333116
p1179
I1
sV30717701
p1180
I1
sV24737975
p1181
I1
sV19471303
p1182
I1
sV57713
p1183
I1
sV1524906
p1184
I2
sV13974541
p1185
I1
sV21373347
p1186
I1
sV27711384
p1187
I1
sV4045760
p1188
I1
sV1341151
p1189
I1
sV5580522
p1190
I2
sV410131
p1191
I1
sV25190699
p1192
I1
sV769166
p1193
I1
sV1771587
p1194
I3
sV234393
p1195
I1
sV19075384
p1196
I1
sV27879599
p1197
I2
sV12256383
p1198
I1
sV6035
p1199
I1
sV200033
p1200
I1
sV8729253
p1201
I1
sV12319758
p1202
I1
sV9776346
p1203
I1
sV14938775
p1204
I1
sV26508916
p1205
I4
sV21496038
p1206
I1
sV15832610
p1207
I12
sV6673432
p1208
I1
sV203182
p1209
I1
sV53951
p1210
I1
sV20728096
p1211
I2
sV619925
p1212
I1
sV15842578
p1213
I1
sV1562000
p1214
I1
sV7168931
p1215
I1
sV513093
p1216
I1
sV2294818
p1217
I1
sV3572371
p1218
I1
sV370268
p1219
I1
sV30703152
p1220
I1
sV259335
p1221
I1
sV647417
p1222
I1
sV20083491
p1223
I1
sV486429
p1224
I1
sV32863484
p1225
I1
sV21956562
p1226
I4
sV456838
p1227
I1
sV82181
p1228
I1
sV28527188
p1229
I2
sV233082
p1230
I1
sV3469533
p1231
I2
sV18529537
p1232
I1
sV24027
p1233
I2
sV288343
p1234
I1
sV11289459
p1235
I1
sV26509386
p1236
I1
sV26509380
p1237
I1
sV25190658
p1238
I1
sV347105
p1239
I1
sV16937878
p1240
I1
sV1861994
p1241
I1
sV19313622
p1242
I2
sV3049456
p1243
I1
sV4273140
p1244
I1
sV27879793
p1245
I2
sV20530746
p1246
I1
sV20530743
p1247
I1
sV6536
p1248
I1
sV707501
p1249
I3
sV17539
p1250
I1
sV15771405
p1251
I3
sV8707438
p1252
I1
sV4447619
p1253
I1
sV32478049
p1254
I1
sV30728117
p1255
I1
sV30717684
p1256
I3
sV25434956
p1257
I1
sV6503360
p1258
I2
sV37789
p1259
I1
sV1241101
p1260
I1
sV16013974
p1261
I3
sV5111123
p1262
I1
sV184342
p1263
I1
sV4003535
p1264
I1
sV27036
p1265
I1
sV2988441
p1266
I1
sV17077506
p1267
I1
sV4080953
p1268
I1
sV11287720
p1269
I1
sV29098462
p1270
I1
sV211941
p1271
I1
sV16493011
p1272
I1
sV215891
p1273
I1
sV1778598
p1274
I1
sV22253888
p1275
I1
sV5193508
p1276
I1
sV16226468
p1277
I1
sV359650
p1278
I2
sV234801
p1279
I1
sV222300
p1280
I1
sV108036
p1281
I1
sV17214443
p1282
I6
sV21802302
p1283
I1
sV151603
p1284
I1
sV300237
p1285
I1
sV415406
p1286
I1
sV23113679
p1287
I1
sV16300881
p1288
I1
sV713933
p1289
I1
sV1699176
p1290
I1
sV378319
p1291
I3
sV2196281
p1292
I1
sV157430
p1293
I1
sV6767747
p1294
I1
sV42076
p1295
I2
sV16458426
p1296
I2
sV28322095
p1297
I2
sV4395648
p1298
I1
sV4354646
p1299
I1
sV22667359
p1300
I1
sV8889903
p1301
I2
sV5751
p1302
I1
sV8530
p1303
I1
sV8531
p1304
I1
sV101965
p1305
I1
sV30717693
p1306
I1
sV25716089
p1307
I2
sV58890
p1308
I1
sV67477
p1309
I1
sV26976058
p1310
I1
sV2511409
p1311
I1
sV622145
p1312
I1
sV309754
p1313
I1
sV62286
p1314
I1
sV694777
p1315
I1
sV10959269
p1316
I1
sV10923102
p1317
I1
sV3706056
p1318
I3
sV32512440
p1319
I1
sV37149
p1320
I1
sV185848
p1321
I1
sV2190792
p1322
I1
sV16493296
p1323
I1
sV2934
p1324
I1
sV21492663
p1325
I1
sV4884363
p1326
I1
sV8331292
p1327
I1
sV21772369
p1328
I1
sV1167483
p1329
I1
sV14274423
p1330
I2
sV1276616
p1331
I1
sV18835541
p1332
I3
sV2523440
p1333
I1
sV2140979
p1334
I1
sV869864
p1335
I1
sV8158530
p1336
I1
sV27879816
p1337
I1
sV1764786
p1338
I1
sV25728976
p1339
I1
sV655563
p1340
I3
sV2810990
p1341
I1
sV1527289
p1342
I1
sV2225073
p1343
I1
sV402247
p1344
I1
sV529953
p1345
I1
sV4988053
p1346
I1
sV4635792
p1347
I1
sV341844
p1348
I2
sV23539285
p1349
I1
sV4065583
p1350
I1
sV1800826
p1351
I1
sV18492290
p1352
I3
sV57179
p1353
I1
sV171216
p1354
I1
sV5552783
p1355
I1
sV22553956
p1356
I1
sV262278
p1357
I1
sV22323903
p1358
I1
sV10611656
p1359
I1
sV20940628
p1360
I1
sV7009303
p1361
I1
sV75173
p1362
I1
sV236339
p1363
I1
sV1269557
p1364
I1
sV88869
p1365
I1
sV5080640
p1366
I1
sV642577
p1367
I1
sV625565
p1368
I1
sV1699242
p1369
I1
sV412114
p1370
I1
sV1248929
p1371
I1
sV12333426
p1372
I1
sV471852
p1373
I2
sV14542509
p1374
I8
sV897576
p1375
I1
sV409978
p1376
I1
sV3123925
p1377
I1
sV13275
p1378
I1
sV999634
p1379
I1
sV20506017
p1380
I1
sV28744473
p1381
I1
sV1171509
p1382
I1
sV15606
p1383
I1
sV39696
p1384
I1
sV765
p1385
I1
sV42446
p1386
I2
sV20076
p1387
I1
sV20656228
p1388
I2
sV23277971
p1389
I1
sV25151213
p1390
I3
sV56253
p1391
I1
sV6527784
p1392
I1
sV63087
p1393
I3
sV16489842
p1394
I1
sV30717754
p1395
I1
sV31620326
p1396
I1
sV29135540
p1397
I1
sV32512451
p1398
I1
sV26304690
p1399
I1
sV28897091
p1400
I2
sV2270767
p1401
I1
sV21326132
p1402
I1
sV17214152
p1403
I1
sV58046
p1404
I1
sV185369
p1405
I1
sV32554813
p1406
I1
sV4850486
p1407
I2
sV32554818
p1408
I1
sV2277688
p1409
I1
sV4777294
p1410
I1
sV45519
p1411
I1
sV24090930
p1412
I1
sV1252
p1413
I1
sV25806
p1414
I1
sV25151208
p1415
I1
sV415293
p1416
I1
sV15624438
p1417
I2
sV16235968
p1418
I1
sV1937
p1419
I1
sV16197626
p1420
I1
sV848457
p1421
I2
sV201304
p1422
I1
sV32554219
p1423
I1
sV33333838
p1424
I1
sV866807
p1425
I2
sV34445109
p1426
I1
sV26570339
p1427
I2
sV127058
p1428
I1
sV25434939
p1429
I3
sV28051437
p1430
I2
sV188018
p1431
I1
sV100730
p1432
I1
sV714268
p1433
I1
sV2598116
p1434
I1
sV31536961
p1435
I1
sV2973296
p1436
I1
sV50601
p1437
I1
sV201017
p1438
I1
sV3439669
p1439
I1
sV27879803
p1440
I1
sV14470168
p1441
I1
sV4709696
p1442
I1
sV16198388
p1443
I2
sV32524525
p1444
I1
sV4109769
p1445
I1
sV32524520
p1446
I1
sV1865123
p1447
I1
sV14065208
p1448
I1
sV18550651
p1449
I1
sV21374882
p1450
I1
sV1328218
p1451
I1
sV893141
p1452
I1
sV3739059
p1453
I1
sV681770
p1454
I1
sV8878962
p1455
I1
sV32524419
p1456
I2
sV405839
p1457
I1
sV18266036
p1458
I1
sV1064372
p1459
I1
sV22550685
p1460
I1
sV267247
p1461
I1
sV48203
p1462
I1
sV1368229
p1463
I1
sV577576
p1464
I1
sV32967702
p1465
I4
sV14573594
p1466
I1
sV15842501
p1467
I1
sV46594
p1468
I1
sV7466
p1469
I1
ssS'warpflyght'
p1470
(dp1471
V15598695
p1472
I2
sV6722435
p1473
I1
sV8072339
p1474
I1
sV8454212
p1475
I3
sV889697
p1476
I7
sV3630457
p1477
I1
sV6911609
p1478
I3
sV8557389
p1479
I2
sV163395
p1480
I1
sV2891685
p1481
I1
sV4936306
p1482
I2
sV14740555
p1483
I1
sV26825
p1484
I1
sV11692305
p1485
I1
sV7450395
p1486
I1
sV2196912
p1487
I2
sV13212778
p1488
I1
sV327786
p1489
I1
sV10705678
p1490
I1
sV1936223
p1491
I1
sV12215456
p1492
I1
sV1684531
p1493
I1
sV3186510
p1494
I1
sV2196857
p1495
I10
sV62761
p1496
I1
sV9739
p1497
I1
sV1856419
p1498
I2
sV7853993
p1499
I1
sV339616
p1500
I1
sV9208454
p1501
I1
sV334876
p1502
I1
sV1660576
p1503
I1
sV36541
p1504
I1
sV109508
p1505
I19
sV310802
p1506
I1
sV651876
p1507
I2
sV517952
p1508
I1
sV7097646
p1509
I7
sV10036866
p1510
I1
sV385467
p1511
I1
sV1529629
p1512
I1
sV475101
p1513
I1
sV4573728
p1514
I4
sV1010280
p1515
I1
sV617947
p1516
I1
sV7471
p1517
I1
sV40594
p1518
I1
sV3138
p1519
I15
sV1027216
p1520
I1
sV61645
p1521
I1
sV3618498
p1522
I1
sV72806
p1523
I1
sV224225
p1524
I1
sV1178217
p1525
I1
sV173394
p1526
I1
sV8753550
p1527
I2
sV115678
p1528
I1
sV1025498
p1529
I1
sV14945828
p1530
I1
sV109900
p1531
I1
sV1215341
p1532
I3
sV536669
p1533
I4
sV3015787
p1534
I21
sV1738919
p1535
I1
sV1863543
p1536
I1
sV3432996
p1537
I1
sV454975
p1538
I4
sV6452
p1539
I1
sV431301
p1540
I1
sV632132
p1541
I1
sV1741022
p1542
I11
sV1258520
p1543
I1
sV391011
p1544
I2
sV8012153
p1545
I1
sV4098593
p1546
I3
sV34327739
p1547
I1
sV13149
p1548
I1
sV95214
p1549
I10
sV146704
p1550
I1
sV232711
p1551
I1
sV14426142
p1552
I5
sV79604
p1553
I1
sV3652354
p1554
I3
sV847661
p1555
I1
sV703561
p1556
I1
sV3998480
p1557
I1
sV1411624
p1558
I1
sV327808
p1559
I2
sV11338590
p1560
I2
sV25536
p1561
I1
sV49603
p1562
I10
sV20557247
p1563
I1
sV3355809
p1564
I1
sV109816
p1565
I1
sV7460657
p1566
I1
sV65580
p1567
I1
sV1539021
p1568
I4
sV784723
p1569
I1
sV1716633
p1570
I1
sV65504
p1571
I1
sV5800885
p1572
I4
sV4936508
p1573
I1
sV12666722
p1574
I1
sV106680
p1575
I1
sV2471093
p1576
I1
sV85023
p1577
I1
sV17549768
p1578
I1
sV160020
p1579
I5
sV109162
p1580
I21
sV879191
p1581
I1
sV505920
p1582
I1
sV3052573
p1583
I2
sV2403518
p1584
I1
sV418558
p1585
I1
sV356074
p1586
I2
sV1603248
p1587
I1
sV122283
p1588
I10
sV9708680
p1589
I1
sV1481564
p1590
I2
sV349335
p1591
I1
sV2375038
p1592
I1
sV654611
p1593
I1
sV3583863
p1594
I1
sV8555844
p1595
I2
sV34846
p1596
I1
sV4157940
p1597
I1
sV11439394
p1598
I1
sV1750033
p1599
I1
sV1138357
p1600
I1
sV1012818
p1601
I1
sV12882237
p1602
I1
sV6839904
p1603
I1
sV1769160
p1604
I1
sV75118
p1605
I1
sV16217079
p1606
I1
sV1122841
p1607
I2
sV805879
p1608
I1
sV143541
p1609
I1
sV1215420
p1610
I1
sV7840016
p1611
I5
sV527084
p1612
I1
sV6597242
p1613
I1
sV17549751
p1614
I1
sV2663092
p1615
I1
sV3998660
p1616
I1
sV25657
p1617
I1
sV109738
p1618
I15
sV8841749
p1619
I1
sV342207
p1620
I1
sV5844481
p1621
I1
sV9096497
p1622
I1
sV461524
p1623
I2
sV38847
p1624
I1
sV9232
p1625
I2
sV37231
p1626
I1
sV2647312
p1627
I1
sV704778
p1628
I9
sV108093
p1629
I1
sV4567001
p1630
I1
sV8550588
p1631
I2
sV13701359
p1632
I1
sV15221398
p1633
I1
sV152534
p1634
I1
sV72357
p1635
I1
sV159063
p1636
I1
sV66460
p1637
I1
sV3828146
p1638
I1
sV1016446
p1639
I1
sV962509
p1640
I1
sV7797981
p1641
I1
sV705068
p1642
I1
sV75478
p1643
I1
sV20110967
p1644
I1
sV3183878
p1645
I1
sV1527679
p1646
I1
sV2058878
p1647
I1
sV1171760
p1648
I1
sV137471
p1649
I1
sV2001664
p1650
I1
sV3773618
p1651
I2
sV3280746
p1652
I2
sV7735733
p1653
I1
sV1128611
p1654
I1
sV6847247
p1655
I1
sV1687023
p1656
I1
sV31396195
p1657
I2
sV4390032
p1658
I1
sV12327
p1659
I1
sV320118
p1660
I1
sV2213191
p1661
I1
sV37671
p1662
I1
sV50399
p1663
I1
sV11692230
p1664
I2
sV110139
p1665
I1
sV959434
p1666
I1
sV3551820
p1667
I1
sV768464
p1668
I1
sV43953
p1669
I4
sV43950
p1670
I10
sV73188
p1671
I14
sV2926287
p1672
I1
sV7090886
p1673
I2
sV1874251
p1674
I1
sV2599087
p1675
I1
sV867489
p1676
I1
sV2173406
p1677
I1
sV8915120
p1678
I1
sV103155
p1679
I1
sV2196968
p1680
I1
sV43795
p1681
I1
sV106653
p1682
I32
sV355908
p1683
I1
sV596911
p1684
I1
sV28486339
p1685
I19
ssS'jokestress'
p1686
(dp1687
V37163625
p1688
I1
sV34911598
p1689
I1
sV37091739
p1690
I1
sV36967179
p1691
I2
sV2386125
p1692
I1
sV37091730
p1693
I1
sV15296435
p1694
I1
sV37016813
p1695
I1
sV37016818
p1696
I1
sV35867248
p1697
I1
sV37133558
p1698
I1
sV37133651
p1699
I1
sV36958481
p1700
I1
sV37133657
p1701
I1
sV37165433
p1702
I1
sV37119841
p1703
I1
sV37083049
p1704
I1
sV37132057
p1705
I1
sV36987480
p1706
I1
sV37166907
p1707
I1
sV37164878
p1708
I1
sV37164871
p1709
I1
sV36987068
p1710
I1
sV37165328
p1711
I1
sV36655621
p1712
I1
sV37165326
p1713
I1
sV37090222
p1714
I7
sV37082814
p1715
I1
sV37082818
p1716
I1
sV36966029
p1717
I1
sV25872274
p1718
I1
sV1161770
p1719
I1
sV29652558
p1720
I1
sV36987981
p1721
I1
sV37131954
p1722
I1
sV37020194
p1723
I1
sV37029945
p1724
I1
sV37162892
p1725
I1
sV37163256
p1726
I1
sV37162894
p1727
I1
sV813666
p1728
I7
sV10897780
p1729
I1
sV36988230
p1730
I1
sV37157861
p1731
I1
sV28248120
p1732
I1
sV37162878
p1733
I1
sV37162873
p1734
I1
sV37162875
p1735
I1
sV36958538
p1736
I1
sV2849636
p1737
I5
sV36967131
p1738
I1
sV37091170
p1739
I1
sV36966035
p1740
I1
sV37016815
p1741
I1
sV37157691
p1742
I1
sV8919813
p1743
I1
sV5867972
p1744
I1
sV37164042
p1745
I1
sV37003684
p1746
I1
sV37003688
p1747
I1
sV37020191
p1748
I2
sV36968662
p1749
I1
sV36968660
p1750
I1
sV37020198
p1751
I1
sV36968668
p1752
I1
sV37131939
p1753
I3
sV37003701
p1754
I1
sV37003702
p1755
I1
sV9732183
p1756
I1
sV37082788
p1757
I1
sV6910317
p1758
I1
sV37160271
p1759
I1
sV36966103
p1760
I1
sV37165368
p1761
I1
sV36966107
p1762
I1
sV36966106
p1763
I1
sV37133560
p1764
I1
sV1534707
p1765
I1
sV37133563
p1766
I1
sV37133566
p1767
I1
sV37003363
p1768
I1
sV36980238
p1769
I1
sV36980233
p1770
I1
sV20968197
p1771
I2
sV37009731
p1772
I1
sV37198955
p1773
I1
sV36967091
p1774
I1
sV37164825
p1775
I1
sV37131942
p1776
I1
sV37159552
p1777
I1
sV37003385
p1778
I1
sV37026264
p1779
I1
sV37026265
p1780
I1
sV36975068
p1781
I1
sV37026261
p1782
I1
sV36958427
p1783
I1
sV36958486
p1784
I1
sV36958423
p1785
I1
sV37009609
p1786
I1
sV36958420
p1787
I1
sV29896926
p1788
I1
sV37008606
p1789
I1
sV37102279
p1790
I6
sV9130643
p1791
I1
sV37102282
p1792
I1
sV37102285
p1793
I1
sV37102287
p1794
I1
sV37163147
p1795
I1
sV13949405
p1796
I2
sV37157958
p1797
I1
sV37157955
p1798
I1
sV37082773
p1799
I1
sV37105259
p1800
I1
sV37103259
p1801
I2
sV37010747
p1802
I1
sV37157677
p1803
I1
sV37163140
p1804
I1
sV37016808
p1805
I1
sV37138991
p1806
I1
sV37157934
p1807
I1
sV37165031
p1808
I3
sV37198166
p1809
I1
sV37165035
p1810
I1
sV1529108
p1811
I1
sV37163123
p1812
I1
sV37159478
p1813
I5
sV37157721
p1814
I1
sV37128841
p1815
I1
sV37003141
p1816
I1
sV44501
p1817
I1
sV37141629
p1818
I1
sV37164866
p1819
I1
sV37164863
p1820
I1
sV36966038
p1821
I1
sV37159516
p1822
I1
sV37159512
p1823
I1
sV37159519
p1824
I1
sV36966037
p1825
I1
sV37163307
p1826
I1
sV37003389
p1827
I1
sV36278310
p1828
I1
sV37082829
p1829
I1
sV70153
p1830
I1
sV10729400
p1831
I1
sV36987124
p1832
I1
sV37164818
p1833
I1
sV1350289
p1834
I2
sV2364890
p1835
I1
sV37159605
p1836
I1
sV37159564
p1837
I1
sV37162883
p1838
I1
sV37159567
p1839
I1
sV37159569
p1840
I1
sV37163063
p1841
I1
sV558512
p1842
I1
sV37157859
p1843
I1
sV37162869
p1844
I1
sV37162900
p1845
I1
sV37162903
p1846
I1
sV37162860
p1847
I1
sV15978332
p1848
I1
sV3186793
p1849
I1
sV37163056
p1850
I1
sV199318
p1851
I1
sV37105227
p1852
I1
sV37157685
p1853
I1
sV37157680
p1854
I1
sV32600810
p1855
I3
sV37159566
p1856
I1
sV744116
p1857
I2
sV366505
p1858
I1
sV36987433
p1859
I1
sV36958424
p1860
I1
sV37091309
p1861
I1
sV37091307
p1862
I1
sV37163937
p1863
I1
sV37091303
p1864
I1
sV15829150
p1865
I1
sV37163112
p1866
I1
sV28064166
p1867
I2
sV37160263
p1868
I1
sV37160260
p1869
I1
sV37160266
p1870
I1
sV1493556
p1871
I1
sV37083183
p1872
I1
sV37163695
p1873
I1
sV12995128
p1874
I1
sV37133577
p1875
I1
sV37160269
p1876
I1
sV37083024
p1877
I1
sV36958429
p1878
I1
sV37003379
p1879
I1
sV25218856
p1880
I4
sV36967086
p1881
I1
sV37131956
p1882
I1
sV37003395
p1883
I1
sV37163434
p1884
I1
sV36958418
p1885
I1
sV36958419
p1886
I1
sV36988246
p1887
I1
sV37163182
p1888
I1
sV36958410
p1889
I1
sV37163187
p1890
I1
sV37164094
p1891
I1
sV37141584
p1892
I1
sV25454225
p1893
I2
sV29621629
p1894
I3
sV13323619
p1895
I1
sV37163236
p1896
I1
sV37105260
p1897
I1
sV36966098
p1898
I1
sV37157966
p1899
I1
sV7595223
p1900
I1
sV37157969
p1901
I1
sV36966096
p1902
I1
sV36958484
p1903
I1
sV5488304
p1904
I1
sV37163095
p1905
I1
sV37141647
p1906
I1
sV36971371
p1907
I1
sV37160188
p1908
I1
sV37160183
p1909
I1
sV36987466
p1910
I1
sV37003137
p1911
I1
sV37141631
p1912
I1
sV37141633
p1913
I1
sV37164890
p1914
I1
sV105980
p1915
I1
sV37165348
p1916
I2
sV37082831
p1917
I1
sV4559602
p1918
I1
sV37131719
p1919
I1
sV104998
p1920
I2
sV37133582
p1921
I1
sV7840349
p1922
I7
sV37016758
p1923
I1
sV37016756
p1924
I1
sV18958659
p1925
I1
sV5246849
p1926
I1
sV37157832
p1927
I1
sV28248175
p1928
I1
sV37157836
p1929
I1
sV37164800
p1930
I1
sV37164804
p1931
I1
sV37159573
p1932
I1
sV37159574
p1933
I1
sV36975045
p1934
I1
sV2031535
p1935
I1
sV37162850
p1936
I1
sV36967115
p1937
I1
sV36967114
p1938
I1
sV37008571
p1939
I1
sV36967110
p1940
I1
sV3258292
p1941
I2
sV37017133
p1942
I1
sV37029934
p1943
I1
sV37166899
p1944
I2
sV37157932
p1945
I1
sV938083
p1946
I1
sV37157936
p1947
I1
sV37003144
p1948
I1
sV7073056
p1949
I1
sV37003140
p1950
I1
sV37011209
p1951
I1
sV37011207
p1952
I1
sV37141635
p1953
I1
sV1829433
p1954
I1
sV37159543
p1955
I1
sV37003133
p1956
I30
sV36987422
p1957
I2
sV37160259
p1958
I1
sV37020150
p1959
I4
sV37083196
p1960
I1
sV99717
p1961
I1
sV37083050
p1962
I1
sV37164792
p1963
I1
sV37164790
p1964
I1
sV36980219
p1965
I6
sV37168072
p1966
I1
sV37168073
p1967
I1
sV9528093
p1968
I1
sV37164847
p1969
I1
sV20026879
p1970
I2
sV37164842
p1971
I1
sV25045051
p1972
I1
sV37165334
p1973
I1
sV37165332
p1974
I1
sV37165333
p1975
I1
sV37082807
p1976
I1
sV167634
p1977
I2
sV36958407
p1978
I1
sV1119888
p1979
I1
sV37164126
p1980
I1
sV37002636
p1981
I1
sV37162840
p1982
I1
sV6916694
p1983
I4
sV37163247
p1984
I1
sV37163325
p1985
I1
sV36958479
p1986
I1
sV1967299
p1987
I1
sV36988225
p1988
I1
sV37157972
p1989
I3
sV36958472
p1990
I1
sV36958474
p1991
I1
sV37020205
p1992
I1
sV37157759
p1993
I1
sV37020200
p1994
I1
sV37091302
p1995
I1
sV9766751
p1996
I1
sV36967121
p1997
I1
sV36967123
p1998
I1
sV21059779
p1999
I4
sV32185672
p2000
I1
sV29600913
p2001
I1
sV37163144
p2002
I1
sV580862
p2003
I1
sV37141654
p2004
I1
sV37020291
p2005
I12
sV37157729
p2006
I1
sV5513185
p2007
I1
sV37157723
p2008
I1
sV37003696
p2009
I1
sV37003699
p2010
I1
sV598919
p2011
I1
sV36968657
p2012
I1
sV37016914
p2013
I1
sV37164883
p2014
I1
sV37163919
p2015
I1
sV37163910
p2016
I1
sV37020742
p2017
I1
sV2116447
p2018
I2
sV11800085
p2019
I1
sV32954499
p2020
I1
sV37015930
p2021
I2
sV4821221
p2022
I1
sV37003356
p2023
I1
sV37003355
p2024
I2
sV37003354
p2025
I1
sV36980227
p2026
I1
sV37157821
p2027
I1
sV37157824
p2028
I1
sV37157829
p2029
I1
sV37198291
p2030
I1
sV37198292
p2031
I1
sV37164837
p2032
I1
sV37164834
p2033
I1
sV531953
p2034
I1
sV27997314
p2035
I1
sV36958537
p2036
I1
sV36958536
p2037
I1
sV36966180
p2038
I1
sV3252766
p2039
I1
sV37038415
p2040
I1
sV36958431
p2041
I1
sV36958432
p2042
I1
sV37164177
p2043
I1
sV37008806
p2044
I1
sV12912332
p2045
I1
sV37162843
p2046
I1
sV198689
p2047
I1
sV37008802
p2048
I1
sV36991870
p2049
I7
sV36958540
p2050
I1
sV5945201
p2051
I1
sV37198187
p2052
I1
sV37163218
p2053
I1
sV36990515
p2054
I1
sV37165157
p2055
I2
sV37165398
p2056
I1
sV72947
p2057
I1
sV37157948
p2058
I1
sV37157949
p2059
I1
sV23534036
p2060
I1
sV151788
p2061
I1
sV37157945
p2062
I1
sV36958545
p2063
I1
ss.