(lp0
Vjampilot
p1
aVangeldeb82
p2
aVdajf
p3
aVmaunus
p4
aVal-andalusi
p5
aVticklewickleukulele
p6
aVjcrules
p7
aVmiguelemejia
p8
aVjmyrlefuller
p9
aVponyo
p10
aVpatapsco913
p11
aVwcquidditch
p12
aVbigears42
p13
aVstevey7788
p14
aVcassianto
p15
aVcaringtype1
p16
aVasdfgh
p17
aVschuminweb
p18
aVgvnayr
p19
aVedmon74
p20
aVjonkerz
p21
aVxpto
p22
aVjamesam
p23
aVchetvorno
p24
aVthefarix
p25
aVkaran1974
p26
aVnightscream
p27
aVcarrite
p28
aVthree-quarter-ten
p29
aVgcstackmoney
p30
aVmichael5046
p31
aVamlnet49
p32
aVdadaneem
p33
aVzonafan39
p34
aVvik-thor
p35
aVinevercry
p36
aVprimehunter
p37
aVswistertwister
p38
aVdainomite
p39
aVeeekster
p40
aVminiapolis
p41
aVnabla
p42
aVkatharineamy
p43
aVevaders99
p44
aVvipersnake151
p45
aVspacepotato
p46
aVravichandar84
p47
aVmaclean25
p48
aVgeorgelouis
p49
aVkdammers
p50
aVkoavf
p51
aVtvoz
p52
aVdavejohnsan
p53
aVa31lover
p54
aVinvertzoo
p55
aVhectormoffet
p56
aVtitodutta
p57
aVvsmith
p58
aVkissoffire
p59
aVevan1975
p60
aVnoname2
p61
aVdcirovic
p62
aVbollyjeff
p63
aVfisherqueen
p64
aVbobrayner
p65
aVacwbuff276
p66
aVjytdog
p67
aVhulmem
p68
aVlugia2453
p69
aVthakaran
p70
aVshadowranger
p71
aVlquilter
p72
aVfrance3470
p73
aVpburka
p74
aVjun19
p75
aVofficer781
p76
aVqworty
p77
aVchrisrus
p78
aVthespecialuser
p79
aVshipguy
p80
aVkupirijo
p81
aVgoingbatty
p82
aVfuturist110
p83
aVcawylie
p84
aVstylteralmaldo
p85
aVaymatth2
p86
aVamanwithnoplan
p87
aVjonridinger
p88
aVwareh
p89
aVhertz1888
p90
aVnonenmac
p91
aVjayemd
p92
aVjoannaserah
p93
aVkaiketsu
p94
aVgene93k
p95
aVattys
p96
aVhugosworld92
p97
aVwikidemon
p98
aVmedeis
p99
aVbjenks
p100
aVxenophrenic
p101
aVsiefkindr
p102
aVplastikspork
p103
aVsuslindisambiguator
p104
aVjunegloom07
p105
aVgimlidotnet
p106
aVboneyard90
p107
aValfietucker
p108
aVsturat
p109
aVcplakidas
p110
aVmedeis
p111
aVllamaal
p112
aVlittlewink
p113
aVthemoviebuff
p114
aVkante4
p115
aVdrttm
p116
aVstigni
p117
aVbenzy19
p118
aVallen3
p119
aVkraxler
p120
aVtimike
p121
aVhelvetica
p122
aVcharlesaaronthompson
p123
aVviriditas
p124
aVallyd
p125
aVnoommos
p126
aVarthur7171
p127
aVmrmoustachemm
p128
aVcresix
p129
aVredrose64
p130
aVswcrowe
p131
aVliamk97
p132
aVwonderwizard
p133
aVlugia2453
p134
aVgobonobo
p135
aVeng66
p136
aVhchc2009
p137
aVsupermarioman
p138
aVybg
p139
aVtimtom27
p140
aVtraveler100
p141
aVgrahamhardy
p142
aVspat
p143
aVsundostund
p144
aVrikster2
p145
aVwoodlot
p146
aVrangoon11
p147
aVaboutmovies
p148
aVtigerboy1966
p149
aVdavidhorman
p150
aVjihadcola
p151
aVkatangais
p152
aVsdpatrolbot
p153
aVfraytel
p154
aVmammalia
p155
aVdemiurge1000
p156
aVinvertzoo
p157
aVmoonraker
p158
aVmcld
p159
aVcirt
p160
aVkiefer.wolfowitz
p161
aVtot-futbol
p162
aVamitchell125
p163
aVsummerphd
p164
aVmagicpiano
p165
aVtheoldjacobite
p166
aVroseohioresident
p167
aVdthomsen8
p168
aVneelix
p169
aVdgg
p170
aVmimich
p171
aVgbern3
p172
aVcityofsilver
p173
aVlobsterthermidor
p174
aVinwind
p175
aVjlee1
p176
aVnlu
p177
aVburbridge92
p178
aVbamse
p179
aVcarolehenson
p180
aVfuturist110
p181
aVsmkolins
p182
aVmichaelqschmidt
p183
aVmikheil
p184
aVthuglife99
p185
aVmarchije
p186
aVjb82
p187
aVgonzaka
p188
aVfletcher
p189
aVwiqi55
p190
aVz105space
p191
aVvsmith
p192
aVguliolopez
p193
aVtassedethe
p194
aVjarble
p195
aVfroid
p196
aVdrmies
p197
aVwassup234
p198
aVjllm06
p199
aVgerhard51
p200
aVpatgallacher
p201
aVbuckshot06
p202
aVagk
p203
aVinsomesia
p204
aVarnoldreinhold
p205
aVpeaceray
p206
aVhzh
p207
aVmedeis
p208
aVstevestrummer
p209
aVjtalledo
p210
aVtech77
p211
aVtriggerhippie4
p212
aVgtwfan52
p213
aVurbannerd
p214
aVpinethicket
p215
aVclarityfiend
p216
aVbman518
p217
aVnikevich
p218
aVjonnybonesjones
p219
aVjennie--x
p220
aVmahmudmasri
p221
aVplastikspork
p222
aVasdfgh
p223
aVthefarix
p224
aVajona1992
p225
aVschwede66
p226
aVtenpoundhammer
p227
aVxpto
p228
aVe4024
p229
aVanomiebot
p230
aVcanadarox11
p231
aVmuboshgu
p232
aVdiannaa
p233
aVmartincollin
p234
aVsp33dyphil
p235
aVkennvido
p236
aVcynwolfe
p237
aVmidnightblueowl
p238
aVdwanyewest
p239
aVmkweise
p240
aVdan56
p241
aVcomatmebro
p242
aVvsmith
p243
aVbraincricket
p244
aVsupermarioman
p245
aVfaizanalivarya
p246
aVmlpearc
p247
aVhansm
p248
aVinstaurare
p249
aVwillness
p250
aVtimeshift9
p251
aVjoshusasori
p252
aVgavbadger
p253
aVandrol
p254
aVrfd
p255
aVnearthezoo
p256
aVtparis
p257
aVnlu
p258
aVfotophest
p259
aVsopher99
p260
aVlzdimitar
p261
aVsummerphd
p262
aVkrtek2125
p263
aVwikhead
p264
aVsturat
p265
aVdrmargi
p266
aVbretonbanquet
p267
aVsvgalbertian
p268
aVprioryman
p269
aVzwarrior2
p270
aVcrboyer
p271
aVfuhghettaboutit
p272
aVninmacer20
p273
aVcmr08
p274
aVstuartyeates
p275
aVbejnar
p276
aVmartingugino
p277
aVjackshestak
p278
aVjohnluisocasio
p279
aVrjn
p280
aVcupco
p281
aVabductive
p282
aVgeraldshields11
p283
aVhorologium
p284
aVl.tak
p285
aVgopurplengold24
p286
aVbetterusername
p287
aVmaterialscientist
p288
aVlaurahale
p289
aVamadscientist
p290
aVdarkwind
p291
aVbrianboulton
p292
aVkerfuffler
p293
aVwassup234
p294
aVslwalsh
p295
aVmpj-dk
p296
aVyeepsi
p297
aVgfhandel
p298
aVblinkman44
p299
aVdjembayz
p300
aVjustice007
p301
aVnightfall87
p302
aVwest.andrew.g
p303
aVhtonl
p304
aVchetvorno
p305
aVewawer
p306
aVmigitgem2009
p307
aVdrdpw
p308
aVgulbenk
p309
aVtonythetiger
p310
aV7&6=thirteen
p311
aVbuzybody
p312
aVdrmicro
p313
aVxaviersc
p314
aVfortguy
p315
aVekem
p316
aVnorthamerica1000
p317
aVmartinpoulter
p318
aVguilhermesoccer
p319
aVwavelength
p320
aVsionk
p321
aVtedderbot
p322
aVsudoghost
p323
aVfeezo
p324
aVboneyard90
p325
aVczarkoff
p326
aVprayerfortheworld
p327
aVjfdwolff
p328
aVianrootbeerdubber
p329
aVirwolfie-
p330
aVjefferythegambler
p331
aVsrich32977
p332
aVgadget850
p333
aVpikolas
p334
aVludde23
p335
aVroyalmate1
p336
aVjojhutton
p337
aVshadowultra
p338
aVlugia2453
p339
aVphmoreno
p340
aVsafehaven86
p341
aVthemeparkgc
p342
aVcatgamer
p343
aVbobster687
p344
aVasmpgmr
p345
aVdepiep
p346
aVkgrad
p347
aVsayerslle
p348
aVbonnie13j
p349
aVveriss1
p350
aVlafuzion
p351
aVwehwalt
p352
aVsenator2029
p353
aVdjjazzyb
p354
aVrtkat3
p355
aVacwbuff276
p356
aVwakari07
p357
aVsmalljim
p358
aVborn2cycle
p359
aVantony-22
p360
aVdough4872
p361
aVmbeychok
p362
aVlguipontes
p363
aVairwolf
p364
aVwikipedical
p365
aVjburlinson
p366
aVthechampionman1234
p367
aVottawahitech
p368
aVvegaswikian
p369
aVgoodday
p370
aVmattythewhite
p371
aVdavidcane
p372
aVx96lee15
p373
aVjonesy702
p374
aVdotsey
p375
aVohwiki
p376
aVmarketdiamond
p377
aVacp2011
p378
aVandysteve
p379
aVbbb23
p380
aVgreat50
p381
aVgsk
p382
aVebaychatter0
p383
aVspanglej
p384
aVandythegrump
p385
aVkirtap92
p386
aVcasliber
p387
aVgyrobo
p388
aVjayron32
p389
aVkoplimek
p390
aVzzyzx11
p391
aVpumpkinsky
p392
aV3family6
p393
aVwonchop
p394
aVjac16888
p395
aVwetdogmeat
p396
aVthetimesareachanging
p397
aVrangoon11
p398
aVfluffernutter
p399
aVscaufape
p400
aVdom497
p401
aVdajf
p402
aVblueboar
p403
aVdialectric
p404
aVhidecchi001
p405
aVcyberpower678
p406
aVurbannerd
p407
aVbanhtrung1
p408
aVschuminweb
p409
aVheadhitter
p410
aVeditore
p411
aVtijfo098
p412
aVcasliber
p413
aVedgepedia
p414
aVfma12
p415
aVdarkwarriorblake
p416
aVgoldringchip
p417
aVxpto
p418
aVbuffs
p419
aVdanjel
p420
aVcarcharoth
p421
aVbkonrad
p422
aVbrownhairedgirl
p423
aVnightscream
p424
aVjojhutton
p425
aVathenean
p426
aVpfhlai
p427
aVmrx
p428
aVsean.hoyland
p429
aVrichiekim
p430
aVarmbrust
p431
aVtermininja
p432
aVfaycal.09
p433
aVanomiebot
p434
aVmichig
p435
aVvjmlhds
p436
aVobtund
p437
aVtffff
p438
aVstemonitis
p439
aVkatharineamy
p440
aVnorden1990
p441
aVbusterd
p442
aVdrkiernan
p443
aVaussielegend
p444
aVdeltaquad
p445
aVkintetsubuffalo
p446
aVrrburke
p447
aVmaybemaybemaybe
p448
aVrodw
p449
aVgreatorangepumpkin
p450
aVstepho-wrs
p451
aVotvis
p452
aVjaellee
p453
aVm2545
p454
aVtwp
p455
aVdormskirk
p456
aVdan56
p457
aVkhazar2
p458
aVpeacemaker67
p459
aVrikster2
p460
aVbobrayner
p461
aVgarik
p462
aVemeraude
p463
aVuriahdan
p464
aVwadesimmiser
p465
aVsf07
p466
aVajmint
p467
aVmelbournestar
p468
aVsaravask
p469
aVjohnluisocasio
p470
aVdrbogdan
p471
aVsrithern
p472
aVtaalverbeteraar
p473
aVguillaume2303
p474
aVfortdj33
p475
aValexgrim
p476
aVbmcln1
p477
aVaymatth2
p478
aVadabowthesecond
p479
aVkeizers
p480
aVvoid2258
p481
aVlugnuts
p482
aValexgreene87
p483
aVskyblueshaun
p484
aVspinningspark
p485
aVpvmoutside
p486
aVcaptainm
p487
aVmuhends
p488
aVlurulu
p489
aVjllm06
p490
aVgoodday
p491
aVsportsmaster
p492
aVbeagel
p493
aVmoocowsrock
p494
aVchanheigeorge
p495
aVnv8200p
p496
aVsirrussellott
p497
aVdismas
p498
aVjowaninpensans
p499
aVihardlythinkso
p500
aVmigitgem2009
p501
aVmhockey
p502
aVhello71
p503
aVtonythetiger
p504
aVfurrysings
p505
aVgeregen2
p506
aValborzagros
p507
aVxaviersc
p508
aVzealous37
p509
aVahunt
p510
aVgilliganfanatic
p511
aVmrbluesky
p512
aVzappaomati
p513
aVillazilla
p514
aVtedderbot
p515
aVthincat
p516
aVthue
p517
aVacp2011
p518
aVspanglej
p519
aVantidiskriminator
p520
aVbyblios
p521
aVsmarojit
p522
aVshyamal
p523
aVmichitaro
p524
aVdutchy85
p525
aVyerevanci
p526
aVpeeky44
p527
aVbluap
p528
aVrobsiej
p529
aVleesw616
p530
aVgyopi
p531
aVvsmith
p532
aVraintheone
p533
aVrosser1954
p534
aVjmorrison230582
p535
aVterraflorin
p536
aVkai445
p537
aVl.willms
p538
aVbonadea
p539
aVsnowded
p540
aVdoc9871
p541
aVdcirovic
p542
aVdthomsen8
p543
aVtobby72
p544
aVjetstreamer
p545
aVykvach
p546
aValexk785
p547
aVwakari07
p548
aVgorobay
p549
aVraymarcbadz
p550
aVdrovethrughosts
p551
aVlmmnhn
p552
aVmarcusbritish
p553
aVholiday56
p554
aVmikenorton
p555
aVgoingbatty
p556
aVubcule
p557
aVdirtlawyer1
p558
aVdencod16
p559
aVkingturtle
p560
aVcodecat
p561
aVquondum
p562
aValienx2009
p563
aVdjembayz
p564
aVjdallen
p565
aVschreyp
p566
aVmeno25
p567
aVblackgaia02
p568
aVallied45
p569
aVsamar
p570
aVgregorb
p571
aVdarkwind
p572
aVdorje108
p573
aVdumbbot
p574
aVgadget850
p575
aVthemightygeneral
p576
aVvitorvicentevalente
p577
aVperidon
p578
aVkwamikagami
p579
aVpdiddyjr
p580
aVaumnamahashiva
p581
aVdutchtreat
p582
aVlomn
p583
aVcollect
p584
aVcmbj
p585
aVbenlisquare
p586
aVmahmudmasri
p587
aVksherin
p588
aVjane023
p589
aVdavykamanzi
p590
aVhectormoffet
p591
aVmaias
p592
aVgrahamhardy
p593
aVjanuary
p594
aV123465421jhytwretpo98721654
p595
aVtikiwont
p596
aVgaga.vaa
p597
aVbrad101
p598
aVwikipeterproject
p599
aVgreenock125
p600
aVjohnindc
p601
aVnorden1990
p602
aVtango
p603
aVblueboar
p604
aVemanwilm
p605
aVboneyard90
p606
aValfietucker
p607
aVwdchk
p608
aVbleudxxxiv
p609
aVthemightygeneral
p610
aVmbush84
p611
aVjarble
p612
aVllamaal
p613
aVjohnsroberts99
p614
aVdutchy85
p615
aVabbyjjj96
p616
aVtexianpolitico
p617
aVpdiddyjr
p618
aVdsp13
p619
aVfairlyoddparents1234
p620
aVnarutolovehinata5
p621
aVvivafilipinas
p622
aVthefreeloader
p623
aVsuslindisambiguator
p624
aViwannaabillionaire
p625
aVshyamal
p626
aVajona1992
p627
aVclemrutter
p628
aVyerevanci
p629
aVmuhends
p630
aVnoommos
p631
aVmwak
p632
aVcarcharoth
p633
aVborsoka
p634
aVsopher99
p635
aVfabregas0414
p636
aVcossde
p637
aVniemti
p638
aVduckisjammmy
p639
aVcarniolus
p640
aVmarcusbritish
p641
aVeddiev2003
p642
aVmaunus
p643
aVmatthewvanitas
p644
aVgoustien
p645
aVmiddayexpress
p646
aVdjjazzyb
p647
aVnarom
p648
aVbigone01
p649
aVkrystaleen
p650
aVterminator92
p651
aVchipmunkdavis
p652
aVmalcolmxl5
p653
aVmauls
p654
aVtheheronguard
p655
aVdrkiernan
p656
aVkatharineamy
p657
aVmandsford
p658
aVmariordo
p659
aVlinas
p660
aVgilabrand
p661
aVhonortheking
p662
aVmaybemaybemaybe
p663
aVegghead06
p664
aVshaddim
p665
aVomnipaedista
p666
aVymblanter
p667
aVtiyoringo
p668
aV19thpharaoh
p669
aVrjfjr
p670
aVjaellee
p671
aVmagicpiano
p672
aVloopzilla
p673
aVwelsh
p674
aVmar4d
p675
aVdarkwarriorblake
p676
aVvictuallers
p677
aVwardmuylaert
p678
aVdgg
p679
aVbobrayner
p680
aVkhazar2
p681
aVacwbuff276
p682
aVsamar
p683
aVprioryman
p684
aValexk785
p685
aVmasem
p686
aVbrunoptsem
p687
aVdawnbtvs
p688
aVsmalljim
p689
aVsteel
p690
aVhadger
p691
aVvivvt
p692
aVsmarojit
p693
aVbeagel
p694
aVjohnluisocasio
p695
aVstephenmusic
p696
aVcplakidas
p697
aVtimike
p698
aVsupasun
p699
aVsarastro1
p700
aVpajfarmor
p701
aVrewf12012
p702
aVgoustien
p703
aVstillwaterising
p704
aVdjjazzyb
p705
aVrunehelmet
p706
aVjarble
p707
aVsnowded
p708
aVmiguelemejia
p709
aVmdann52
p710
aVbd2412
p711
aVjmabel
p712
aVpinethicket
p713
aVbman518
p714
aVjennie--x
p715
aVfdutil
p716
aVfanofpopmusic
p717
aVjcarls1
p718
aVjohn
p719
aVshelfskewed
p720
aVdanbarnesdavies
p721
aVaumnamahashiva
p722
aVxpto
p723
aVstfg
p724
aVmcphail
p725
aVmyownworst
p726
aVmichig
p727
aVcresix
p728
aVwbm1058
p729
aVjmh649
p730
aVrosiestep
p731
aVnandt1
p732
aVwilliamje
p733
aVtangotizerwolfstone
p734
aVborsoka
p735
aVhzh
p736
aVobi2canibe
p737
aVnhsavage
p738
aVmrceleb2007
p739
aVhomagetocatalonia
p740
aVarmbrust
p741
aVhchc2009
p742
aVanomiebot
p743
aVmc32
p744
aVhahc21
p745
aVsimuliid
p746
aVterminator92
p747
aVsadalsuud
p748
aVkatharineamy
p749
aVeneville
p750
aVtheopolisme
p751
aVlfstevens
p752
aVjimfbleak
p753
aVkokoro20
p754
aVgreenock125
p755
aVtrivialist
p756
aVnlu
p757
aV1zackman
p758
aVbonnie13j
p759
aVdlv999
p760
aVaussielegend
p761
aVkintetsubuffalo
p762
aVheadstrong4ever
p763
aVomnipaedista
p764
aVfaolin42
p765
aVskepticalraptor
p766
aVrail88
p767
aVechetusxe
p768
aVwoslinker
p769
aVhistory2007
p770
aVphiltro
p771
aVxguilex
p772
aVsatyrtn
p773
aVmalcolmxl5
p774
aVjaellee
p775
aViniced
p776
aVlinas
p777
aVmadgeographer
p778
aVpdtantisocial
p779
aVytfc23
p780
aVpfa
p781
aVbobrayner
p782
aVanguswoof
p783
aVbuzybody
p784
aVzozo2kx
p785
aVkumioko
p786
aValexk785
p787
aVmariomassone
p788
aVguillaumetell
p789
aViliochori
p790
aVsmalljim
p791
aVdenniss
p792
aVottawahitech
p793
aVjustice007
p794
aVburbridge92
p795
aVabsurdist1968
p796
aVmrpenguin20
p797
aVross4587
p798
aVtoddst1
p799
aVpjotrmahh1
p800
aVdencod16
p801
aVjeffhardyred
p802
aVfasouzafreitas
p803
aVdormskirk
p804
aVskyblueshaun
p805
aVskysmith
p806
aVsnappy
p807
aVnonenmac
p808
aVmartinvillafuerte85
p809
aVgoodday
p810
aVbluemoonset
p811
aVpichpich
p812
aVglrx
p813
aVnouniquenames
p814
aVscjessey
p815
aVpietaster
p816
aVhgb1217
p817
aVkaiketsu
p818
aVnearthezoo
p819
aVyeepsi
p820
aVeditorofthewiki
p821
aVsupportstorm
p822
aVmatej1234
p823
aVhansm
p824
aVbigar
p825
aVbentels
p826
aVhike395
p827
aVpigsonthewing
p828
aVtedderbot
p829
aVtempo21
p830
aVknowledgekid87
p831
aVmhockey
p832
aVbbb23
p833
aVsmokefoot
p834
aVtyp932
p835
aVulric1313
p836
aVbahnfrend
p837
aVboneyard90
p838
aVmaunus
p839
aVhiddenstranger
p840
aVeraserhead1
p841
aVbrianwc
p842
aVssilvers
p843
aVtrekkielo
p844
aVhammersoft
p845
aVyerevanci
p846
aVasmazif
p847
aVrichardmills65
p848
aVgyrobo
p849
aVrursus
p850
aVaspects
p851
aVdavid1217
p852
aVpamd
p853
aVdjjazzyb
p854
aVsoap
p855
aVjohnsroberts99
p856
aVjsjsjs1111
p857
aVmartinp1
p858
aVukexpat
p859
aVtimike
p860
aVrasnaboy
p861
aVmusiclover
p862
aVhippietrail
p863
aVlamro
p864
aVmichaelwuzthere
p865
aVvis-a-visconti
p866
aVrmallett
p867
aVyerevanci
p868
aVsalih
p869
aVhtonl
p870
aVbigmorr
p871
aVarthur7171
p872
aVludde23
p873
aVcancun771
p874
aVrichardmills65
p875
aVfabregas0414
p876
aVdizagaox
p877
aVbishonen
p878
aVwebclient101
p879
aVnightscream
p880
aVsaddhiyama
p881
aVedokter
p882
aVicebrotherhood
p883
aVpfhorrest
p884
aViqual
p885
aVtgcp
p886
aVgregjackp
p887
aVlasius
p888
aVfma12
p889
aVdmacks
p890
aVmonni95
p891
aVvvven
p892
aVkudzuvine
p893
aVnite-sirk
p894
aVschissel
p895
aVtijfo098
p896
aVmarcusbritish
p897
aVmrpenguin20
p898
aVeldumpo
p899
aVkatharineamy
p900
aVguillaumetell
p901
aVsimuliid
p902
aVtabarez
p903
aVbinksternet
p904
aVcaponer
p905
aVgabeiglesia
p906
aVhiddenstranger
p907
aVr-41
p908
aVjavadhidden
p909
aVdavidhorman
p910
aValexynho
p911
aVanguswoof
p912
aVsrich32977
p913
aVrivertorch
p914
aVweglinde
p915
aVarsenalkid700
p916
aVhalmstad
p917
aVkokoro20
p918
aVmalcolmxl5
p919
aVmjroots
p920
aVfrietjes
p921
aVmrt3366
p922
aVdcirovic
p923
aVbobrayner
p924
aVacwbuff276
p925
aVemeraude
p926
aVsamar
p927
aVsf07
p928
aVsufur222
p929
aVnightfall87
p930
aVajmint
p931
aVrgloucester
p932
aVjustice007
p933
aVrangoon11
p934
aVelectriccatfish2
p935
aVngebendi
p936
aVjowaninpensans
p937
aVdriftwooddrwho
p938
aVktr101
p939
aVmikheil
p940
aVdusanbasic
p941
aVastros4477
p942
aVvalenciano
p943
aVserendipodous
p944
aVsmalljim
p945
aVfsmatovu
p946
aVegghead06
p947
aVhazhk
p948
aVglimmer721
p949
aVbonkeroo
p950
aVtbrandley
p951
aVgrindtxx
p952
aVmrsc
p953
aV4meter4
p954
aVgibmetal77
p955
aVgoodday
p956
aVslightsmile
p957
aVvivvt
p958
aVtruthanado
p959
aVtylerdurden8823
p960
aVshinkolobwe
p961
aVtrekkielo
p962
aVnaphit
p963
aVwildcherry06
p964
aVdavidcane
p965
aVanomiebot
p966
aVxfansd
p967
aVactivism1234
p968
aVgbern3
p969
aVsysmithfan
p970
aVcs-wolves
p971
aVmaxim
p972
aVmongo
p973
aVzappaomati
p974
aVandrewa
p975
aVpcock
p976
aVedwarddutton
p977
aVceluici
p978
aVbkell
p979
aVstfg
p980
aVkhanassassin
p981
aVrillian
p982
aVsilktork
p983
aVbarcex
p984
aVflax5
p985
aVvitorvicentevalente
p986
aVjaume87
p987
aVkoumz
p988
aVdemiurge1000
p989
aVlittlewink
p990
aVpoeticbent
p991
aVcassianto
p992
aVyeepsi
p993
aVrandomcritic
p994
aVmathsci
p995
aVshyamal
p996
aVe4024
p997
aVpeeky44
p998
aVstemonitis
p999
aVquidam65
p1000
aVhazhk
p1001
aVeagertoddler39
p1002
aVgreatorangepumpkin
p1003
aVwbm1058
p1004
aVegeymi
p1005
aVdjjazzyb
p1006
aVeeekster
p1007
aVamerica789
p1008
aV777sms
p1009
aVaspects
p1010
aVcsurla
p1011
aVredwolf
p1012
aVpenbat
p1013
aVsteelbeard1
p1014
aVxdcdx
p1015
aVironholds
p1016
aVhammersoft
p1017
aVeditor2020
p1018
aVajona1992
p1019
aVstfg
p1020
aVyerevanci
p1021
aVanomiebot
p1022
aVylee
p1023
aVchetvorno
p1024
aVarthur7171
p1025
aVwester
p1026
aVfortguy
p1027
aVedokter
p1028
aVwilliamje
p1029
aVniemti
p1030
aViznorepeat
p1031
aVhzh
p1032
aVlfstevens
p1033
aVimzadi1979
p1034
aVsarahstierch
p1035
aVjfhjr
p1036
aVenochbethany
p1037
aVrobinclay
p1038
aVtffff
p1039
aVmilborneone
p1040
aVsimuliid
p1041
aVkconwiki
p1042
aVkoorosh1234
p1043
aVdrkiernan
p1044
aVtheopolisme
p1045
aVgavbadger
p1046
aVdamwiki1
p1047
aVra0808
p1048
aVthomas.w
p1049
aVesw01407
p1050
aVgeorgelouis
p1051
aVjmorrison230582
p1052
aVspeedfish
p1053
aVscaryspoofy1
p1054
aVkintetsubuffalo
p1055
aValbertsm
p1056
aVruigeroeland
p1057
aVwoslinker
p1058
aVnd4su
p1059
aVhex
p1060
aVflowerpotman
p1061
aVmjroots
p1062
aVnightwolf87
p1063
aVmonni95
p1064
aVshrike
p1065
aVbovineboy2008
p1066
aVotvis
p1067
aVjohnnymrninja
p1068
aVjbrown23
p1069
aVguillaumetell
p1070
aVfigureskatingfan
p1071
aVnightfall87
p1072
aVfry1989
p1073
aVamalthea
p1074
aVkto288
p1075
aVjohnluisocasio
p1076
aVdawgdeputy
p1077
aVsobreira
p1078
aVgoingbatty
p1079
aV29ah
p1080
aVdirtlawyer1
p1081
aVcourtneybonnick
p1082
aVthunderbrand
p1083
aVaymatth2
p1084
aVnicat49
p1085
aVtenebrae
p1086
aVserendipodous
p1087
aVtigerboy1966
p1088
aVsjones23
p1089
aVrivertorch
p1090
aVtassedethe
p1091
aVw163
p1092
aVyngvadottir
p1093
aVceluici
p1094
aVwassup234
p1095
aVsirrussellott
p1096
aVrhaworth
p1097
aValexmcfire
p1098
aVpumpkinsky
p1099
aVfavonian
p1100
aVjustice007
p1101
aVjowaninpensans
p1102
aVmediocrevisitor
p1103
aVfredddie
p1104
aVcatpath
p1105
aVbrianboru10
p1106
aVbluemoonset
p1107
aVthricecube
p1108
aVgeregen2
p1109
aVaprock
p1110
aVjoneastham
p1111
aVbuzybody
p1112
aVsamar
p1113
aVkibiusa
p1114
aVactivism1234
p1115
aVmrx
p1116
aVmongo
p1117
aVehrenkater
p1118
aVvalentfred
p1119
aVillazilla
p1120
aVdom497
p1121
aVunscintillating
p1122
aVnorden1990
p1123
aVhurricanehink
p1124
aVraynevandunem
p1125
aVbob1960evens
p1126
aVmercurywoodrose
p1127
aVczarkoff
p1128
aVjohnsroberts99
p1129
aVdemiurge1000
p1130
aVnirvana2013
p1131
aVdsp13
p1132
aVde728631
p1133
aVmuhends
p1134
aVglacier109
p1135
aVmudwater
p1136
aVsalih
p1137
aVthefarix
p1138
aVmauls
p1139
aVbrownhairedgirl
p1140
aVjhunterj
p1141
aVmastcell
p1142
aVswcrowe
p1143
aVzigzig20s
p1144
aVbbb23
p1145
aVloginnigol
p1146
aVtrinitresque
p1147
aVldavid1985
p1148
aVr-41
p1149
aVdeinocheirus
p1150
aVthryduulf
p1151
aVmiguelemejia
p1152
aVracklever
p1153
aVprolog
p1154
aVmandsford
p1155
aVdantasu
p1156
aVomnipaedista
p1157
aVweglinde
p1158
aVisaacl
p1159
aVmimich
p1160
aVtitodutta
p1161
aVhomunq
p1162
aVfreewaydan
p1163
aVlinas
p1164
aVdormskirk
p1165
aVmrt3366
p1166
aVtangotizerwolfstone
p1167
aVgoalway
p1168
aVbheuninckx
p1169
aVsethjohnson95
p1170
aVelectriccatfish2
p1171
aVtinman44
p1172
aVmitchazenia
p1173
aVwonchop
p1174
aVmikheil
p1175
aVdementia13
p1176
aVastros4477
p1177
aVjjl
p1178
aVnick.mon
p1179
aVlugnuts
p1180
aVmistymorn
p1181
aVallen3
p1182
aVcpl123
p1183
aVgibmetal77
p1184
aVgoodday
p1185
aVdreadstar
p1186
aValeksanderpc
p1187
aVerik
p1188
aVpietaster
p1189
aVsubman758
p1190
aVdzlinker
p1191
aVparutakupiu
p1192
aVrossdegenstein
p1193
aVmartinpoulter
p1194
aVceegee
p1195
aVshearonink
p1196
aVxfansd
p1197
aVjip
p1198
aVpigsonthewing
p1199
aVoknazevad
p1200
aVwhispertome
p1201
aVangeldeb82
p1202
aVjsjsjs1111
p1203
aVboson
p1204
aValfietucker
p1205
aVhebrides
p1206
aVmedeis
p1207
aVr-41
p1208
aVdjjazzyb
p1209
aVaspects
p1210
aVthibbs
p1211
aVdsp13
p1212
aVredwolf
p1213
aVyankees10
p1214
aVhex
p1215
aVstfg
p1216
aVj04n
p1217
aVasmazif
p1218
aVnoommos
p1219
aVmagicpiano
p1220
aVthrissel
p1221
aVtfunk
p1222
aVjhunterj
p1223
aVjayron32
p1224
aVwilliamje
p1225
aVjedi94
p1226
aVblackmetalbaz
p1227
aVshortride
p1228
aVsarahstierch
p1229
aVgauravjuvekar
p1230
aVdalbster
p1231
aVnite-sirk
p1232
aVcavarrone
p1233
aVanomiebot
p1234
aVgrahamcolm
p1235
aVdcirovic
p1236
aVsimuliid
p1237
aVlittlewink
p1238
aVsitush
p1239
aVeditor2020
p1240
aVjoeloeb
p1241
aVmauls
p1242
aVnorthernthunder
p1243
aVmilborneone
p1244
aVtheopolisme
p1245
aVvipersnake151
p1246
aVra0808
p1247
aVplayer017
p1248
aVmiguelemejia
p1249
aVakatheflake
p1250
aVprolog
p1251
aVboleyn
p1252
aVobi-wankenobi-2005
p1253
aVkoavf
p1254
aVhillock65
p1255
aVcorkman
p1256
aVhistory2007
p1257
aVabhishekitmbm
p1258
aVmiddayexpress
p1259
aVhuon
p1260
aVylee
p1261
aVedokter
p1262
aVmrt3366
p1263
aVkante4
p1264
aVedgar181
p1265
aVkirrages
p1266
aVhandsomefella
p1267
aVbeeblebrox
p1268
aVjklamo
p1269
aVjonnybonesjones
p1270
aVhmich176
p1271
aVbuzybody
p1272
aVswampyank
p1273
aVvernowhitney
p1274
aVmr.98
p1275
aVjasonbres
p1276
aVmrx
p1277
aVmichaelqschmidt
p1278
aVswcrowe
p1279
aVcatpath
p1280
aVoskar71
p1281
aVaymatth2
p1282
aVtenebrae
p1283
aVlfstevens
p1284
aVcolin
p1285
aVdormskirk
p1286
aVmarnetted
p1287
aVallen3
p1288
aVw163
p1289
aVwilliamb
p1290
aVgiants2008
p1291
aVwanderer602
p1292
aVwassup234
p1293
aVdger
p1294
aVjmorrison230582
p1295
aVyeepsi
p1296
aVtodorov-fin
p1297
aVaa2-2004
p1298
aVadamdeanhall
p1299
aVbmcln1
p1300
aVankhmorpork
p1301
aViarxphd
p1302
aVnaphit
p1303
aVtgcp
p1304
aVhyphz
p1305
aVbeagel
p1306
aVshearonink
p1307
aVjbribeiro1
p1308
aVlugnuts
p1309
aVtokyogirl79
p1310
aVobelixus
p1311
aVrolfmueller
p1312
aVdirtlawyer1
p1313
aVcazort
p1314
aVblack60dragon
p1315
aVmattythewhite
p1316
aVnoboyo
p1317
aVsionk
p1318
aVtijfo098
p1319
aVstanning
p1320
aVham
p1321
aVoknazevad
p1322
aVbarryjjoyce
p1323
aVnyctc7
p1324
aVkiwipat
p1325
aVpatapsco913
p1326
aVrwendland
p1327
aVsander.v.ginkel
p1328
aVjip
p1329
aVwbm1058
p1330
aVtangotizerwolfstone
p1331
aVozzieboy
p1332
aVarmbrust
p1333
aVpumpkinsky
p1334
aVmartingugino
p1335
aVldavid1985
p1336
aVsamev
p1337
aVvoceditenore
p1338
aVloginnigol
p1339
aVantidiskriminator
p1340
aVkoorosh1234
p1341
aVdoncram
p1342
aVtigerboy1966
p1343
aVfairlyoddparents1234
p1344
aVsasata
p1345
aVz22
p1346
aVerlik.khan
p1347
aVsrgangsta
p1348
aVshrike
p1349
aVshelfskewed
p1350
aVellsworthsk
p1351
aVpdtantisocial
p1352
aVkanguole
p1353
aVcartoondiablo
p1354
aVomdo
p1355
aVmannanan51
p1356
aVconnormah
p1357
aVwnt
p1358
aVbheuninckx
p1359
aVradiohist
p1360
aVnermalthebunny
p1361
aVchadwholovedme
p1362
aVrog5728
p1363
aVmaile66
p1364
aVastros4477
p1365
aVuishaki
p1366
aVsaget53
p1367
aVtassedethe
p1368
aVelectriccatfish2
p1369
aVtbrandley
p1370
aVgoodday
p1371
aVkirill95
p1372
aVrasho992
p1373
aVxnatedawgx
p1374
aVpimaster3
p1375
aVbluemoonset
p1376
aVillazilla
p1377
aVcarolehenson
p1378
aVaozm
p1379
aVsirrussellott
p1380
aVjohnluisocasio
p1381
aVsethjohnson95
p1382
aVgoalway
p1383
aVrat2
p1384
aVczarkoff
p1385
aVsobreira
p1386
aVpenbat
p1387
aVkevmin
p1388
aVmartarius
p1389
aVeeekster
p1390
aVajona1992
p1391
aVyerevanci
p1392
aVcrgreathouse
p1393
aVbrianboru10
p1394
aVigoldste
p1395
aVcailil
p1396
aVsturat
p1397
aVniemti
p1398
aVjaf1970
p1399
aVproducer
p1400
aVapteva
p1401
aVyomangani
p1402
aVmatthewvanitas
p1403
aVmelanien
p1404
aVwars
p1405
aVraintheone
p1406
aVthewellman
p1407
aVtdl1060
p1408
aVnightwolf87
p1409
aVsadalsuud
p1410
aVthardin12
p1411
aVdough4872
p1412
aVkconwiki
p1413
aVserendipodous
p1414
aVpkeets
p1415
aVthryduulf
p1416
aVburningclean
p1417
aVgoudzovski
p1418
aVgeorgelouis
p1419
aVkhestwol
p1420
aVtearaway
p1421
aVrasnaboy
p1422
aVceegee
p1423
aVhomunq
p1424
aVmjroots
p1425
aVnk3play2
p1426
aVrivertorch
p1427
aVsecretaria
p1428
aVvioletriga
p1429
aVnapoliroma
p1430
aVjbrown23
p1431
aVquiddity
p1432
aVmikheil
p1433
aVcraigboy
p1434
aVpburka
p1435
aVtdslk
p1436
aVcreativity97
p1437
aVspeedfish
p1438
aVhazhk
p1439
aVdawnseeker2000
p1440
aVpigsonthewing
p1441
aVenochbethany
p1442
aVfavonian
p1443
aVjanuary
p1444
aVjoneastham
p1445
aVmartinpoulter
p1446
aViantresman
p1447
aVsriharsh1234
p1448
aVanimate
p1449
aVmongo
p1450
aVjoefromrandb
p1451
aVelizium23
p1452
aVwoslinker
p1453
aVmercurywoodrose
p1454
aVamerica789
p1455
aVtriggerhippie4
p1456
aVepa101
p1457
aVchu86happychu
p1458
aVhmains
p1459
aVesw01407
p1460
aVcantaloupe2
p1461
aVotvis
p1462
aVxdcdx
p1463
aVironholds
p1464
aVehrenkater
p1465
aVhammersoft
p1466
aVchetvorno
p1467
aVarthur7171
p1468
aVwester
p1469
aVfortguy
p1470
aVbogdangiusca
p1471
aVhzh
p1472
aVmarcusbritish
p1473
aVimzadi1979
p1474
aVjustforfun
p1475
aVtffff
p1476
aVjotamar
p1477
aVkto288
p1478
aVdrkiernan
p1479
aVdamwiki1
p1480
aVdanlaycock
p1481
aVthomas.w
p1482
aVgeregen2
p1483
aVjmarchn
p1484
aVscaryspoofy1
p1485
aVflowerpotman
p1486
aVjohnnymrninja
p1487
aVguillaumetell
p1488
aVnightfall87
p1489
aVfigureskatingfan
p1490
aVjustice007
p1491
aVraymarcbadz
p1492
aVamalthea
p1493
aVgoingbatty
p1494
aVcourtneybonnick
p1495
aVthunderbrand
p1496
aVsjones23
p1497
aVyngvadottir
p1498
aVkintetsubuffalo
p1499
aVmatej1234
p1500
aVbil
p1501
aVrexxs
p1502
aValexmcfire
p1503
aVjowaninpensans
p1504
aVmediocrevisitor
p1505
aVfredddie
p1506
aVfry1989
p1507
aVsamar
p1508
aVkibiusa
p1509
aVcsurla
p1510
aVvalentfred
p1511
aVeagertoddler39
p1512
aVhurricanehink
p1513
aVraynevandunem
p1514
aVbbb23
p1515
aVegeymi
p1516
aVnorden1990
p1517
aVdemiurge1000
p1518
aVnirvana2013
p1519
aVde728631
p1520
aVsteelbeard1
p1521
aVsalih
p1522
aVmastcell
p1523
aValbertsm
p1524
aViznorepeat
p1525
aVnicat49
p1526
aVmandsford
p1527
aVrobinclay
p1528
aVdreadstar
p1529
aVgavbadger
p1530
aVjohnsroberts99
p1531
aVrhaworth
p1532
aVerik
p1533
aVweglinde
p1534
aVruigeroeland
p1535
aVgreatorangepumpkin
p1536
aVmimich
p1537
aVtitodutta
p1538
aVnd4su
p1539
aVlinas
p1540
aVactivism1234
p1541
aVmonni95
p1542
aVjfhjr
p1543
aVbovineboy2008
p1544
aVdom497
p1545
aVbob1960evens
p1546
aVdawgdeputy
p1547
aVsubman758
p1548
aVtinman44
p1549
aVmitchazenia
p1550
aV29ah
p1551
aVdementia13
p1552
aVjjl
p1553
aVmistymorn
p1554
aVisaacl
p1555
aVgibmetal77
p1556
aVdzlinker
p1557
aVrossdegenstein
p1558
aVunscintillating
p1559
aVdantasu
p1560
aVthricecube
p1561
aVnick.mon
p1562
aVaprock
p1563
aVceluici
p1564
aValeksanderpc
p1565
aVmudwater
p1566
aVthemightygeneral
p1567
aVbmclaughlin9
p1568
aVelockid
p1569
aVperidon
p1570
aVsmarojit
p1571
aVm.mario
p1572
aVthebigjagielka
p1573
aVrothorpe
p1574
aVglacier109
p1575
aVmuhends
p1576
aVthefarix
p1577
aVbrownhairedgirl
p1578
aVhiddenstranger
p1579
aV(ca)giacobbe
p1580
aVmmekayhagan
p1581
aVzigzig20s
p1582
aVinterlude65
p1583
aVandreabrantes99
p1584
aVgsk
p1585
aVmzilikazi1939
p1586
aVjdc808
p1587
aVtrinitresque
p1588
aVdeinocheirus
p1589
aVracklever
p1590
aVgiggett
p1591
aVtmazhindu
p1592
aVomnipaedista
p1593
aVcomputerja
p1594
aVseric2
p1595
aVbullrangifer
p1596
aVuriahdan
p1597
aVsnapsnap
p1598
aVvssun
p1599
aVwindharp
p1600
aVironholds
p1601
aVrjensen
p1602
aVbmcz123
p1603
aVcapitalsasha
p1604
aVnick.mon
p1605
aVmercurywoodrose
p1606
aVrasho992
p1607
aVtriggerhippie4
p1608
aVkante4
p1609
aVpdiddyjr
p1610
aVmarkhh
p1611
aVpinethicket
p1612
aVm.mario
p1613
aVkiefer.wolfowitz
p1614
aVfruitmonkey
p1615
aVcwmhiraeth
p1616
aVxpto
p1617
aVstfg
p1618
aVveblenbot
p1619
aVjcarls1
p1620
aVbrownhairedgirl
p1621
aVcarcharoth
p1622
aVaozm
p1623
aVswcrowe
p1624
aVdergraaf
p1625
aVsuslindisambiguator
p1626
aV84user
p1627
aVsimuliid
p1628
aVozzieboy
p1629
aVyomangani
p1630
aVgreenock125
p1631
aVpamd
p1632
aVcambalachero
p1633
aVinfamousprince
p1634
aVxnatedawgx
p1635
aVdexdor
p1636
aVrossdegenstein
p1637
aVeditor2020
p1638
aVmeatsgains
p1639
aVjoeloeb
p1640
aVsundostund
p1641
aVtbrandley
p1642
aVr-41
p1643
aVrangoon11
p1644
aVsw2nd
p1645
aVbasalisk
p1646
aVtentonparasol
p1647
aVcodecat
p1648
aVkansascity
p1649
aVboleyn
p1650
aVkoavf
p1651
aVarticlesforcreationbot
p1652
aVreathough45
p1653
aVjfhjr
p1654
aVceegee
p1655
aVsphilbrick
p1656
aVnid.29
p1657
aVocdnctx
p1658
aVhex
p1659
aVxboxandhalo2
p1660
aVsarnold17
p1661
aVdjharrity
p1662
aVmattias321
p1663
aVbleaney
p1664
aValexf
p1665
aVbobrayner
p1666
aVbuzybody
p1667
aVyahia.barie
p1668
aVuriahdan
p1669
aVcrakkerjakk
p1670
aVgeorgelouis
p1671
aVkondi
p1672
aVbob1960evens
p1673
aVdenisarona
p1674
aVcarolehenson
p1675
aValansplodge
p1676
aVelphion
p1677
aVsjeans
p1678
aVdirtlawyer1
p1679
aVastros4477
p1680
aVnoq
p1681
aVlfstevens
p1682
aVcreativity97
p1683
aVzappaomati
p1684
aVvinz57
p1685
aVdormskirk
p1686
aVtraleni
p1687
aVtassedethe
p1688
aVhertz1888
p1689
aVmicromesistius
p1690
aVhhhippo
p1691
aVmatej1234
p1692
aVyeepsi
p1693
aVsirrussellott
p1694
aVanemoneprojectors
p1695
aVfilanca
p1696
aVpatrick0moran
p1697
aVrococo1700
p1698
aVsnori
p1699
aVedencole
p1700
aVbluemoonset
p1701
aVthricecube
p1702
aVebe123
p1703
aVurselius
p1704
aVcpiral
p1705
aVleahtwosaints
p1706
aVtideflat
p1707
aVtango
p1708
aVvalentfred
p1709
aVmattythewhite
p1710
aVjacklee
p1711
aVnoboyo
p1712
aVbrandmeister
p1713
aVgwillhickers
p1714
aVj04n
p1715
aVwbm1058
p1716
aVeagles247
p1717
aVmattaidepikiw
p1718
aVpm800
p1719
aVperidon
p1720
aVstringtheory11
p1721
aVmuboshgu
p1722
aVtraveler100
p1723
aVbfern8788
p1724
aVaymatth2
p1725
aVtdl1060
p1726
aVjim62sch
p1727
aVskilla1st
p1728
aVwilliamje
p1729
aVniemti
p1730
aVproducer
p1731
aVredsky89
p1732
aVkvng
p1733
aVdan56
p1734
aVrougher07
p1735
aVdarorcilmir
p1736
aVtijfo098
p1737
aVcattus
p1738
aVthryduulf
p1739
aVdekimasu
p1740
aVdank
p1741
aVmoscowconnection
p1742
aVguliolopez
p1743
aVaussielegend
p1744
aVnamangwari
p1745
aVhistory2007
p1746
aVrayrayzone
p1747
aVmiddayexpress
p1748
aVdawnseeker2000
p1749
aVniwi3
p1750
aVsvanslyck
p1751
aVning-ning
p1752
aVkeresaspa
p1753
aVbuaidh
p1754
aVwhitearcticwolf
p1755
aVcartoondiablo
p1756
aVbookden
p1757
aVjohnblackburne
p1758
aVconnormah
p1759
aVwillgee
p1760
aVhcobb
p1761
aVvernowhitney
p1762
aVhohho56oy
p1763
aVenemyusuar
p1764
aVmikheil
p1765
aVautomaticstrikeout
p1766
aVcolin
p1767
aVunoquha
p1768
aVbrianboulton
p1769
aVlimonadis
p1770
aVomgosh30
p1771
aVdjembayz
p1772
aVrolfmueller
p1773
aVcavarrone
p1774
aVkoppapa
p1775
aV22dragon22burn
p1776
aVrichard75
p1777
aVcs-wolves
p1778
aVthemoodyblue
p1779
aVcliff1911
p1780
aVsionk
p1781
aVylee
p1782
aVdjjazzyb
p1783
aVmiguelemejia
p1784
aVdhnlin
p1785
aVpi.1415926535
p1786
aVduoduoduo
p1787
aVdoncram
p1788
aVssilvers
p1789
aVde728631
p1790
aVlajbi
p1791
aVriffle
p1792
aVyerevanci
p1793
aVconay
p1794
aVdirektor
p1795
aVnk3play2
p1796
aVeeng
p1797
aVtempo21
p1798
aVjohn
p1799
aVegeymi
p1800
aVtilden76
p1801
aVrmashhadi
p1802
aVkeith-264
p1803
aVmikemor92
p1804
aVantidiskriminator
p1805
aVsadalsuud
p1806
aVymblanter
p1807
aVfluffernutter
p1808
aVtigerboy1966
p1809
aVthebirdlover
p1810
aVbondegezou
p1811
aVcharlesdrakew
p1812
aVarsenalkid700
p1813
aVcamboxer
p1814
aVmjroots
p1815
aVadamdeanhall
p1816
aVwilfridselsey
p1817
aVmisterbee1966
p1818
aVantony-22
p1819
aVnihonjoe
p1820
aVqworty
p1821
aVjohnluisocasio
p1822
aVnightwolf87
p1823
aVfrecklefoot
p1824
aVtimidguy
p1825
aVz105space
p1826
aVsportomanokin
p1827
aVjonnybonesjones
p1828
aVjwad
p1829
aVnjzombie
p1830
aVal-andalusi
p1831
aVankhmorpork
p1832
aVjmh649
p1833
aVkavebear
p1834
aVerik
p1835
aVjustwong
p1836
aVrichhoncho
p1837
aVrtkat3
p1838
aVccs81
p1839
aVsecretlondon
p1840
aVirwolfie-
p1841
aVsethjohnson95
p1842
aVigeminix
p1843
aVbbb23
p1844
aVgamingwithstatoke
p1845
aVbarryjjoyce
p1846
aVhebrides
p1847
aVhilo48
p1848
aVhotwiki
p1849
aVkarelj
p1850
aVhowardjwilk
p1851
aVcgtdk
p1852
aVyankees10
p1853
aVhuon
p1854
aVnarcis90
p1855
aVrafaazevedo
p1856
aVtopopmac1
p1857
aVgauravjuvekar
p1858
aVrlendog
p1859
aVpkt
p1860
aVsamev
p1861
aVmaunus
p1862
aVfatidiot1234
p1863
aVisaac.rs200
p1864
aV19thpharaoh
p1865
aVitsmejudith
p1866
aVnoname2
p1867
aVmrt3366
p1868
aVchetvorno
p1869
aVekograf
p1870
aVszyslak
p1871
aVjohnnymrninja
p1872
aVjklamo
p1873
aVsaint0wen
p1874
aVvlas2000
p1875
aVmkweise
p1876
aVwhispertome
p1877
aVktr101
p1878
aVsitush
p1879
aVv1adis1av
p1880
aVtenpoundhammer
p1881
aVyngvadottir
p1882
aVmsjapan
p1883
aVmiller17cu94
p1884
aVcraiglduncan
p1885
aVzmaher
p1886
aVshubinator
p1887
aVillazilla
p1888
aVritchie333
p1889
aVjunegloom07
p1890
aVdocfaust
p1891
aVloginnigol
p1892
aVkiwipat
p1893
aVjokestress
p1894
aVpoeticbent
p1895
aVcaringtype1
p1896
aVjakob.scholbach
p1897
aVpemilligan
p1898
aVedokter
p1899
aVjedi94
p1900
aVdementia13
p1901
aVmatthewvanitas
p1902
aVstee888
p1903
aVanomiebot
p1904
aVstusutcliffe
p1905
aVtenebrae
p1906
aVsabrebd
p1907
aVjotamar
p1908
aVnd4su
p1909
aVkhazar2
p1910
aVkailash29792
p1911
aVgilderien
p1912
aVclicriffhard
p1913
aVsrich32977
p1914
aVjwillbur
p1915
aValexk785
p1916
aVmasem
p1917
aVjaan
p1918
aVwikiklrsc
p1919
aVhmich176
p1920
aVbejnar
p1921
aVrorshacma
p1922
aVj3mrs
p1923
aVsdpatrolbot
p1924
aVdanlaycock
p1925
aVdenniss
p1926
aVmedeis
p1927
aVzanoni
p1928
aVtfunk
p1929
aVtitodutta
p1930
aVhybernator
p1931
aVopus33
p1932
aVtonythetiger
p1933
aVtedderbot
p1934
aVsturat
p1935
aVhomunq
p1936
aVdafoeberezin3494
p1937
aVepa101
p1938
aVsnapsnap
p1939
aVredwolf
p1940
aVtrekkielo
p1941
aVmartarius
p1942
aVgoldringchip
p1943
aVrursus
p1944
aVcarrite
p1945
aVschwede66
p1946
aVtinman44
p1947
aVdrmargi
p1948
aVswistertwister
p1949
aVsummerphd
p1950
aVscaryspoofy1
p1951
aVgiggett
p1952
aVmbahgondrong
p1953
aVglossologist
p1954
aVomnipaedista
p1955
aVoccamzrazor
p1956
aVhazhk
p1957
aVruigeroeland
p1958
aVrikster2
p1959
aVaspects
p1960
aVsufur222
p1961
aVforfuxake
p1962
aVraymarcbadz
p1963
aVianmacm
p1964
aVmichaelqschmidt
p1965
aVsjones23
p1966
aVlugnuts
p1967
aVbashbrannigan
p1968
aVnuclearwarfare
p1969
aVvankod
p1970
aVpresearch
p1971
aVeurekalott
p1972
aVmultichill
p1973
aVstillwaterising
p1974
aVgreatorangepumpkin
p1975
aVunscintillating
p1976
aVrsocol
p1977
aVeagertoddler39
p1978
aVhmains
p1979
aVacroterion
p1980
aVnoodleki
p1981
aVsmokeybjb
p1982
aVmanxwoman
p1983
aVsarahstierch
p1984
aVmkrestin
p1985
aVsparhelda
p1986
aVmzilikazi1939
p1987
aVnite-sirk
p1988
aVmauls
p1989
aVyahwehsaves
p1990
aValexynho
p1991
aVra0808
p1992
aVdoremo
p1993
aVekki01
p1994
aVdough4872
p1995
aVhoverfish
p1996
aVmaclean25
p1997
aVadavidb
p1998
aVlooie496
p1999
aVrockmagnetist
p2000
aVbuckshot06
p2001
aVflameeyes
p2002
aVmillahnna
p2003
aVwhitewriter
p2004
aVwhispertome
p2005
aVerpert
p2006
aVmtmoore321
p2007
aVmercurywoodrose
p2008
aVtintor2
p2009
aVpaulinho28
p2010
aVthuglife99
p2011
aValansohn
p2012
aVmadgeographer
p2013
aVphoenix7777
p2014
aVgoingbatty
p2015
aVtilden76
p2016
aVsilktork
p2017
aVviriditas
p2018
aVallisonfoley
p2019
aVdarkwarriorblake
p2020
aVglacier109
p2021
aVdemiurge1000
p2022
aVylee
p2023
aVgrahamhardy
p2024
aVtfunk
p2025
aVredrose64
p2026
aVgibmetal77
p2027
aVlugia2453
p2028
aVtentonparasol
p2029
aVmadguy7023
p2030
aVmatthewvanitas
p2031
aVjohn
p2032
aVnoname2
p2033
aVocnative
p2034
aVthorwald
p2035
aVmschiffler
p2036
aVpkt
p2037
aVnarom
p2038
aVletdorf
p2039
aVswistertwister
p2040
aVvjmlhds
p2041
aVk2nr
p2042
aVsokac121
p2043
aVjoeloeb
p2044
aVantidiskriminator
p2045
aVbarek
p2046
aVnorthernthunder
p2047
aVnightwolf87
p2048
aVmuniyankaruppan
p2049
aVwetdogmeat
p2050
aVdoncram
p2051
aVfrailea
p2052
aVgeorgelouis
p2053
aVrogermx
p2054
aV0z
p2055
aVtruthkeeper88
p2056
aVparkwells
p2057
aVtinton5
p2058
aVhuligan0
p2059
aVrms125a@hotmail.com
p2060
aVgusf
p2061
aVmetallurgist
p2062
aVwoslinker
p2063
aVcanadianjudoka
p2064
aVshikuesi3
p2065
aVnecrat
p2066
aVhuon
p2067
aVedokter
p2068
aVmikemor92
p2069
aVmidnightblueowl
p2070
aVsnowmanradio
p2071
aVopenmy
p2072
aVcoolcaesar
p2073
aVbatteryincluded
p2074
aVbeeblebrox
p2075
aVbejnar
p2076
aVgandydancer
p2077
aVbluemario1016
p2078
aVjustice007
p2079
aVnyttend
p2080
aVc.fred
p2081
aVelectriccatfish2
p2082
aVbob1960evens
p2083
aVjohnluisocasio
p2084
aVmikenorton
p2085
aVtrocksuk4415
p2086
aVhkcagu
p2087
aVubcule
p2088
aVbearcat
p2089
aVsmartyllama
p2090
aVhorologium
p2091
aVtigerboy1966
p2092
aVwolfmansf
p2093
aVboneyard90
p2094
aVquondum
p2095
aVdormskirk
p2096
aVjmj713
p2097
aVnelliebly
p2098
aVbluerules
p2099
aVyngvadottir
p2100
aVbielle
p2101
aVwidr
p2102
aVruby2010
p2103
aVbosleytree
p2104
aVpfhlai
p2105
aVgoodday
p2106
aVanomalocaris
p2107
aVvivvt
p2108
aVxnatedawgx
p2109
aVcrimeandpunishment
p2110
aVcomatmebro
p2111
aVasalrifai
p2112
aVwikhead
p2113
aVzagalejo
p2114
aVpietaster
p2115
aVactivism1234
p2116
aVsertmann
p2117
aVkaiketsu
p2118
aVtonythetiger
p2119
aVegeymi
p2120
aVschreyp
p2121
aVmsalmon
p2122
aVdebresser
p2123
aVhotwiki
p2124
aVsirrussellott
p2125
aVdirtlawyer1
p2126
aVlonet
p2127
aVpigsonthewing
p2128
aVwavelength
p2129
aVsevero
p2130
aVboogalouie
p2131
aVronk01
p2132
aVbonadea
p2133
aVal-andalusi
p2134
aVjohnsroberts99
p2135
aVradiojon
p2136
aVgtwfan52
p2137
aVjennie--x
p2138
aVyerevanci
p2139
aVtrekkielo
p2140
aVdavid1217
p2141
aVclemrutter
p2142
aVmuhends
p2143
aVdawnseeker2000
p2144
aVbobrayner
p2145
aVmuboshgu
p2146
aVtomica
p2147
aVelapro
p2148
aVwnt
p2149
aVnullspace
p2150
aVgobonobo
p2151
aVinediblehulk
p2152
aVdadaneem
p2153
aVmaunus
p2154
aVborisbaran
p2155
aVczarkoff
p2156
aVeeekster
p2157
aVmauls
p2158
aVyaris678
p2159
aVe4024
p2160
aVrangoon11
p2161
aVbuffalutheran
p2162
aVkante4
p2163
aVarticlesforcreationbot
p2164
aVchris857
p2165
aVflyer22
p2166
aVcharlesdrakew
p2167
aVamkilpatrick
p2168
aVdabbler
p2169
aVshelfskewed
p2170
aVgrandiose
p2171
aVwest.andrew.g
p2172
aVsmalljim
p2173
aVcarioca
p2174
aVgeni
p2175
aVmattaidepikiw
p2176
aVgimmetoo
p2177
aVfortdj33
p2178
aVjmh649
p2179
aVmathbot
p2180
aVambassadorshras
p2181
aVnonenmac
p2182
aVdj1997
p2183
aVairwolf
p2184
aVirn
p2185
aVjeff5102
p2186
aVottawahitech
p2187
aVgfhandel
p2188
aVfconaway
p2189
aVarpingstone
p2190
aVankhmorpork
p2191
aVeditor2020
p2192
aVtropicalanalystwx13
p2193
aVmentoz86
p2194
aVcasliber
p2195
aVcs-wolves
p2196
aVbenbristol
p2197
aVmgoodyear
p2198
aVschmausschmaus
p2199
aVhebrides
p2200
aVspanglej
p2201
aVanomiebot
p2202
aVstefan2
p2203
aVpoeticbent
p2204
aVhedviberit
p2205
aVfadesga
p2206
aVgrahamcolm
p2207
aVdelaywaves
p2208
aVgathrawnigf
p2209
aVjhunterj
p2210
aVtenofalltrades
p2211
aVacroterion
p2212
aVmattnad
p2213
aVhawkeye7
p2214
aVrschen7754
p2215
aVandythegrump
p2216
aVthetimesareachanging
p2217
aVkatharineamy
p2218
aVnorwegianblue
p2219
aVmorwen
p2220
aVjun19
p2221
aVsamw
p2222
aVmichaelzeng7
p2223
aVacsian88
p2224
aVmaybemaybemaybe
p2225
aVmathewtownsend
p2226
aVunreal7
p2227
aVsector001
p2228
aVchetvorno
p2229
aVjarry1250
p2230
aVdawkeye
p2231
aViqual
p2232
aVlobsterthermidor
p2233
aVjuhachi
p2234
aVgothicfilm
p2235
aVmr.choppers
p2236
aVrosser1954
p2237
aVtomticker5
p2238
aVmarnetted
p2239
aVmartinvillafuerte85
p2240
aVvoidxor
p2241
aVnyar94
p2242
aVbull-doser
p2243
aVbleaney
p2244
aVsethjohnson95
p2245
aVwelsh
p2246
aVraul17
p2247
aVbbb23
p2248
aVccirulli
p2249
aVjj98
p2250
aVlimulus
p2251
aVmitchazenia
p2252
aVbeaucouplusneutre
p2253
aVjynto
p2254
aVcaringtype1
p2255
aVtenpoundhammer
p2256
aVassassin20x
p2257
aVjonathanfu
p2258
aVjmajeremy
p2259
aVhtonl
p2260
aVbamse
p2261
aVcazort
p2262
aVhirolovesswords
p2263
aVironman1104
p2264
aVcerebellum
p2265
aVsminthopsis84
p2266
aVkermanshahi
p2267
aVsarahstierch
p2268
aVmcapdevila
p2269
aVdrkiernan
p2270
aVawiseman
p2271
aVvipersnake151
p2272
aVnlu
p2273
aVtoddsschneider
p2274
aVbmcz123
p2275
aVnid.29
p2276
aVrikster2
p2277
aVfreshcorp619
p2278
aVhattrem
p2279
aVeraserhead1
p2280
aVkeahapana
p2281
aVsowhy
p2282
aVjetblast
p2283
aVfuturist110
p2284
aVmats33
p2285
aVgoodraise
p2286
aVssbbplayer
p2287
aVglimmer721
p2288
aVgiants2008
p2289
aVmdwh
p2290
aVpenbat
p2291
aVedge4life42
p2292
aVevanh2008
p2293
aVtobby72
p2294
aVgraemeleggett
p2295
aVconnormah
p2296
aVthricecube
p2297
aVhu12
p2298
aVvernowhitney
p2299
aVccs81
p2300
aVyeepsi
p2301
aVmattythewhite
p2302
aVillazilla
p2303
aVunscintillating
p2304
aVschuminweb
p2305
aVtwotwohello
p2306
aVmiguelemejia
p2307
aVkoumz
p2308
aVsmartie2thamaxxx
p2309
aVbinksternet
p2310
aVcloptonson
p2311
aVadd92
p2312
aVgolbez
p2313
aVblackcab
p2314
aVeuchrid
p2315
aVswcrowe
p2316
aVevaders99
p2317
aVcatgamer
p2318
aVgiggette
p2319
aVdragonfury
p2320
aVtheroadislong
p2321
aVtheaustinman
p2322
aVjpbowen
p2323
aVmbahgondrong
p2324
aVltvine
p2325
aVjoseolgon
p2326
aVsteamybrian2
p2327
aVwwoods
p2328
aVcambalachero
p2329
aVfred.pendleton
p2330
aVpeacemaker67
p2331
aVnascar1996
p2332
aVmikeymouse10
p2333
aVkapitop
p2334
aVguillaumetell
p2335
aVgaeaman787
p2336
aVwikid77
p2337
aVjlee1
p2338
aVborn2cycle
p2339
aVmeegsc
p2340
aVguillaume2303
p2341
aVmichaelqschmidt
p2342
aVborowskki
p2343
aVdanielrigal
p2344
aVd4nnyw14
p2345
aVkeraunos
p2346
aVbdushaw
p2347
aVpeterl
p2348
aVsnoozlepet
p2349
aVscorpion0422
p2350
aVfavonian
p2351
aVdemirbajraktarevic
p2352
aValfietucker
p2353
aVgreyshark09
p2354
aVdcshank
p2355
aVechetusxe
p2356
aVtvlover96
p2357
aVmjhammerle123
p2358
aVmedeis
p2359
aVrayrayzone
p2360
aVlajbi
p2361
aVjaellee
p2362
aVasdfgh
p2363
aVxpto
p2364
aVveblenbot
p2365
aVjoel7687
p2366
aVjetstreamer
p2367
aVmarcusbritish
p2368
aVjoannaserah
p2369
aVstemonitis
p2370
aVbillcasey905
p2371
aVdeepblue1
p2372
aVpalecloudedwhite
p2373
aVeeng
p2374
aVkconwiki
p2375
aVyahwehsaves
p2376
aVstuharris
p2377
aVzac
p2378
aVlawrlafo
p2379
aVfairlyoddparents1234
p2380
aVapteva
p2381
aVbermicourt
p2382
aVmasem
p2383
aVisleofplan
p2384
aVjbribeiro1
p2385
aVjtrh
p2386
aVxania
p2387
aVskilla1st
p2388
aVcaribdigita
p2389
aVbozmo
p2390
aVtim103093
p2391
aVmadman
p2392
aVagathoclea
p2393
aVjohnbod
p2394
aVbluemoonset
p2395
aVmackensen
p2396
aVbrouhaha
p2397
aVredsky89
p2398
aVwilliamje
p2399
aVsummerphd
p2400
aVcpiral
p2401
aVmrx
p2402
aVdave.dunford
p2403
aVnum1dgen
p2404
aVheadlessmaster
p2405
aVepa101
p2406
aVjdemarcos
p2407
aVmartarius
p2408
aValbertsm
p2409
aVssolbergj
p2410
aVvlas2000
p2411
aVl.tak
p2412
aVbrianboulton
p2413
aVnoboyo
p2414
aViarxphd
p2415
aVesanchez7587
p2416
aVgiantsnowman
p2417
aVcambridgebayweather
p2418
aVperidon
p2419
aVjefferythegambler
p2420
aVyids2010
p2421
aVnoha307
p2422
aVtdl1060
p2423
aVjuventusfan7
p2424
aVsevilledade
p2425
aVi7laseral
p2426
aVwhitearcticwolf
p2427
aVjytdog
p2428
aVquasyboy
p2429
aVraynevandunem
p2430
aVsudoghost
p2431
aVelizium23
p2432
aVmiguelmunoz
p2433
aVmelodia
p2434
aVlookingglass
p2435
aVdoktorbuk
p2436
aVafr12run
p2437
aVinsomesia
p2438
aVponyo
p2439
aVgabeiglesia
p2440
aVbluefire10
p2441
aVandrewdressel
p2442
aVnicivampireheart
p2443
aVjowaninpensans
p2444
aVsirex98
p2445
aVnorth911
p2446
aVnorden1990
p2447
aVhurricanehink
p2448
aVstringtheory11
p2449
aVschwede66
p2450
aVkumioko
p2451
aVnascarking
p2452
aVsufur222
p2453
aVljthefro
p2454
aVfylbecatulous
p2455
aVanonmoos
p2456
aVshark96z
p2457
aVsportin
p2458
aVkraft.
p2459
aVfezmar9
p2460
aVhmains
p2461
aVberbatovsfirsttouch
p2462
aVbkonrad
p2463
aVnoodleki
p2464
aVlondonclanger
p2465
aV1veertje
p2466
aVreedy
p2467
aVarthur7171
p2468
aVmaproom
p2469
aVkephir
p2470
aVsnek01
p2471
aVrougher07
p2472
aVfnlayson
p2473
aVjack1956
p2474
aVymblanter
p2475
aVbrandmeister
p2476
aVomgosh30
p2477
aVdcoetzee
p2478
aVquidster4040
p2479
aVinversehypercube
p2480
aVcartoondiablo
p2481
aVkoshvorlon
p2482
aVtrackinfo
p2483
aVjaga
p2484
aVsecretaria
p2485
aVreedmalloy
p2486
aVcarolehenson
p2487
aVthebigjagielka
p2488
aVss451
p2489
aVadabowthesecond
p2490
aVdavidruben
p2491
aVkelisi
p2492
aVdl2000
p2493
aVyappers1000
p2494
aVeasy4me
p2495
aVinspectortiger
p2496
aVoknazevad
p2497
aVjokestress
p2498
aVomnipaedista
p2499
aVchandlerjoeyross
p2500
aVdimitris1408
p2501
aVironholds
p2502
aVmaunus
p2503
aVpamd
p2504
aVesemgee
p2505
aVperidon
p2506
aVdak4blizzard
p2507
aVwikidan61
p2508
aVlbr123
p2509
aVpinethicket
p2510
aVkubanczyk
p2511
aVmilowent
p2512
aVclausule
p2513
aVjcbettger
p2514
aVmuhends
p2515
aVcarptrash
p2516
aVmalaysiana85
p2517
aVbidgee
p2518
aVsticks66
p2519
aVdcshank
p2520
aVniemti
p2521
aVrickfive
p2522
aVscott5114
p2523
aVdalbster
p2524
aVrlendog
p2525
aVmiddayexpress
p2526
aVanomiebot
p2527
aVjoy
p2528
aVbrookie
p2529
aVnicholas0
p2530
aVrlsheehan
p2531
aVe4024
p2532
aVmaias
p2533
aVstevenmitchell
p2534
aVwlu
p2535
aVcrtew
p2536
aVosplace
p2537
aVwikix
p2538
aVoatley2112
p2539
aVbleaney
p2540
aVipigott
p2541
aVarbazbeckham
p2542
aVthryduulf
p2543
aVsteve03mills
p2544
aVhamiltonstone
p2545
aVmartinvl
p2546
aVsportomanokin
p2547
aVfoobarnix
p2548
aVmabelina
p2549
aVdantasu
p2550
aVceegee
p2551
aVsmokeyjoe
p2552
aVhistory2007
p2553
aVczmarlin
p2554
aVbwmoll3
p2555
aVpmunited
p2556
aVhuon
p2557
aVytfc23
p2558
aVmar4d
p2559
aVericwr
p2560
aVgrahamcolm
p2561
aVbobrayner
p2562
aVjozoisis
p2563
aVfram
p2564
aVemeraude
p2565
aVesowteric
p2566
aVomar-toons
p2567
aVshizhao
p2568
aVjustagal
p2569
aVlmmnhn
p2570
aVjohnluisocasio
p2571
aVyhinz17
p2572
aVjohncd
p2573
aVross4587
p2574
aV1sire
p2575
aVsitush
p2576
aVedorfbir
p2577
aVl.tak
p2578
aVapparition11
p2579
aVqetuth
p2580
aVpeterkingiron
p2581
aVmark91
p2582
aVjesi
p2583
aVraellerby
p2584
aVerrantx
p2585
aVaussielegend
p2586
aVrafy
p2587
aVtbrandley
p2588
aVlappon
p2589
aVkvng
p2590
aVnicivampireheart
p2591
aVrobertgreer
p2592
aVjamesr
p2593
aVd3gtrd
p2594
aVmirada1923
p2595
aValuspha
p2596
aVultrarainbows
p2597
aVrichiekim
p2598
aVmentoz86
p2599
aVsamueltheghost
p2600
aVsindinero
p2601
aVbloom6132
p2602
aVvincelord
p2603
aVzuanzuanfuwa
p2604
aVgregorb
p2605
aVgraham1973
p2606
aVdarkwarriorblake
p2607
aVhike395
p2608
aVtedderbot
p2609
aVjasonbres
p2610
aVczarkoff
p2611
aVsainsf
p2612
aVkaltenmeyer
p2613
aVssilvers
p2614
aVlomn
p2615
aVeleassar
p2616
aVdiannaa
p2617
aVplucas58
p2618
aVkoshvorlon
p2619
aVmoonriddengirl
p2620
aVrunningonbrains
p2621
aVgsk
p2622
aVcambalachero
p2623
aVnoleander
p2624
aVtomica
p2625
aVsoosim
p2626
aVamp71
p2627
aVorangemike
p2628
aVjimfbleak
p2629
aVsyngmung
p2630
aVc0re1980
p2631
aVthomas.w
p2632
aVekograf
p2633
aVbrightstarsky
p2634
aVsm8900
p2635
aVekin
p2636
aVspeedfish
p2637
aVmps
p2638
aVdrbogdan
p2639
aVsk4170
p2640
aVezhiki
p2641
aVvsmith
p2642
aVnikkimaria
p2643
aVshelfskewed
p2644
aVfsmatovu
p2645
aVqwyrxian
p2646
aVd.lazard
p2647
aVsoetermans
p2648
aVholiday56
p2649
aVoskar71
p2650
aVgoodraise
p2651
aVclarkcj12
p2652
aVsladen
p2653
aVekabhishek
p2654
aVwolbo
p2655
aVbluerules
p2656
aVnonenmac
p2657
aVdrmies
p2658
aVoranjblud
p2659
aVbrianboulton
p2660
aVpurrum
p2661
aVrasam
p2662
aVstefan2
p2663
aVcanysp
p2664
aVdbachmann
p2665
aVjohnblackburne
p2666
aVahunt
p2667
aVramblersen
p2668
aVcaptainfugu
p2669
aVnukeofearl
p2670
aVsueisfine
p2671
aVleahtwosaints
p2672
aVcatgamer
p2673
aVmyxomatosis57
p2674
aVdasonnenfeld
p2675
aVebyabe
p2676
aVboz
p2677
aVblueboar
p2678
aVnorden1990
p2679
aVelockid
p2680
aVjafeluv
p2681
aVsp4cetiger
p2682
aVsnorkelman
p2683
aVteammathi
p2684
aVelvenscout742
p2685
aVredparty
p2686
aVhex
p2687
aValexk785
p2688
aVp199
p2689
aVgigs
p2690
aVgabrielkat
p2691
aVmelanien
p2692
aVredsky89
p2693
aVorlady
p2694
aVrhain1999
p2695
aVcresix
p2696
aVudar55
p2697
aVc16sh
p2698
aVstrait
p2699
aVspacejam2
p2700
aVgreatorangepumpkin
p2701
aVhomunq
p2702
aVlotje
p2703
aVpmsyyz
p2704
aVmrniceguy1113
p2705
aVedwardlane
p2706
aVfrance3470
p2707
aVvcohen
p2708
aVsofffie7
p2709
aVeposty
p2710
aVgeni
p2711
aVwhispertome
p2712
aVspartan198
p2713
aVgary123
p2714
aVgandydancer
p2715
aVmaterialscientist
p2716
aVmistymorn
p2717
aVvinnierattolle
p2718
aVagathoclea
p2719
aVfunkmonk
p2720
aVstee888
p2721
aVspartaz
p2722
aVanonmoos
p2723
aVchris.urs-o
p2724
aVtonythetiger
p2725
aVmeno25
p2726
aVsoulparadox
p2727
aVbeetstra
p2728
aVpetebutt
p2729
aVbzuk
p2730
aVritchie333
p2731
aVnableezy
p2732
aVheimstern
p2733
aVspanneraol
p2734
aVdirtlawyer1
p2735
aVthe1337gamer
p2736
aVhordaland
p2737
aVaa2-2004
p2738
aVnaphit
p2739
aVcollect
p2740
aViwannaabillionaire
p2741
aVcmbj
p2742
aVfootwiks
p2743
aVjustinsane15
p2744
aVbillc
p2745
aVwbm1058
p2746
aVperey
p2747
aVefilguht
p2748
aVeldamorie
p2749
aVsmokeythecat
p2750
aVpeacemaker67
p2751
aVrikster2
p2752
aVwonchop
p2753
aVwidefox
p2754
aVll1324
p2755
aVsmuconlaw
p2756
aVrayaraya
p2757
aVzac
p2758
aVtuzapicabit
p2759
aVsmaines
p2760
aVzyxwv99
p2761
aVkilopi
p2762
aVstrife82
p2763
aVkuyabribri
p2764
aValanm1
p2765
aVnedrutland
p2766
aVgiantsnowman
p2767
aVopenfuture
p2768
aVeng66
p2769
aVstillnotelf
p2770
aVjayen466
p2771
aVmwak
p2772
aVerik
p2773
aVsertmann
p2774
aVturco85
p2775
aVimmblueversion
p2776
aVdragonflysixtyseven
p2777
aVtbm10
p2778
aVdavejb
p2779
aVbillcasey905
p2780
aVxtian06
p2781
aVthelmadatter
p2782
aVversageek
p2783
aVfadesga
p2784
aVxpto
p2785
aVlugnuts
p2786
aVmarkussep
p2787
aVacroterion
p2788
aVdavid1217
p2789
aVbserin
p2790
aVbuffs
p2791
aVlozleader
p2792
aVanandks007
p2793
aVarmbrust
p2794
aVtwotwohello
p2795
aVarzel
p2796
aVdumarest
p2797
aVmoviefan
p2798
aVhiddenstranger
p2799
aVjohnsroberts99
p2800
aVnigej
p2801
aVtheoldjacobite
p2802
aVbuaidh
p2803
aVbollyjeff
p2804
aVwalkingtalkingmammal
p2805
aVwikid77
p2806
aVtony1
p2807
aVdrovethrughosts
p2808
aVvargenau
p2809
aVdoniago
p2810
aVtoquinha
p2811
aVbrandmeister
p2812
aVcupco
p2813
aVjmh649
p2814
aVketiltrout
p2815
aVscriberius
p2816
aVqwertyus
p2817
aVquondum
p2818
aVyllosubmarine
p2819
aVcrakkerjakk
p2820
aVrosser1954
p2821
aVsimy69
p2822
aVshearonink
p2823
aVhenriok
p2824
aVdanmuz
p2825
aVeurekalott
p2826
aVjmyrlefuller
p2827
aVnorthamerica1000
p2828
aVkku
p2829
aVmelbourne.sport
p2830
aVanemoneprojectors
p2831
aVehrenkater
p2832
aVrangasyd
p2833
aVapprenticefan
p2834
aVshirt58
p2835
aVcripipper
p2836
aVtimtrent
p2837
aVsaddhiyama
p2838
aVmrpenguin20
p2839
aVspanglej
p2840
aVdagosnavy
p2841
aVroentgenium111
p2842
aVbatard0
p2843
aVrjfjr
p2844
aVarius1998
p2845
aVeug
p2846
aVning-ning
p2847
aVconnormah
p2848
aVmasem
p2849
aVkkmurray
p2850
aVjun19
p2851
aVmcgeddon
p2852
aVpiriczki
p2853
aVjonrichfield
p2854
aVstfg
p2855
aVamandajm
p2856
aVwehwalt
p2857
aVcorbynz
p2858
aVnthep
p2859
aVtheoldsparkle
p2860
aVmezigue
p2861
aVagk
p2862
aVthe-pope
p2863
aVvjmlhds
p2864
aVocalafla
p2865
aVmadvillain2010
p2866
aVtomobe03
p2867
aVsilktork
p2868
aVfunkycanute
p2869
aVjcarls1
p2870
aVbenlisquare
p2871
aVgigemag76
p2872
aVminiapolis
p2873
aVjamesbondfan
p2874
aVjetstreamer
p2875
aVsean.hoyland
p2876
aVvoomoo
p2877
aVhmman
p2878
aVtijfo098
p2879
aVbelchfire
p2880
aVpmolloy291
p2881
aVaaa16
p2882
aVmichaelmas1957
p2883
aVvictoriaedwards
p2884
aVallecher
p2885
aVsenator2029
p2886
aVedgar181
p2887
aVaciram
p2888
aVpopsiclesare
p2889
aVhugo999
p2890
aVwilliamdigicol
p2891
aVmikheil
p2892
aVchaswmsday
p2893
aVaymatth2
p2894
aVeaglestorm
p2895
aVhellknowz
p2896
aVdmcq
p2897
aVcagliost
p2898
aVchris857
p2899
aVhassocks5489
p2900
aVhotwiki
p2901
aVjarekt
p2902
aVlegitimus
p2903
aVghmyrtle
p2904
aVlessogg
p2905
aVgrahamhardy
p2906
aVdepiep
p2907
aVkoumz
p2908
aVkhajidha
p2909
aVsowhy
p2910
aVmeow
p2911
aVchandlerjoeyross
p2912
aVian.thomson
p2913
aVjohnsemlak
p2914
aVmlpearc
p2915
aVhack
p2916
aVelijahbosley
p2917
aVkierzek
p2918
aVskinwalker
p2919
aVhasteur
p2920
aVloginnigol
p2921
aVelapro
p2922
aVguest2625
p2923
aVcharlesdrakew
p2924
aVzscout370
p2925
aVradiofan
p2926
aVnaraht
p2927
aVmariomassone
p2928
aVgaryvines
p2929
aVdawgdeputy
p2930
aVguillaume2303
p2931
aV21stcenturygreenstuff
p2932
aVjoesperrazza
p2933
aVjamikepa
p2934
aVzefr
p2935
aVjohnbod
p2936
aVcolapeninsula
p2937
aVsemitransgenic
p2938
aVkafuffle
p2939
aVporterjoh
p2940
aVsurge79uwf
p2941
aVjpaluf
p2942
aVdumbbot
p2943
aVmerlinme
p2944
aVthenoflyzone
p2945
aVbabonecar
p2946
aVuseddenim
p2947
aValexbateman
p2948
aVirwolfie-
p2949
aValansohn
p2950
aVdavidbspalding
p2951
aVmatthiaspaul
p2952
aVdoktorspin
p2953
aVangr
p2954
aVjhunterj
p2955
aVcarniolus
p2956
aVcourtneybonnick
p2957
aVrschwieb
p2958
aVproscribe
p2959
aVnicksss93
p2960
aVvoceditenore
p2961
aVdthomsen8
p2962
aVduffbeerforme
p2963
aVsyrthiss
p2964
aVmetropolitan90
p2965
aVracklever
p2966
aVzarcadia
p2967
aVbonadea
p2968
aVarsenalkid700
p2969
aVctande
p2970
aVbarkeep
p2971
aVnunh-huh
p2972
aVphileasson
p2973
aVihardlythinkso
p2974
aVpound4pound
p2975
aVsevero
p2976
aVedgars2007
p2977
aVsqgibbon
p2978
aVegghead06
p2979
aVdonquixote
p2980
aVstepa
p2981
aViantresman
p2982
aVmsalmon
p2983
aVbharathiya
p2984
aVimageremovalbot
p2985
aVsmokefoot
p2986
aVtznkai
p2987
aVjsmith1000
p2988
aVwolfgangrieger
p2989
aVabrio
p2990
aVsteamybrian2
p2991
aVfanofpopmusic
p2992
aVmanxwoman
p2993
aVwerldwayd
p2994
aVsopher99
p2995
aVqwfp
p2996
aVjumbolino
p2997
aVisavevski
p2998
aVthevirginiahistorian
p2999
aVnovangelis
p3000
a.