(lp0
Vjampilot
p1
aVangeldeb82
p2
aVdajf
p3
aVmaunus
p4
aVal-andalusi
p5
aVticklewickleukulele
p6
aVjcrules
p7
aVmiguelemejia
p8
aVjmyrlefuller
p9
aVponyo
p10
aVpatapsco913
p11
aVwcquidditch
p12
aVbigears42
p13
aVstevey7788
p14
aVcassianto
p15
aVcaringtype1
p16
aVasdfgh
p17
aVschuminweb
p18
aVgvnayr
p19
aVedmon74
p20
aVjonkerz
p21
aVxpto
p22
aVjamesam
p23
aVchetvorno
p24
aVthefarix
p25
aVkaran1974
p26
aVnightscream
p27
aVcarrite
p28
aVthree-quarter-ten
p29
aVgcstackmoney
p30
aVmichael5046
p31
aVamlnet49
p32
aVdadaneem
p33
aVzonafan39
p34
aVvik-thor
p35
aVinevercry
p36
aVprimehunter
p37
aVswistertwister
p38
aVdainomite
p39
aVeeekster
p40
aVminiapolis
p41
aVnabla
p42
aVkatharineamy
p43
aVevaders99
p44
aVvipersnake151
p45
aVspacepotato
p46
aVravichandar84
p47
aVmaclean25
p48
aVgeorgelouis
p49
aVkdammers
p50
aVkoavf
p51
aVtvoz
p52
aVdavejohnsan
p53
aVa31lover
p54
aVinvertzoo
p55
aVhectormoffet
p56
aVtitodutta
p57
aVvsmith
p58
aVkissoffire
p59
aVevan1975
p60
aVnoname2
p61
aVdcirovic
p62
aVbollyjeff
p63
aVfisherqueen
p64
aVbobrayner
p65
aVacwbuff276
p66
aVjytdog
p67
aVhulmem
p68
aVlugia2453
p69
aVthakaran
p70
aVshadowranger
p71
aVlquilter
p72
aVfrance3470
p73
aVpburka
p74
aVjun19
p75
aVofficer781
p76
aVqworty
p77
aVchrisrus
p78
aVthespecialuser
p79
aVshipguy
p80
aVkupirijo
p81
aVgoingbatty
p82
aVfuturist110
p83
aVcawylie
p84
aVstylteralmaldo
p85
aVaymatth2
p86
aVamanwithnoplan
p87
aVjonridinger
p88
aVwareh
p89
aVhertz1888
p90
aVnonenmac
p91
aVjayemd
p92
aVjoannaserah
p93
aVkaiketsu
p94
aVgene93k
p95
aVattys
p96
aVhugosworld92
p97
aVwikidemon
p98
aVmedeis
p99
aVbjenks
p100
aVxenophrenic
p101
aVsiefkindr
p102
aVplastikspork
p103
aVsuslindisambiguator
p104
aVjunegloom07
p105
aVgimlidotnet
p106
aVboneyard90
p107
aValfietucker
p108
aVsturat
p109
aVcplakidas
p110
aVmedeis
p111
aVllamaal
p112
aVlittlewink
p113
aVthemoviebuff
p114
aVkante4
p115
aVdrttm
p116
aVstigni
p117
aVbenzy19
p118
aVallen3
p119
aVkraxler
p120
aVtimike
p121
aVhelvetica
p122
aVcharlesaaronthompson
p123
aVviriditas
p124
aVallyd
p125
aVnoommos
p126
aVarthur7171
p127
aVmrmoustachemm
p128
aVcresix
p129
aVredrose64
p130
aVswcrowe
p131
aVliamk97
p132
aVwonderwizard
p133
aVlugia2453
p134
aVgobonobo
p135
aVeng66
p136
aVhchc2009
p137
aVsupermarioman
p138
aVybg
p139
aVtimtom27
p140
aVtraveler100
p141
aVgrahamhardy
p142
aVspat
p143
aVsundostund
p144
aVrikster2
p145
aVwoodlot
p146
aVrangoon11
p147
aVaboutmovies
p148
aVtigerboy1966
p149
aVdavidhorman
p150
aVjihadcola
p151
aVkatangais
p152
aVsdpatrolbot
p153
aVfraytel
p154
aVmammalia
p155
aVdemiurge1000
p156
aVinvertzoo
p157
aVmoonraker
p158
aVmcld
p159
aVcirt
p160
aVkiefer.wolfowitz
p161
aVtot-futbol
p162
aVamitchell125
p163
aVsummerphd
p164
aVmagicpiano
p165
aVtheoldjacobite
p166
aVroseohioresident
p167
aVdthomsen8
p168
aVneelix
p169
aVdgg
p170
aVmimich
p171
aVgbern3
p172
aVcityofsilver
p173
aVlobsterthermidor
p174
aVinwind
p175
aVjlee1
p176
aVnlu
p177
aVburbridge92
p178
aVbamse
p179
aVcarolehenson
p180
aVfuturist110
p181
aVsmkolins
p182
aVmichaelqschmidt
p183
aVmikheil
p184
aVthuglife99
p185
aVmarchije
p186
aVjb82
p187
aVgonzaka
p188
aVfletcher
p189
aVwiqi55
p190
aVz105space
p191
aVvsmith
p192
aVguliolopez
p193
aVtassedethe
p194
aVjarble
p195
aVfroid
p196
aVdrmies
p197
aVwassup234
p198
aVjllm06
p199
aVgerhard51
p200
a.