(dp0
VCategory:Medieval video games
p1
I838
sVCategory:Falklands War naval weapons
p2
I63
sVCategory:Apocalyptic films
p3
I2190
sVCategory:Party games
p4
I262
sVCategory:American musicians of Irish descent
p5
I4986
sVCategory:Polish fantasy writers
p6
I218
sVCategory:Dark fantasy video games
p7
I1618
sVCategory:Novels by D. F. Jones
p8
I15
sVCategory:American indie rock groups
p9
I77
sVCategory:American television actors
p10
I486
sVCategory:Fictional World War II veterans
p11
I7624
sVCategory:Medical signs
p12
I604
sVCategory:Hebrew Bible people
p13
I753
sVCategory:Burials in Hebron
p14
I753
sVCategory:WikiProject Computer science stubs
p15
I99
sVCategory:Cancelled PlayStation 3 games
p16
I838
sVCategory:Independent films
p17
I69
sVCategory:Acer Inc.
p18
I1696
sVCategory:Christian cosmology
p19
I1039
sVCategory:Continents
p20
I7298
sVCategory:1970s science fiction novels
p21
I15
sVCategory:305 mm artillery
p22
I63
sVCategory:Telangana geography stubs
p23
I17
sVCategory:American rock singer-songwriters
p24
I4986
sVCategory:Fictional organizations in Marvel Comics
p25
I575
sVCategory:Inferno (operating system)
p26
I99
sVCategory:2000s science fiction films
p27
I2190
sVCategory:Marvel Comics dimensions
p28
I128
sVCategory:Films shot in Alaska
p29
I69
sVCategory:1909 births
p30
I7
sVCategory:Judge Dredd characters
p31
I1392
sVCategory:American baritones
p32
I4986
sVCategory:Rush (band) songs
p33
I529
sVCategory:Urban legends
p34
I4676
sVCategory:Fictional laboratories
p35
I575
sVCategory:Latin loanwords
p36
I1039
sVCategory:1999 films
p37
I69
sVCategory:Populated places in Sumner County, Tennessee
p38
I54
sVCategory:East Village, Manhattan
p39
I84
sVCategory:Electronics companies of Taiwan
p40
I1696
sVCategory:Characters created by Len Wein
p41
I7624
sVCategory:Greek loanwords
p42
I7298
sVCategory:American people of English descent
p43
I4986
sVCategory:Fictional clones
p44
I1392
sVCategory:Antarctica
p45
I7298
sVCategory:PlayStation 3 games
p46
I780
sVCategory:Fictional Canadian people
p47
I7624
sVCategory:Entrepreneurship
p48
I3367
sVCategory:Portable audio player manufacturers
p49
I1696
sVCategory:Antarctic region
p50
I7298
sVCategory:Anti-submarine mortars
p51
I63
sVCategory:Display technology companies
p52
I1696
sVCategory:Programming language topic stubs
p53
I99
sVCategory:Cancelled Xbox 360 games
p54
I838
sVCategory:2000 AD comic strips
p55
I1392
sVCategory:English folklore
p56
I58
sVCategory:Microsoft games
p57
I780
sVCategory:Comics characters introduced in 1974
p58
I7624
sVCategory:Comics characters introduced in 1977
p59
I1392
sVCategory:Naval weapons of the United Kingdom
p60
I63
sVCategory:Marvel Comics supervillain teams
p61
I575
sVCategory:2007 video games
p62
I838
sVCategory:American thriller films
p63
I2190
sVCategory:20th Century Fox films
p64
I2190
sVCategory:Catholic terms
p65
I1039
sVCategory:American film actors
p66
I486
sVCategory:People of the Whitewater controversy
p67
I29
sVCategory:Northumbrian folklore
p68
I58
sVCategory:Business and financial operations occupations
p69
I3367
sVCategory:Dances
p70
I262
sVCategory:Atari games
p71
I838
sVCategory:2000s thriller films
p72
I2190
sVCategory:Earth mysteries
p73
I4676
sVCategory:2010 video games
p74
I780
sVCategory:Indie video games
p75
I780
sVCategory:Fictional Korean War veterans
p76
I7624
sVCategory:Scientific techniques
p77
I1799
sVCategory:Judge Dredd
p78
I1392
sVCategory:Computer hardware companies
p79
I1696
sVCategory:1963 births
p80
I4986
sVCategory:Geography of Miami, Florida
p81
I4676
sVCategory:Christian eschatology
p82
I1039
sVCategory:French loanwords
p83
I3367
sVCategory:English legendary creatures
p84
I58
sVCategory:Films directed by John Sayles
p85
I69
sVCategory:Blizzard Entertainment
p86
I2796
sVCategory:Visual perception
p87
I604
sVCategory:Living people
p88
I733
sVCategory:Art games
p89
I780
sVCategory:English-language films
p90
I2259
sVCategory:World War II sites of the United States
p91
I4676
sVCategory:Nautical lore
p92
I4676
sVCategory:DC Comics dimensions
p93
I38
sVCategory:Environmental films
p94
I2190
sVCategory:Disambiguation pages
p95
I1038
sVCategory:American films
p96
I2190
sVCategory:Nashville metropolitan area
p97
I54
sVCategory:1948 births
p98
I218
sVCategory:Characters created by Herb Trimpe
p99
I7624
sVCategory:Semiconductors
p100
I1728
sVCategory:Rock instrumentals
p101
I529
sVCategory:Electron microscopy
p102
I1799
sVCategory:Afterlife places
p103
I1039
sVCategory:1990s drama films
p104
I69
sVCategory:Unexplained disappearances
p105
I4676
sVCategory:American science fiction films
p106
I2190
sVCategory:PlayStation Network games
p107
I780
sVCategory:Taiwan brands
p108
I1696
sVCategory:Towns in Tennessee
p109
I54
sVCategory:Games for Windows certified games
p110
I838
sVCategory:Old Testament female saints
p111
I753
sVCategory:Bermuda Triangle
p112
I4676
sVCategory:Trinidad and Tobago culture
p113
I262
sVCategory:People from Dearborn, Michigan
p114
I486
sVCategory:Accelerator physics
p115
I1799
sVCategory:Video game development companies
p116
I2796
sVCategory:Screen Gems films
p117
I69
sVCategory:Ophthalmology
p118
I604
sVCategory:Adventure drama films
p119
I69
sVCategory:Fundamental physics concepts
p120
I1728
sVCategory:Video game publishers
p121
I2796
sVCategory:2000 AD characters
p122
I1392
sVCategory:Paranormal triangles
p123
I4676
sVCategory:Netbook manufacturers
p124
I1696
sVCategory:Fictional police officers
p125
I1392
sVCategory:Fictional World War I veterans
p126
I7624
sVCategory:Fictional judges
p127
I1392
sVCategory:1977 novels
p128
I15
sVCategory:American heavy metal guitarists
p129
I4986
sVCategory:Fictional concepts of the afterlife
p130
I34
sVCategory:Video game companies of the United States
p131
I2796
sVCategory:1958 deaths
p132
I7
sVCategory:Companies established in 1991
p133
I2796
sVCategory:Fictional assassins
p134
I7624
sVCategory:Puzzle video games
p135
I780
sVCategory:Extreme points of Earth
p136
I7298
sVCategory:Side-scrolling video games
p137
I780
sVCategory:Outer Planes
p138
I34
sVCategory:Lua-scripted video games
p139
I838
sVCategory:Fictional Vietnam War veterans
p140
I7624
sVCategory:Naval weapons of the Cold War
p141
I63
sVCategory:Polar regions of the Earth
p142
I7298
sVCategory:American people of Scottish descent
p143
I4986
sVCategory:UFO-related locations
p144
I4676
sVCategory:American male singers
p145
I4986
sVCategory:Companies based in New Taipei
p146
I1696
sVCategory:Free compilers and interpreters
p147
I99
sVCategory:Dungeons & Dragons stubs
p148
I34
sVCategory:Action role-playing video games
p149
I838
sVCategory:C programming language family
p150
I99
sVCategory:Companies established in 1976
p151
I1696
sVCategory:American musicians of German descent
p152
I4986
sVCategory:Management occupations
p153
I3367
sVCategory:DC Comics demons
p154
I38
sVCategory:1981 births
p155
I486
sVCategory:Concurrent programming languages
p156
I99
sVCategory:Novels about computing
p157
I15
sVCategory:American drama films
p158
I69
sVCategory:Platform games
p159
I780
sVCategory:Comics by John Wagner
p160
I1392
sVCategory:Villages in Khammam district
p161
I17
sVCategory:Mobile phone manufacturers
p162
I1696
sVCategory:People from Arkansas
p163
I29
sVCategory:Companies based in Irvine, California
p164
I2796
sVCategory:French words and phrases
p165
I3367
sVCategory:Explosive weapons
p166
I63
sVCategory:American film producers
p167
I7
sVCategory:Christianity and death
p168
I1039
sVCategory:American heavy metal singers
p169
I4986
sVCategory:Actors from Michigan
p170
I486
sVCategory:Post-apocalyptic comics
p171
I1392
sVCategory:Films set in Alaska
p172
I69
sVCategory:Mythological horses
p173
I58
sVCategory:2008 films
p174
I2190
sVCategory:Place names of Westmorland origin in the United States
p175
I54
sVCategory:American politics biographical stubs
p176
I29
sVCategory:Adam and Eve
p177
I753
sVCategory:Mac OS X games
p178
I838
sVCategory:Mythological dogs
p179
I58
sVCategory:Characters created by John Romita, Sr.
p180
I7624
s.