c__builtin__
set
p0
((lp1
VDonvin55
p2
aVMastaBaba
p3
aVnicole1083
p4
aVellenbwright
p5
aVrubiromero
p6
aVBrentJamesMusic
p7
aVankurpshah
p8
aVNingauble
p9
aVcadat
p10
aVJersey_Devil
p11
aVRobertGreer
p12
aVJustinCHodges
p13
aVtratteggio
p14
aVpurinkle
p15
aVLaurenTonge
p16
aVSchlock
p17
aVstrikehold
p18
aVmelanie_may
p19
aVemijrp
p20
aVdiscovery103
p21
aVEtienneCharland
p22
aVduncanmcc
p23
aVAndrewShephard
p24
aVblitzergrayson
p25
aVArchonMagnus
p26
aVNoMercyFC
p27
aVKirkman
p28
aVkelllseyy
p29
aVmechellMLR
p30
aVbradenz
p31
aVFried_Gold
p32
aVChristiant
p33
aVultratone85
p34
aVearl_andrew
p35
aVEspio15
p36
aVandredidier
p37
aVcalebrw
p38
aVUnionAdam
p39
aVmocha_mocha
p40
aVxxxplizit
p41
aVunstructured
p42
aVChessieChaney
p43
aVcyan
p44
aVArcangel
p45
aVartoronto
p46
aVcraftyran
p47
aVJWSchmidt
p48
aVconfusador
p49
aVitstimm
p50
aVdimitrii
p51
aVSteffyxD
p52
aVRursus
p53
aVruud_koot
p54
aVteraspawn
p55
aVsamrolken
p56
aVTheSubRosas
p57
aVninjaparade
p58
aVlegoktm
p59
aVdragonecc
p60
aVDonTello
p61
aVeperickson
p62
aVdaisydream
p63
aVelgafy
p64
aVJEMIKALF
p65
aVspartakan
p66
aVroadapathy
p67
aVDev920
p68
aVdeu
p69
aVaccutler
p70
aVNaijafinder
p71
aVcolorflow
p72
aVpeter_gallagher
p73
aVKatieBNL
p74
aVLaughlinJames
p75
aVnudimmud
p76
aVgatechjon
p77
aVmattmac14
p78
aVgudmundur
p79
aVcibcomms
p80
aVskeet_shooter
p81
aVmpaley
p82
aVwillactivate
p83
aVdergrauewolf
p84
aVmrprada
p85
aVa_werewolf
p86
aVkjkolb
p87
aVtarun2k
p88
aVSnyke
p89
aVcolinsweet
p90
aVjoepeach
p91
aVtrivuz
p92
aVfloydian
p93
aVbillybobfred
p94
aVrosiemacphee
p95
aVTrepalium
p96
aVdord
p97
aVJustagrimeyone
p98
aVannefernando
p99
aVAlrightOk
p100
aVshaunpress
p101
aVManhim
p102
aVJRWoodwardMSW
p103
aVmackensen
p104
aVddbruce
p105
aVstrawbeard
p106
aVbjeanh1
p107
aVjacobrothschild
p108
aVsteelwool
p109
aVReemBeadles
p110
aVbinarymn
p111
aVDLWhitehouse
p112
aVReedy_bot
p113
aVrdf
p114
aVbambus
p115
aVshootinshark
p116
aVhakubi
p117
aVdavidds
p118
aVlantrix
p119
aVne2
p120
aVScarian
p121
aVSunkissedguy
p122
aVVolbeatfan
p123
aVyogiontour
p124
aVwjcook
p125
aVnescio
p126
aVIvoShandor
p127
aVcolombiana_7
p128
aVtOmMyanG
p129
aVjakebathman
p130
aVbrg
p131
aVsammyrenee
p132
aVnall
p133
aVgavinelder
p134
aVsalimgates
p135
aVFallenAngelEyes
p136
aVsyzygos
p137
aVtheJC
p138
aVBenignuman
p139
aVmegamav
p140
aVCowboyWisdom
p141
aVFemto
p142
aVSeverson
p143
aVdanbarnesdavies
p144
aVdeon
p145
aVcassowary
p146
aVPiousRenegade
p147
aVbeta_m
p148
aVsandpappy
p149
aVFlyingToaster
p150
aVdemian42
p151
aVStarMiner
p152
aVconflictedband
p153
aVdisavian
p154
aVryanlindstedt
p155
aVZadkiel
p156
aVtweebee
p157
aVlohanj
p158
aVook
p159
aVpeter_mora
p160
aVhardcastle
p161
aVmlkmnsgrl
p162
aVAnimatix
p163
aVAchyuthB
p164
aVDanPollock
p165
aVmarkijbema
p166
aVDashiellx
p167
aVmadmax
p168
aVsixxtysixx
p169
aVgrapelli
p170
aVjamieventure
p171
aVDebloper
p172
aVdelphij
p173
aVmrgeek
p174
aVmh
p175
aVillkagobius
p176
aVGarthJones
p177
aVblue_frederick
p178
aVconnorcreighton
p179
aVUKFilmDesigner
p180
aVillegalyouth
p181
aVDeLandTree
p182
aVSedulus
p183
aVbrianduff
p184
aVexample
p185
aVpammalamma
p186
aVapparition11
p187
aVbaybay337
p188
aVSnowmanRadio
p189
aVcontron
p190
aVTabletcorry
p191
aVGregHarry
p192
aVRichJWild
p193
aVjdreed
p194
aVPolitico100
p195
aVkusaga
p196
aVpete4999
p197
aVczj
p198
aVSyberspace
p199
aVmathbot
p200
aVgsr7
p201
aVomtay38
p202
aViMnement
p203
aVNorthernfire
p204
aVShepBot
p205
aVJoelGuelph
p206
aVslightsmile
p207
aVstuartcarter
p208
aVNixeagle
p209
aVLF
p210
aVjamesyyy
p211
aVOscarTheCat
p212
aVmadams57
p213
aVcpsoper
p214
aVctunks
p215
aVImBoredALot
p216
aVTimeMaps
p217
aVtryzub
p218
aVbrian
p219
aVmlzg4
p220
aVchunkeroni
p221
aVGeorgiaAitken
p222
aVralphie81
p223
aVGualtherus
p224
aVRLandmann
p225
aVjokestress
p226
aVCyberhub
p227
aVDougWoodMusic
p228
aVdesijattt
p229
aVproace
p230
aVTheUSMarshall
p231
aVjunior_estrella
p232
aVdittes
p233
aVsaevarom
p234
aVareiamus
p235
aVJustIntonation
p236
aVPAS007
p237
aVdeanlikespie
p238
aVtiagoguitar
p239
aVgeorge_wilson
p240
aVSophie
p241
aVColmenero
p242
aVmikebertino
p243
aVdubaduba
p244
aVmarkkawika
p245
aValibrauda
p246
aVdanny
p247
aVfrikshun
p248
aVgive_it_up
p249
aVrsskga
p250
aVjoeldebo
p251
aVrickyrazz
p252
aVmugabuga
p253
aVdavidbrooks
p254
aVWindows_Me
p255
aVnancy
p256
aValekxia
p257
aVAlAmmar
p258
aVradinomiharjo
p259
aVjasonbrennan
p260
aVnortherndreams
p261
aVsidewinder
p262
aVvars
p263
aVMDebets
p264
aV28Bytes
p265
aVRediscoverer
p266
aVydlaz30
p267
aVchancebliss
p268
aVentity
p269
aVkkplease
p270
aVphalacee
p271
aVtim_osborne
p272
aVChaython
p273
aVocaoca
p274
aVSiebrand
p275
aVmikeportes
p276
aVhandsomedan
p277
aVZenDoodles
p278
aVpanther3751
p279
aVjohn_carter
p280
aVSteveMcCluskey
p281
aVdaveespionage
p282
aVTerriO
p283
aVfcassia
p284
aVLoganLopez
p285
aVandrew_duffell
p286
aVSyndicate
p287
aVmrmojorisin
p288
aVJHarris
p289
aVgargoylebot
p290
aVblackdaniel
p291
aVpoliticsislife
p292
aVNepomuk
p293
aVMarkCTest
p294
aVLympathy
p295
aVwilson_ang81
p296
aVSedward
p297
aVxpoisonfreex
p298
aVturian
p299
aVbeznas
p300
aVSengkang
p301
aVrespiro
p302
aVInstantis
p303
aVrsjeyakumar
p304
aVMike_Young
p305
aVdukeare1
p306
aVkimon
p307
aVcuthead
p308
aVtyw7
p309
aVAjaylaM
p310
aVmarukusu
p311
aVsilverwzw
p312
aVSwarm
p313
aVtracef
p314
aVCrazywolf
p315
aVMrd9
p316
aVRedstonesoldier
p317
aVRich_Gould
p318
aVpantalimon
p319
aVinfowest
p320
aVICEGURU
p321
aVPhr3d
p322
aVrcat35
p323
aVFitoschido
p324
aVbtilm
p325
aVcatchiso
p326
aVtwsx
p327
aVJesse_Richards
p328
aVGreatBigBore
p329
aVVibsK
p330
aVChris_Roy
p331
aVextreme_ironing
p332
aVJetstreamer
p333
aVcmadler
p334
aVAngelica_Brown
p335
aVmde
p336
aVriochoa
p337
aVKarthikTantri
p338
aVMBisanz
p339
aVbigmonachus
p340
aVlondon1112
p341
aVvexroid
p342
aVvcs
p343
aVFromanteel
p344
aVzozart
p345
aVmoayadcom
p346
aVBradPlummer
p347
aVgral
p348
aVTeeRebel
p349
aVnewsline
p350
aVBabyCreech
p351
aVbagusbagus
p352
aVborn2flie
p353
aVnemishman
p354
aVxenocidic
p355
aVGabeReal
p356
aVjeanpol
p357
aVSpitfire19
p358
aVhypersonicboom
p359
aVxojycyjox
p360
aVkirkbroadhurst
p361
aVeliezer
p362
aVjr105
p363
aVjasonlimon
p364
aVRSSewell
p365
aVfrgonzalez
p366
aVkrishnavedala
p367
aVjohndbuell
p368
aVjakew
p369
aVBoston
p370
aVSadartha
p371
aVSindaAran
p372
aVPourkayvan
p373
aVGoneAFK
p374
aVDevilK9
p375
aVMahoneyRed
p376
aVmaonao
p377
aVFeco
p378
aVKylePIB
p379
aVOctane
p380
aVrrothberg
p381
aVteaparty1
p382
aVCeC
p383
aVConjurusRex
p384
aVpoovannan
p385
aVCSTUDVILL
p386
aVadrianseeley
p387
aVjordon1991
p388
aVdominoesfall
p389
aVmarkpesci
p390
aVitskristine
p391
aVbloodarowman
p392
aVgormos
p393
aVhardindr
p394
aVAlisonW
p395
aVsasukekun22
p396
aVDavidZennie
p397
aVmillsdavid
p398
aVTheSquare
p399
aVnouvelleauteur
p400
aVsatROHraj
p401
aVTNGEO
p402
aVcquan
p403
aVctsinclair
p404
aVlady_ev
p405
aVsly_si
p406
aVcuzza
p407
aVJonDel
p408
aVJonJontheSON
p409
aVPopcornlung
p410
aVchaser
p411
aVjohn
p412
aVHaschel47
p413
aVTarfah
p414
aVdcmacnut
p415
aVkevinbrogers
p416
aVthechooster
p417
aVomegatron
p418
aVPaulKnoxxx
p419
aVSuraj_Sharma
p420
aVkrisblade
p421
aVsteamrunner
p422
aVjaredhendler
p423
aVjakeyboy1989
p424
aVMDGX
p425
aVnathos
p426
aV_the
p427
aVWolfdog
p428
aVtkalsang
p429
aVbrinleyang
p430
aVToo_Much_To_Ask
p431
aVvrsoze
p432
aVFuR
p433
aVdanmux
p434
aVmu301
p435
aVDrKull
p436
aVdextrose
p437
aVBlackJacob
p438
aVharkain
p439
aVCarlys
p440
aVsinceretarot
p441
aVcorezion
p442
aVturbo74
p443
aVACDCbag
p444
aVDerwiG
p445
aValexd
p446
aVaucaman
p447
aVabyssal
p448
aVaestetix
p449
aVkober
p450
aVfetchcomms
p451
aVhenrytdsimmons
p452
aVmillionaireman
p453
aVJackTrades
p454
aVRuby2010
p455
aVpb30
p456
aVamithchandhran
p457
aVscottykai
p458
aVrident
p459
aVChrisKennedy
p460
aVzutano
p461
aVpatrickneil
p462
aVMissingLeftSock
p463
aVthecitizen
p464
aVblakeallred
p465
aVAndrewBarbisan
p466
aVtimnelson
p467
aVSte
p468
aVdavid_5000
p469
aVdjtask
p470
aVmatthew
p471
aVafrodriguezg
p472
aVjeshaka
p473
aVOceana
p474
aVjtbelliott
p475
aVMedeaMelana
p476
aVgjon
p477
aVSchifanoia
p478
aV89ak
p479
aVBombom
p480
aVkuja
p481
aVaminamilin
p482
aVNITV
p483
aVfarain
p484
aVBrandon_Thomas6
p485
aVcherylsweb20
p486
aVashley_y
p487
aVHesperian
p488
aVfcn
p489
aVlouisbourque
p490
aVBear_Driver
p491
aVmarkreidyhp
p492
aVganeshglits
p493
aVkf
p494
aVhfleming
p495
aVdvyjones
p496
aVke4roh
p497
aVFallsStart
p498
aVNihiltres
p499
aVtsandler
p500
aVpengo
p501
aVblumster
p502
aVWavelength
p503
aVginkgo100
p504
aVMasterMasar
p505
aValijean
p506
aVCamewel
p507
aVragesoss
p508
aVgulker
p509
aVCHAGUAL
p510
aVKing_Gemini
p511
aVLeeirons
p512
aVchampagneblue
p513
aVjulianonions
p514
aVpaperfork
p515
aVGluckman
p516
aVMZajac
p517
aVemccall7791
p518
aVforseti
p519
aVDave_Hatton
p520
aVmelodycurtiss
p521
aVconcreto
p522
aVleigh
p523
aVmacros
p524
aVtschoffelen
p525
aVravivyas84
p526
aVmcpaige
p527
aVdafrwi
p528
aVFred
p529
aVdice1976
p530
aVmedical_woman
p531
aVPaulGauguin
p532
aVrosspatterson
p533
aVJunior_Rookie
p534
aVFataL
p535
aVakxiang
p536
aVandreafox
p537
aVctome3
p538
aVjsmallz1
p539
aVrichardf
p540
aVdavemon
p541
aVKazuki_Ashiya
p542
aVandrew_writes
p543
aVThe_Viper
p544
aVsoumyeah
p545
aVtommynoble
p546
aVstoa
p547
aValexander
p548
aVrfr
p549
aVbelamp
p550
aVnormxxx
p551
aVlfaraone
p552
aVGabbielSan
p553
aVJeremiad
p554
aVwcoenen
p555
aVlumen0
p556
aVtimetoshare
p557
aVopenbysource
p558
aVnexione
p559
aVmdhowe
p560
aVAimanStudio
p561
aVLcawte
p562
aVbesenok
p563
aVrarita
p564
aVJohnCastle
p565
aVCadwaladr
p566
aVRoboDick
p567
aVganesha
p568
aVJerryLaGrou
p569
aVEjBanks
p570
aVuuade
p571
aVfoxfire0160
p572
aVstephanwehner
p573
aVeagletusk
p574
aVBenBalter
p575
aVChadiz
p576
aVpcreux
p577
aVmegamanfan3
p578
aVjohnchavens
p579
aVPridit
p580
aVthecoolguy4ever
p581
aVJadeSnake
p582
aVz3lim
p583
aVrstens
p584
aVerimus
p585
aVradiohost
p586
aVfanf
p587
aVpaulmcdonald
p588
aVflorstein
p589
aVtgeairn
p590
aVRK77
p591
aVdlee37
p592
aValan_chambers
p593
aVKoman90
p594
aVwongbombs
p595
aVjacoblake
p596
aVwarpflyght
p597
aVWolf7
p598
aVMaelwys
p599
aVJohn_Corona
p600
aVLanternRouge
p601
aVvincereed
p602
aVwaynema
p603
aVcallmechelsea
p604
aVmartenjan
p605
aVshawphy
p606
aVdaims09
p607
aV07bargem
p608
aVnihonjoe
p609
aVmoverton
p610
aVTunnelingPigeon
p611
aVjablan
p612
aVbrasker
p613
aVwith_lemon
p614
aVnyletak
p615
aVc
p616
aVZoofari
p617
aVthakiddsupreme
p618
aVtacosunday
p619
aVjacobltobin
p620
aVradmilce
p621
aVMinouris
p622
aVthe_menace
p623
aVsunilbajpai
p624
aVTonytheTiger
p625
aVaeural
p626
aVpdh
p627
aVvramdal
p628
aVaWESome311
p629
aVCygnus360
p630
aVmijopo
p631
aVAbbieG
p632
aVgadig
p633
aVvikingstad
p634
aVusagi1400
p635
aVmike_nobody
p636
aVthoughtcriminal
p637
aVdabuek
p638
aVHanargh
p639
aVtree2020
p640
aVIDFINE
p641
aVBrotherE
p642
aVChrisGriswold
p643
aVozgurdogan
p644
aVtripledot
p645
aVyasirmturk
p646
aVlidyadya
p647
aVcmrdra
p648
aVzyxw59
p649
aVnewbliss
p650
aVsam
p651
aVntfs
p652
aVAndiNell
p653
aVjohnkarp
p654
aVospalh
p655
aVbhvilar
p656
aVorangetrousers
p657
aVpigpogm
p658
aVdavidmizrachi
p659
aVLeonimuZ
p660
aVMattyWillow
p661
aVmkjeong
p662
aVmoink
p663
aVstevecrow74
p664
aVajmint
p665
aVMestre_Oda
p666
aVallthewhile
p667
aVrenatogontijo
p668
aVSnickersnee
p669
aVPevensie
p670
aVtsnd
p671
aVGaryWill
p672
aVmetabolome
p673
aVstormwind
p674
aVhidrnick
p675
aVgmaxwell
p676
aVDylanAndColeFan
p677
aVSoWhy
p678
aVsexytyranno
p679
aVWheelsDeals
p680
aVfiremangreg
p681
aVKRG
p682
aVimpavidus
p683
aVLou_Franklin
p684
aVrobdylan
p685
aVPossicon
p686
aVthehistorygeek
p687
aVxnightfallx
p688
aVtheborg
p689
aVDHadams
p690
aVfilmyguy
p691
aVOly
p692
aVjriddell
p693
aVTheSecondKira
p694
aVCapitalR
p695
aVillintechnology
p696
aVmegpoid
p697
aVGeeka2
p698
aVFrobro22
p699
aVbigdwiki
p700
aVajg12594
p701
aVmarianian
p702
aVgigigraceyc
p703
aVsoulboost
p704
aVengal
p705
aVgoschko
p706
aVdarrenhusted
p707
aVYBAband
p708
aVukanime
p709
aVulor
p710
aVandrew_nutter
p711
aVCabano17
p712
aVPomtidom
p713
aVnevilley
p714
aVDeathPhoenix
p715
aVdhn
p716
aVkaffro
p717
aVpiginthepoke
p718
aVjosve05a
p719
aVcbecker
p720
aVenfcer
p721
aVjhall1
p722
aVhello_bon
p723
aVMatthew_Yeager
p724
aVbahaish
p725
aVeladior
p726
aVlpangelrob
p727
aVdaphnepassa
p728
aVtondalink
p729
aVCheezNapkin
p730
aVMrTea
p731
aVnicdumz
p732
aVlms0023
p733
aVChickenmonkey
p734
aVALoyalAmerican
p735
aVhaylon
p736
aVmaidden
p737
aVbobraines
p738
aVmillrjess
p739
aVJonEastham
p740
aVSNiedo
p741
aVronanperceval
p742
aVimdeng
p743
aVpateln01
p744
aVKrator
p745
aVjedi9
p746
aVtigger89
p747
aVgiov9
p748
aVMicroChip123
p749
aVvarungarde
p750
aVseor
p751
aVkellan_standley
p752
aVcanonlaw
p753
aVMagi42
p754
aVocbaker
p755
aVbut_no
p756
aVgerryLowry1947
p757
aVoctopusouphut
p758
aVOpaninba
p759
aVWim_B
p760
aVzsoverman
p761
aVdavidgrove
p762
aVkamalaakar
p763
aVFiberOptix
p764
aVgrantb
p765
aVNoTicket
p766
aVhjv
p767
aVlaidlaw
p768
aVtariqwest
p769
aVFlying_Hamster
p770
aVhseldon10
p771
aVbigtreecountry
p772
aVBruceRenny
p773
aVpewski
p774
aVtrumpetsizzle
p775
aVjimktrains
p776
aVcolchester
p777
aValvestrand
p778
aVmissreed
p779
aVbritneylopez
p780
aVkmikeym
p781
aVBirgitteSB
p782
aVpeter_campbell
p783
aVDottorre
p784
aVwoodstock
p785
aVJames094
p786
aVNick_R
p787
aVbellhalla
p788
aVKithira
p789
aVKeakealani
p790
aVdyaimz
p791
aVnicolaosborne
p792
aVs_marshall
p793
aVJayjay
p794
aVGaladh
p795
aVKeta
p796
aVMrChris
p797
aVHotdogger666
p798
aVGeorgeWingate
p799
aVFrankenroc
p800
aVchaserz
p801
aVterrapin
p802
aVAlexandraVino
p803
aVLamorak
p804
aVFethroesforia
p805
aViain_g_scott
p806
aVpatrick
p807
aVfreekamia
p808
aVsoap
p809
aVConorMartin1996
p810
aVHPJoker
p811
aVnerd2max
p812
aVDestinyRae
p813
aVksy3
p814
aVmadwriter9
p815
aVStarstorm231
p816
aVAndrewvdBK
p817
aVNick_Smale
p818
aVSilent
p819
aVserpentium
p820
aVryantriggs
p821
aVandyzaft
p822
aVnHelke
p823
aVintellijean
p824
aVpaulej
p825
aVFunPhil
p826
aVmlpearc
p827
aVare_dee
p828
aVLprsti99
p829
aVmllerustad
p830
aVohemsted
p831
aVgary_kirk
p832
aVscratchedguitar
p833
aVjamessssssssss
p834
aVdmgeo
p835
aVJaJaon
p836
aVTerri_G
p837
aVjarrodtrainque
p838
aVravenswing
p839
aVbsoft
p840
aVkaippally
p841
aVtheKAIN
p842
aVKevinGoolsby
p843
aVnew_england
p844
aVdarkhorizon
p845
aVt
p846
aVReggaeDelgado
p847
aVFootwarrior
p848
aVnumbertwopencil
p849
aVsafirahsyai
p850
aVjezmck
p851
aViconoclash
p852
aVMaz204
p853
aVStephenjamesx
p854
aVBob
p855
aVLittleBigPlanet
p856
aVRichard
p857
aVjofergus
p858
aVsuniltams
p859
aVleobard
p860
aVkry
p861
aVpaulgarner
p862
aVchicocvenancio
p863
aVRetroRewind
p864
aVnamarupa
p865
aVDaniel_Ellis
p866
aVtinucherian
p867
aVadgedc
p868
aVWathyreckk
p869
aVmattgirling
p870
aVfumitol
p871
aVCameron
p872
aVbuzzaz
p873
aValexcruise
p874
aVdarac
p875
aVirwinclan
p876
aVj1m
p877
aVblurtsmum
p878
aVNike
p879
aVjmbeck
p880
aVGreg_Ward
p881
aVpennstatephil
p882
aVGoldman60
p883
aVAGlassOnion
p884
aVandicat
p885
aVkagato
p886
aVatozxyz
p887
aVbguest
p888
aVNeddySeagoon
p889
aVVictuallers
p890
aVFbdave
p891
aVjzg
p892
aVpual160
p893
aVbiblbroks
p894
aVxixi4
p895
aVTheManvils
p896
aVbrettz9
p897
aVricmarques
p898
aVSadiquaP
p899
aVkendroche
p900
aVsugaki
p901
aVebello
p902
aVspat
p903
aValimofun
p904
aVpolaron
p905
aVpamparam
p906
aVandouble
p907
aVweepingbritney
p908
aVjaga
p909
aVsameboat
p910
aValexj
p911
aVyonskii
p912
aVDonovanCrow
p913
aVPascoeVale
p914
aVfenix_down
p915
aVM_AlKetbi
p916
aVjtdavies
p917
aVletitgo315
p918
aVjhissong
p919
aVBumix
p920
aVReedy
p921
aVsimonemonique
p922
aVDesilet
p923
aVJamcob
p924
aVHopeless308
p925
aVLdonbeatz
p926
aVCyclePat
p927
aVilovekorea
p928
aVLucindaBrown
p929
aVppwen
p930
aVsrice13
p931
aVd360
p932
aVKyraVixen
p933
aVFred_Rio
p934
aVKatelynBuress
p935
aVjamesontai
p936
aVCarlos_Barba
p937
aVDO
p938
aVjasz
p939
aVjoepeterpierce
p940
aVgkerridge
p941
aVm
p942
aVBevone
p943
aVjhecht
p944
aVnecesita
p945
aVDereckson
p946
aVandycarroll
p947
aVKKJJ
p948
aVPentiumIV
p949
aVAfricanGenesis
p950
aValbertodv
p951
aVradialblur
p952
aVpepo13
p953
aVSpaceMakers
p954
aVPorton
p955
aVjoshuajenkins
p956
aVRushyo
p957
aVqurus
p958
aVRick_bot
p959
aV42
p960
aVNeobenedict
p961
aVOryzomys
p962
aVARoberts07
p963
aValby13
p964
aVrawbery79
p965
aVsammieseagull
p966
aVzachblume
p967
aVyamavu
p968
aVppgardne
p969
aVSTEMNET
p970
aVseq23
p971
aVleboism
p972
aVstevei
p973
aVbluemonq
p974
aVskudrafan1
p975
aVelijahgoforth
p976
aVmagpie_boss
p977
aVdathill
p978
aVMTVCITY2
p979
aVFastLizard4
p980
aVtherealjan
p981
aVikluft
p982
aVciksha
p983
aVXp54321
p984
aVluciuskwok
p985
aVJoyousLake
p986
aVjakzhumans
p987
aVhowardberry
p988
aVVH8
p989
aVyjenith
p990
aVwoofnet
p991
aVArteyu
p992
aVSpikeToronto
p993
aVDannyAmazin
p994
aVlastorset
p995
aVgolden_eternity
p996
aVgloriacox22
p997
aVkakonya
p998
aVjim_north
p999
aVsmuconlaw
p1000
aVLowfly
p1001
atp1002
Rp1003
.