ccollections
defaultdict
p0
(c__builtin__
list
p1
tp2
Rp3
S'A15MK127K9F2DZ'
p4
(lp5
(dp6
S'Laptop'
p7
S'true'
p8
sa(dp9
S'Dog'
p10
S'true'
p11
sasS'A23S6QOSZH9TMT'
p12
(lp13
(dp14
S'Multiplication'
p15
S'false'
p16
sa(dp17
S'Love'
p18
S'true'
p19
sa(dp20
S'DIY_culture'
p21
S'true'
p22
sa(dp23
S'Eve'
p24
S'false'
p25
sa(dp26
S'God_the_Son'
p27
S'false'
p28
sa(dp29
S'Food_allergy'
p30
S'false'
p31
sa(dp32
S'Audio_engineering'
p33
S'false'
p34
sa(dp35
S'Waste'
p36
S'true'
p37
sa(dp38
S'Jacob_Cats'
p39
S'false'
p40
sa(dp41
S'Cat'
p42
S'true'
p43
sa(dp44
S'School'
p45
S'false'
p46
sa(dp47
S'Battle_Royale'
p48
S'false'
p49
sasS'A11C01B5PXL1QW'
p50
(lp51
(dp52
S'Skill'
p53
S'true'
p54
sasS'A3NU1SQPI1NXY4'
p55
(lp56
(dp57
S'Sentence_(linguistics)'
p58
S'true'
p59
sa(dp60
S'Gew\xc3\xbcrztraminer'
p61
S'false'
p62
sa(dp63
S'Mother_Nature'
p64
S'false'
p65
sa(dp66
S'Feature_story'
p67
S'false'
p68
sa(dp69
S'Typewriter'
p70
S'true'
p71
sa(dp72
S'Type_system'
p73
S'false'
p74
sa(dp75
S'Real_property'
p76
S'false'
p77
sa(dp78
S'The_Last_Temptation_of_Christ'
p79
S'false'
p80
sa(dp81
S'Singer'
p82
S'true'
p83
sa(dp84
S'Health_education'
p85
S'true'
p86
sa(dp87
S'Medicine'
p88
S'false'
p89
sa(dp90
S'Dogs_in_warfare'
p91
S'false'
p92
sa(dp93
S'List_of_horse_breeds'
p94
S'false'
p95
sa(dp96
S'Sex_toy'
p97
S'false'
p98
sa(dp99
S'Caterpillar'
p100
S'true'
p101
sa(dp102
S'The_Books'
p103
S'false'
p104
sa(dp105
S'Storey'
p106
S'false'
p107
sa(dp108
S'Peanut_butter_and_jelly_sandwich'
p109
S'false'
p110
sasS'A1VKHE5L6QVFUV'
p111
(lp112
(dp113
S'Multiculturalism'
p114
S'false'
p115
sa(dp116
S'Craft'
p117
S'true'
p118
sa(dp119
S'Robert_Craft'
p120
S'false'
p121
sa(dp122
S'The_Craft_(film)'
p123
S'false'
p124
sa(dp125
S'Jesus_Jones'
p126
S'false'
p127
sa(dp128
S'Witchcraft'
p129
S'false'
p130
sa(dp131
S'Queen_(album)'
p132
S'false'
p133
sa(dp134
S'Language'
p135
S'true'
p136
sa(dp137
S'Leet'
p138
S'false'
p139
sa(dp140
S'Sentences'
p141
S'false'
p142
sa(dp143
S'Kids_(Robbie_Williams_and_Kylie_Minogue_song)'
p144
S'false'
p145
sa(dp146
S'Tape_drive'
p147
S'false'
p148
sa(dp149
S'Craft'
p150
S'true'
p151
sa(dp152
S'Nature_(journal)'
p153
S'false'
p154
sa(dp155
S'Nature'
p156
S'true'
p157
sa(dp158
S'Robert_Craft'
p159
S'false'
p160
sa(dp161
S'C._P._Snow'
p162
S'false'
p163
sa(dp164
S'Craft_beer'
p165
S'false'
p166
sa(dp167
S'The_Craft_(film)'
p168
S'false'
p169
sa(dp170
S'Feature_film'
p171
S'false'
p172
sa(dp173
S'The_Features'
p174
S'false'
p175
sa(dp176
S'Person_County,_North_Carolina'
p177
S'false'
p178
sa(dp179
S'Temptation_of_Christ'
p180
S'false'
p181
sa(dp182
S'Godsmack'
p183
S'false'
p184
sa(dp185
S'Singing'
p186
S'true'
p187
sa(dp188
S'Temptation'
p189
S'true'
p190
sa(dp191
S'Sleep'
p192
S'true'
p193
sa(dp194
S'Mobile_Suit_Zeta_Gundam'
p195
S'false'
p196
sa(dp197
S'Sleep_(band)'
p198
S'false'
p199
sa(dp200
S'Friendship'
p201
S'true'
p202
sa(dp203
S'Religious_Society_of_Friends'
p204
S'false'
p205
sa(dp206
S'Wayne_Sleep'
p207
S'false'
p208
sa(dp209
S'Team_Sleep'
p210
S'false'
p211
sa(dp212
S'Son_(music)'
p213
S'false'
p214
sa(dp215
S'Son'
p216
S'true'
p217
sa(dp218
S'Songhay_languages'
p219
S'false'
p220
sa(dp221
S'Son_River'
p222
S'false'
p223
sa(dp224
S'Sonoma_County,_California'
p225
S'false'
p226
sa(dp227
S'Call_option'
p228
S'false'
p229
sa(dp230
S'Health'
p231
S'true'
p232
sa(dp233
S'Call_sign'
p234
S'false'
p235
sa(dp236
S'Health_(band)'
p237
S'false'
p238
sa(dp239
S'Percy_Bysshe_Shelley'
p240
S'false'
p241
sa(dp242
S'Question'
p243
S'true'
p244
sa(dp245
S'Question_(comics)'
p246
S'false'
p247
sa(dp248
S'Shamanism'
p249
S'false'
p250
sa(dp251
S'Call_and_response_(music)'
p252
S'false'
p253
sa(dp254
S'Soup'
p255
S'true'
p256
sa(dp257
S'Coffee_County,_Georgia'
p258
S'false'
p259
sa(dp260
S'Coffee_County,_Alabama'
p261
S'false'
p262
sa(dp263
S'Coffee_County,_Tennessee'
p264
S'false'
p265
sa(dp266
S'Coffea'
p267
S'false'
p268
sa(dp269
S'Joule_heating'
p270
S'false'
p271
sa(dp272
S'HVAC'
p273
S'false'
p274
sa(dp275
S'Central_heating'
p276
S'false'
p277
sa(dp278
S'Duck_Hunt'
p279
S'false'
p280
sa(dp281
S'Snoop_Dogg'
p282
S'false'
p283
sa(dp284
S'Nate_Dogg'
p285
S'false'
p286
sa(dp287
S'Shelter_(band)'
p288
S'false'
p289
sa(dp290
S'Shelter_(charity)'
p291
S'false'
p292
sa(dp293
S'Dog'
p294
S'true'
p295
sa(dp296
S'Caterpillar_Inc.'
p297
S'false'
p298
sa(dp299
S'Time_Inc.'
p300
S'false'
p301
sa(dp302
S'The_Time_(band)'
p303
S'false'
p304
sa(dp305
S'Time,_Norway'
p306
S'false'
p307
sa(dp308
S'Time'
p309
S'true'
p310
sa(dp311
S'Time_(magazine)'
p312
S'false'
p313
sa(dp314
S'The_Time_(Dirty_Bit)'
p315
S'false'
p316
sa(dp317
S'Price'
p318
S'true'
p319
sa(dp320
S'Price_County,_Wisconsin'
p321
S'false'
p322
sa(dp323
S'Price,_Utah'
p324
S'false'
p325
sa(dp326
S'Length'
p327
S'true'
p328
sa(dp329
S'Musical_theatre'
p330
S'false'
p331
sa(dp332
S'Floor_Jansen'
p333
S'false'
p334
sa(dp335
S'White_trash'
p336
S'false'
p337
sa(dp338
S'Dumpster_diving'
p339
S'false'
p340
sa(dp341
S'Noel_Prefontaine'
p342
S'false'
p343
sa(dp344
S'Palm_Pre'
p345
S'false'
p346
sa(dp347
S'Preston_railway_station'
p348
S'false'
p349
sa(dp350
S'Steve_Prefontaine'
p351
S'false'
p352
sa(dp353
S'Idea_Cellular'
p354
S'false'
p355
sa(dp356
S'Idea'
p357
S'true'
p358
sa(dp359
S'Bean'
p360
S'true'
p361
sa(dp362
S'Sandwich'
p363
S'true'
p364
sa(dp365
S'Reason_(software)'
p366
S'false'
p367
sa(dp368
S'Reason'
p369
S'true'
p370
sa(dp371
S'The_Reason_(Hoobastank_song)'
p372
S'false'
p373
sa(dp374
S'Reason_(magazine)'
p375
S'false'
p376
sa(dp377
S'Cat'
p378
S'true'
p379
sa(dp380
S'Kitten'
p381
S'true'
p382
sa(dp383
S'Shrine'
p384
S'true'
p385
sa(dp386
S'Shoaling_and_schooling'
p387
S'false'
p388
sa(dp389
S'Bleach_(album)'
p390
S'false'
p391
sa(dp392
S'Abdomen'
p393
S'true'
p394
sa(dp395
S'Science'
p396
S'true'
p397
sa(dp398
S'Kim_Deal'
p399
S'false'
p400
sa(dp401
S'Deal,_Kent'
p402
S'false'
p403
sa(dp404
S'Deal,_New_Jersey'
p405
S'false'
p406
sa(dp407
S'Jesus_Walks'
p408
S'false'
p409
sa(dp410
S'Jesus_Christ_Superstar'
p411
S'false'
p412
sasS'ATQWZNGQCN1RA'
p413
(lp414
(dp415
S'Multiplication'
p416
S'false'
p417
sa(dp418
S'Multiculturalism'
p419
S'false'
p420
sa(dp421
S'Love'
p422
S'true'
p423
sa(dp424
S'Romance_(love)'
p425
S'false'
p426
sa(dp427
S'Craft_unionism'
p428
S'false'
p429
sa(dp430
S'Craft_beer'
p431
S'false'
p432
sa(dp433
S'Craft'
p434
S'false'
p435
sa(dp436
S'Robert_Craft'
p437
S'false'
p438
sa(dp439
S'The_Craft_(film)'
p440
S'false'
p441
sa(dp442
S'Jesus_Jones'
p443
S'false'
p444
sa(dp445
S'Arts_and_crafts'
p446
S'true'
p447
sa(dp448
S'Jesus'
p449
S'true'
p450
sa(dp451
S'Witchcraft'
p452
S'false'
p453
sa(dp454
S'Queen_(album)'
p455
S'false'
p456
sa(dp457
S'Pressure_sensitive_tape'
p458
S'true'
p459
sa(dp460
S'Language'
p461
S'true'
p462
sa(dp463
S'Formal_language'
p464
S'false'
p465
sa(dp466
S'Videotape'
p467
S'false'
p468
sa(dp469
S'Programming_language'
p470
S'false'
p471
sa(dp472
S'Tape_music'
p473
S'false'
p474
sa(dp475
S'Leet'
p476
S'false'
p477
sa(dp478
S'Sentences'
p479
S'false'
p480
sa(dp481
S'Sentence_(linguistics)'
p482
S'true'
p483
sa(dp484
S'Kids_(film)'
p485
S'false'
p486
sa(dp487
S'American_Eagle_Outfitters'
p488
S'false'
p489
sa(dp490
S'4Kids_Entertainment'
p491
S'false'
p492
sa(dp493
S'Magnetic_tape'
p494
S'false'
p495
sa(dp496
S'Magnetic_tape_data_storage'
p497
S'false'
p498
sa(dp499
S'Kids_(Robbie_Williams_and_Kylie_Minogue_song)'
p500
S'false'
p501
sa(dp502
S'Tape'
p503
S'true'
p504
sa(dp505
S'Magnetic_tape_sound_recording'
p506
S'false'
p507
sa(dp508
S'Tape_recorder'
p509
S'false'
p510
sa(dp511
S'Compact_Cassette'
p512
S'false'
p513
sa(dp514
S'Gew\xc3\xbcrztraminer'
p515
S'false'
p516
sa(dp517
S'Nature_(TV_series)'
p518
S'false'
p519
sa(dp520
S'Tape_drive'
p521
S'false'
p522
sa(dp523
S'Digital_Audio_Tape'
p524
S'false'
p525
sa(dp526
S'La_Nature'
p527
S'false'
p528
sa(dp529
S'Adhesive_tape'
p530
S'true'
p531
sa(dp532
S'Mother_Nature'
p533
S'false'
p534
sa(dp535
S'Craft'
p536
S'true'
p537
sa(dp538
S'Nature_(journal)'
p539
S'false'
p540
sa(dp541
S'Nature'
p542
S'true'
p543
sa(dp544
S'Robert_Craft'
p545
S'false'
p546
sa(dp547
S'Search_and_seizure'
p548
S'false'
p549
sa(dp550
S'Craft_unionism'
p551
S''
p552
sa(dp553
S'C._P._Snow'
p554
S'false'
p555
sa(dp556
S'Craft_beer'
p557
S'false'
p558
sa(dp559
S'Arts_and_crafts'
p560
S'true'
p561
sa(dp562
S'Feature_story'
p563
S'false'
p564
sa(dp565
S'Feature_(archaeology)'
p566
S'false'
p567
sa(dp568
S'The_Craft_(film)'
p569
S'false'
p570
sa(dp571
S'Feature_film'
p572
S'false'
p573
sa(dp574
S'Witchcraft'
p575
S'false'
p576
sa(dp577
S'The_Features'
p578
S'false'
p579
sa(dp580
S'DIY_culture'
p581
S'false'
p582
sa(dp583
S'Typing'
p584
S'true'
p585
sa(dp586
S'Type_system'
p587
S'false'
p588
sa(dp589
S'Do_it_yourself'
p590
S'true'
p591
sa(dp592
S'Grammatical_person'
p593
S'false'
p594
sa(dp595
S'DIY_ethic'
p596
S'false'
p597
sa(dp598
S'Person_County,_North_Carolina'
p599
S'false'
p600
sa(dp601
S'DIY_Network'
p602
S'false'
p603
sa(dp604
S'Person'
p605
S'true'
p606
sa(dp607
S'Tweet'
p608
S'na'
p609
sa(dp610
S'Human'
p611
S'true'
p612
sa(dp613
S'Tweet_(singer)'
p614
S'false'
p615
sa(dp616
S'Property'
p617
S'true'
p618
sa(dp619
S'Real_estate'
p620
S'false'
p621
sa(dp622
S'Twitter'
p623
S'true'
p624
sa(dp625
S'Real_property'
p626
S'false'
p627
sa(dp628
S'The_Temptations'
p629
S'false'
p630
sa(dp631
S'Property_tax'
p632
S'false'
p633
sa(dp634
S'Temptation_of_Christ'
p635
S'false'
p636
sa(dp637
S'Property_insurance'
p638
S'false'
p639
sa(dp640
S'The_Last_Temptation_of_Christ'
p641
S'false'
p642
sa(dp643
S'Property_(philosophy)'
p644
S'false'
p645
sa(dp646
S'Property_law'
p647
S'false'
p648
sa(dp649
S'Eve'
p650
S'false'
p651
sa(dp652
S'Godsmack'
p653
S'false'
p654
sa(dp655
S'Confidence_trick'
p656
S'true'
p657
sa(dp658
S'Fraud'
p659
S'true'
p660
sa(dp661
S'Singing'
p662
S'true'
p663
sa(dp664
S'Temptation'
p665
S'true'
p666
sa(dp667
S'Singer'
p668
S'true'
p669
sa(dp670
S'The_temptation_of_St._Anthony_in_visual_arts'
p671
S'false'
p672
sa(dp673
S'Sleep'
p674
S'true'
p675
sa(dp676
S'Mobile_Suit_Zeta_Gundam'
p677
S'false'
p678
sa(dp679
S'The_Black_Parade'
p680
S'false'
p681
sa(dp682
S'Friends'
p683
S'false'
p684
sa(dp685
S'Sleep_(band)'
p686
S'false'
p687
sa(dp688
S'Friendship'
p689
S'true'
p690
sa(dp691
S'Religious_Society_of_Friends'
p692
S'false'
p693
sa(dp694
S'Health_insurance'
p695
S'false'
p696
sa(dp697
S'Wayne_Sleep'
p698
S'false'
p699
sa(dp700
S'Team_Sleep'
p701
S'false'
p702
sa(dp703
S'Health_care'
p704
S'false'
p705
sa(dp706
S'God_the_Son'
p707
S'false'
p708
sa(dp709
S'Health_economics'
p710
S'false'
p711
sa(dp712
S'Son_(music)'
p713
S'false'
p714
sa(dp715
S'Health_psychology'
p716
S'false'
p717
sa(dp718
S'Son'
p719
S'true'
p720
sa(dp721
S'Songhay_languages'
p722
S'false'
p723
sa(dp724
S'Son_River'
p725
S'false'
p726
sa(dp727
S'Sonoma_County,_California'
p728
S'false'
p729
sa(dp730
S'Health_education'
p731
S'false'
p732
sa(dp733
S'Allergy'
p734
S'true'
p735
sa(dp736
S'Call_option'
p737
S'false'
p738
sa(dp739
S'Health_(gaming)'
p740
S'false'
p741
sa(dp742
S'Health'
p743
S'true'
p744
sa(dp745
S'Call_sign'
p746
S'false'
p747
sa(dp748
S'Health_(band)'
p749
S'false'
p750
sa(dp751
S'Renee_Montoya'
p752
S'false'
p753
sa(dp754
S'Reproductive_health'
p755
S'false'
p756
sa(dp757
S'Percy_Bysshe_Shelley'
p758
S'false'
p759
sa(dp760
S'Medicine'
p761
S'true'
p762
sa(dp763
S'Question'
p764
S'true'
p765
sa(dp766
S'History_of_medicine'
p767
S'false'
p768
sa(dp769
S'Question_(comics)'
p770
S'false'
p771
sa(dp772
S'Shamanism'
p773
S'false'
p774
sa(dp775
S'Call_and_response_(music)'
p776
S'false'
p777
sa(dp778
S'Skill'
p779
S'true'
p780
sa(dp781
S'Statistic_(role-playing_games)'
p782
S'false'
p783
sa(dp784
S'One_Laptop_per_Child'
p785
S'false'
p786
sa(dp787
S'Laptop'
p788
S'true'
p789
sa(dp790
S'Soup'
p791
S'true'
p792
sa(dp793
S'The_Soup'
p794
S'false'
p795
sa(dp796
S'Soupy_Sales'
p797
S'false'
p798
sa(dp799
S'Coffee_County,_Georgia'
p800
S'false'
p801
sa(dp802
S'Coffee_County,_Alabama'
p803
S'false'
p804
sa(dp805
S'Coffee_County,_Tennessee'
p806
S'false'
p807
sa(dp808
S'Coffea'
p809
S'false'
p810
sa(dp811
S'Coffee'
p812
S'true'
p813
sa(dp814
S'Joule_heating'
p815
S'false'
p816
sa(dp817
S'HVAC'
p818
S'false'
p819
sa(dp820
S'Heating_system'
p821
S'false'
p822
sa(dp823
S'Heater'
p824
S'false'
p825
sa(dp826
S'Central_heating'
p827
S'false'
p828
sa(dp829
S'Four_Temperaments'
p830
S'false'
p831
sa(dp832
S'Musical_temperament'
p833
S'false'
p834
sa(dp835
S'Regular_temperament'
p836
S'false'
p837
sa(dp838
S'Dog'
p839
S'true'
p840
sa(dp841
S'Duck_Hunt'
p842
S'false'
p843
sa(dp844
S'Raccoon_Dog'
p845
S'false'
p846
sa(dp847
S'Isle_of_Dogs'
p848
S'false'
p849
sa(dp850
S'Snoop_Dogg'
p851
S'false'
p852
sa(dp853
S'Nate_Dogg'
p854
S'false'
p855
sa(dp856
S'Canidae'
p857
S'false'
p858
sa(dp859
S'Shelter_(band)'
p860
S'false'
p861
sa(dp862
S'Shelter_Records'
p863
S'false'
p864
sa(dp865
S'Shelter_(charity)'
p866
S'true'
p867
sa(dp868
S'Canidae'
p869
S'false'
p870
sa(dp871
S'Police_dog'
p872
S'false'
p873
sa(dp874
S'Dog'
p875
S'true'
p876
sa(dp877
S'Sled_dog'
p878
S'false'
p879
sa(dp880
S'Dogs_in_warfare'
p881
S'false'
p882
sa(dp883
S'Dog_(engineering)'
p884
S'false'
p885
sa(dp886
S'List_of_dog_breeds'
p887
S'true'
p888
sa(dp889
S'List_of_sheep_breeds'
p890
S'false'
p891
sa(dp892
S'List_of_horse_breeds'
p893
S'false'
p894
sa(dp895
S'Cat_breed'
p896
S'false'
p897
sa(dp898
S'Dog_breed'
p899
S'true'
p900
sa(dp901
S'Reproduction'
p902
S'false'
p903
sa(dp904
S'Breed'
p905
S'true'
p906
sa(dp907
S'Breeding_in_the_wild'
p908
S'false'
p909
sa(dp910
S'List_of_chicken_breeds'
p911
S'false'
p912
sa(dp913
S'Dragstrip'
p914
S'false'
p915
sa(dp916
S'Mile'
p917
S'true'
p918
sa(dp919
S'Toy'
p920
S'true'
p921
sa(dp922
S'Toy_dog'
p923
S'false'
p924
sa(dp925
S'Sex_toy'
p926
S'false'
p927
sa(dp928
S'Caterpillar_Inc.'
p929
S'false'
p930
sa(dp931
S'Caterpillar'
p932
S'true'
p933
sa(dp934
S"Caterpillar_(Alice's_Adventures_in_Wonderland)"
p935
S'false'
p936
sa(dp937
S'Father_Time'
p938
S'false'
p939
sa(dp940
S'Time_Inc.'
p941
S'false'
p942
sa(dp943
S'The_Time_(band)'
p944
S'false'
p945
sa(dp946
S'Time,_Norway'
p947
S'false'
p948
sa(dp949
S'Time_signature'
p950
S'false'
p951
sa(dp952
S'Time'
p953
S'true'
p954
sa(dp955
S'Time_(magazine)'
p956
S'false'
p957
sa(dp958
S'The_Time_(Dirty_Bit)'
p959
S'false'
p960
sa(dp961
S'Price'
p962
S'true'
p963
sa(dp964
S'Price_County,_Wisconsin'
p965
S'false'
p966
sa(dp967
S'Price,_Utah'
p968
S'false'
p969
sa(dp970
S'Length_overall'
p971
S'false'
p972
sa(dp973
S'Length'
p974
S'true'
p975
sa(dp976
S'Nineteen_Eighty-Four'
p977
S'false'
p978
sa(dp979
S'Book'
p980
S'true'
p981
sa(dp982
S'2003_in_literature'
p983
S'false'
p984
sa(dp985
S'The_Books'
p986
S'false'
p987
sa(dp988
S'Musical_theatre'
p989
S'false'
p990
sa(dp991
S'Whoopi_Goldberg'
p992
S'false'
p993
sa(dp994
S'Music_sequencer'
p995
S'false'
p996
sa(dp997
S'Image_editing'
p998
S'false'
p999
sa(dp1000
S'Editing'
p1001
S'true'
p1002
sa(dp1003
S'Digital_audio_editor'
p1004
S'false'
p1005
sa(dp1006
S'Film_editing'
p1007
S'false'
p1008
sa(dp1009
S'Audio_engineering'
p1010
S'true'
p1011
sa(dp1012
S'Floor_Jansen'
p1013
S'false'
p1014
sa(dp1015
S'Floor'
p1016
S'true'
p1017
sa(dp1018
S'Floor_(gymnastics)'
p1019
S'false'
p1020
sa(dp1021
S'Flooring'
p1022
S'false'
p1023
sa(dp1024
S'Waste'
p1025
S'true'
p1026
sa(dp1027
S'Trash'
p1028
S'na'
p1029
sa(dp1030
S'Sanitation'
p1031
S'false'
p1032
sa(dp1033
S'White_trash'
p1034
S'false'
p1035
sa(dp1036
S'Biodegradable_waste'
p1037
S'false'
p1038
sa(dp1039
S'Dumpster_diving'
p1040
S'false'
p1041
sa(dp1042
S'Exploitation_film'
p1043
S'false'
p1044
sa(dp1045
S'Noel_Prefontaine'
p1046
S'false'
p1047
sa(dp1048
S'Palm_Pre'
p1049
S'false'
p1050
sa(dp1051
S'Preston_railway_station'
p1052
S'false'
p1053
sa(dp1054
S'Steve_Prefontaine'
p1055
S'false'
p1056
sa(dp1057
S'Cut_(earthmoving)'
p1058
S'false'
p1059
sa(dp1060
S'Film_editing'
p1061
S'false'
p1062
sa(dp1063
S'Cutting'
p1064
S'true'
p1065
sa(dp1066
S'Idea_Cellular'
p1067
S'false'
p1068
sa(dp1069
S'Idea'
p1070
S'true'
p1071
sa(dp1072
S'Aether_(classical_element)'
p1073
S'false'
p1074
sa(dp1075
S'Phaseolus_vulgaris'
p1076
S'true'
p1077
sa(dp1078
S'With_the_Lights_Out'
p1079
S'false'
p1080
sa(dp1081
S'Bean'
p1082
S'true'
p1083
sa(dp1084
S'Sandwich'
p1085
S'true'
p1086
sa(dp1087
S'Peanut_butter_and_jelly_sandwich'
p1088
S'false'
p1089
sa(dp1090
S'Reason_(software)'
p1091
S'false'
p1092
sa(dp1093
S'Reason'
p1094
S'true'
p1095
sa(dp1096
S'The_Reason_(Hoobastank_song)'
p1097
S'false'
p1098
sa(dp1099
S'Reason_(magazine)'
p1100
S'false'
p1101
sa(dp1102
S'Felidae'
p1103
S'false'
p1104
sa(dp1105
S'Domestic_cat'
p1106
S'true'
p1107
sa(dp1108
S'Cats_(musical)'
p1109
S'false'
p1110
sa(dp1111
S'Jacob_Cats'
p1112
S'false'
p1113
sa(dp1114
S'Cat'
p1115
S'true'
p1116
sa(dp1117
S'Feral_cat'
p1118
S'false'
p1119
sa(dp1120
S'Cat'
p1121
S'false'
p1122
sa(dp1123
S'Kitten'
p1124
S'true'
p1125
sa(dp1126
S'Shinto_shrine'
p1127
S'false'
p1128
sa(dp1129
S'Shrine'
p1130
S'true'
p1131
sa(dp1132
S'School'
p1133
S'true'
p1134
sa(dp1135
S'Battle_Royale'
p1136
S'false'
p1137
sa(dp1138
S'Shoaling_and_schooling'
p1139
S'false'
p1140
sa(dp1141
S'Bleach_(album)'
p1142
S'false'
p1143
sa(dp1144
S'Abdomen'
p1145
S'true'
p1146
sa(dp1147
S'Opisthosoma'
p1148
S'false'
p1149
sa(dp1150
S'Science_(magazine)'
p1151
S'false'
p1152
sa(dp1153
S'Science'
p1154
S'true'
p1155
sa(dp1156
S'Science_(journal)'
p1157
S'false'
p1158
sa(dp1159
S'Clock'
p1160
S'true'
p1161
sa(dp1162
S'Game_clock'
p1163
S'false'
p1164
sa(dp1165
S'Beat_the_Clock'
p1166
S'false'
p1167
sa(dp1168
S'Clocks_(song)'
p1169
S'false'
p1170
sa(dp1171
S'Clock_signal'
p1172
S'false'
p1173
sa(dp1174
S'Nathan_Deal'
p1175
S'false'
p1176
sa(dp1177
S'Kim_Deal'
p1178
S'false'
p1179
sa(dp1180
S'Deal,_Kent'
p1181
S'false'
p1182
sa(dp1183
S'Deal,_New_Jersey'
p1184
S'false'
p1185
sa(dp1186
S'Jesus_Walks'
p1187
S'false'
p1188
sa(dp1189
S'Jesus_of_Nazareth_(miniseries)'
p1190
S'false'
p1191
sa(dp1192
S'Jesus_Christ_Superstar'
p1193
S'false'
p1194
sa(dp1195
S'Jesus_in_Islam'
p1196
S'false'
p1197
sasS'A1K9WP8Q74E9G2'
p1198
(lp1199
(dp1200
S'Craft_unionism'
p1201
S'false'
p1202
sa(dp1203
S'Jesus'
p1204
S'true'
p1205
sa(dp1206
S'Videotape'
p1207
S'false'
p1208
sa(dp1209
S'American_Eagle_Outfitters'
p1210
S'false'
p1211
sa(dp1212
S'Compact_Cassette'
p1213
S'false'
p1214
sa(dp1215
S'Nature_(TV_series)'
p1216
S'false'
p1217
sa(dp1218
S'La_Nature'
p1219
S'false'
p1220
sa(dp1221
S'Craft_unionism'
p1222
S'false'
p1223
sa(dp1224
S'Arts_and_crafts'
p1225
S'true'
p1226
sa(dp1227
S'Tweet'
p1228
S'true'
p1229
sa(dp1230
S'Property_law'
p1231
S'true'
p1232
sa(dp1233
S'The_Black_Parade'
p1234
S'false'
p1235
sa(dp1236
S'Friends'
p1237
S'false'
p1238
sa(dp1239
S'Health_insurance'
p1240
S'false'
p1241
sa(dp1242
S'Allergy'
p1243
S'true'
p1244
sa(dp1245
S'Renee_Montoya'
p1246
S'false'
p1247
sa(dp1248
S'The_Soup'
p1249
S'false'
p1250
sa(dp1251
S'Soupy_Sales'
p1252
S'false'
p1253
sa(dp1254
S'Canidae'
p1255
S'true'
p1256
sa(dp1257
S'Shelter_Records'
p1258
S'false'
p1259
sa(dp1260
S'Dog_(engineering)'
p1261
S'false'
p1262
sa(dp1263
S'Breeding_in_the_wild'
p1264
S'false'
p1265
sa(dp1266
S'Dragstrip'
p1267
S'false'
p1268
sa(dp1269
S"Caterpillar_(Alice's_Adventures_in_Wonderland)"
p1270
S'false'
p1271
sa(dp1272
S'Book'
p1273
S'true'
p1274
sa(dp1275
S'Floor'
p1276
S'true'
p1277
sa(dp1278
S'Floor_(gymnastics)'
p1279
S'false'
p1280
sa(dp1281
S'Sanitation'
p1282
S'true'
p1283
sa(dp1284
S'Exploitation_film'
p1285
S'false'
p1286
sa(dp1287
S'Cutting'
p1288
S'true'
p1289
sa(dp1290
S'Aether_(classical_element)'
p1291
S'false'
p1292
sa(dp1293
S'With_the_Lights_Out'
p1294
S'false'
p1295
sa(dp1296
S'Science_(journal)'
p1297
S'false'
p1298
sa(dp1299
S'Beat_the_Clock'
p1300
S'false'
p1301
sa(dp1302
S'Clocks_(song)'
p1303
S'false'
p1304
sa(dp1305
S'Nathan_Deal'
p1306
S'false'
p1307
sasS'AMAAE4PQGWD99'
p1308
(lp1309
(dp1310
S'Multiplication'
p1311
S'false'
p1312
sa(dp1313
S'Multiculturalism'
p1314
S'false'
p1315
sa(dp1316
S'Love'
p1317
S'true'
p1318
sa(dp1319
S'Romance_(love)'
p1320
S'true'
p1321
sa(dp1322
S'Craft_unionism'
p1323
S'false'
p1324
sa(dp1325
S'Craft_beer'
p1326
S'false'
p1327
sa(dp1328
S'Craft'
p1329
S'true'
p1330
sa(dp1331
S'Robert_Craft'
p1332
S'false'
p1333
sa(dp1334
S'The_Craft_(film)'
p1335
S'false'
p1336
sa(dp1337
S'Jesus_Jones'
p1338
S'false'
p1339
sa(dp1340
S'Arts_and_crafts'
p1341
S'true'
p1342
sa(dp1343
S'Jesus'
p1344
S'true'
p1345
sa(dp1346
S'Witchcraft'
p1347
S'false'
p1348
sa(dp1349
S'Queen_(album)'
p1350
S'false'
p1351
sa(dp1352
S'Pressure_sensitive_tape'
p1353
S'false'
p1354
sa(dp1355
S'Language'
p1356
S'true'
p1357
sa(dp1358
S'Formal_language'
p1359
S'false'
p1360
sa(dp1361
S'Programming_language'
p1362
S'false'
p1363
sa(dp1364
S'Tape_music'
p1365
S'false'
p1366
sa(dp1367
S'Leet'
p1368
S'false'
p1369
sa(dp1370
S'Sentences'
p1371
S'false'
p1372
sa(dp1373
S'Sentence_(linguistics)'
p1374
S'true'
p1375
sa(dp1376
S'Kids_(film)'
p1377
S'false'
p1378
sa(dp1379
S'American_Eagle_Outfitters'
p1380
S'false'
p1381
sa(dp1382
S'4Kids_Entertainment'
p1383
S'false'
p1384
sa(dp1385
S'Magnetic_tape'
p1386
S'false'
p1387
sa(dp1388
S'Magnetic_tape_data_storage'
p1389
S'false'
p1390
sa(dp1391
S'Kids_(Robbie_Williams_and_Kylie_Minogue_song)'
p1392
S'false'
p1393
sa(dp1394
S'Tape'
p1395
S'true'
p1396
sa(dp1397
S'Magnetic_tape_sound_recording'
p1398
S'false'
p1399
sa(dp1400
S'Tape_recorder'
p1401
S'false'
p1402
sa(dp1403
S'Compact_Cassette'
p1404
S'false'
p1405
sa(dp1406
S'Gew\xc3\xbcrztraminer'
p1407
S'false'
p1408
sa(dp1409
S'Nature_(TV_series)'
p1410
S'false'
p1411
sa(dp1412
S'Tape_drive'
p1413
S'false'
p1414
sa(dp1415
S'Digital_Audio_Tape'
p1416
S'false'
p1417
sa(dp1418
S'La_Nature'
p1419
S'false'
p1420
sa(dp1421
S'Adhesive_tape'
p1422
S'true'
p1423
sa(dp1424
S'Mother_Nature'
p1425
S'false'
p1426
sa(dp1427
S'Craft'
p1428
S'true'
p1429
sa(dp1430
S'Nature_(journal)'
p1431
S'false'
p1432
sa(dp1433
S'Nature'
p1434
S'true'
p1435
sa(dp1436
S'Robert_Craft'
p1437
S'false'
p1438
sa(dp1439
S'Search_and_seizure'
p1440
S'false'
p1441
sa(dp1442
S'Craft_unionism'
p1443
S'false'
p1444
sa(dp1445
S'C._P._Snow'
p1446
S'false'
p1447
sa(dp1448
S'Craft_beer'
p1449
S'false'
p1450
sa(dp1451
S'Arts_and_crafts'
p1452
S'true'
p1453
sa(dp1454
S'Feature_story'
p1455
S'false'
p1456
sa(dp1457
S'Feature_(archaeology)'
p1458
S'false'
p1459
sa(dp1460
S'The_Craft_(film)'
p1461
S'false'
p1462
sa(dp1463
S'Feature_film'
p1464
S'false'
p1465
sa(dp1466
S'Witchcraft'
p1467
S'false'
p1468
sa(dp1469
S'The_Features'
p1470
S'false'
p1471
sa(dp1472
S'Typewriter'
p1473
S'false'
p1474
sa(dp1475
S'DIY_culture'
p1476
S'true'
p1477
sa(dp1478
S'Typing'
p1479
S'true'
p1480
sa(dp1481
S'Type_system'
p1482
S'false'
p1483
sa(dp1484
S'Do_it_yourself'
p1485
S'true'
p1486
sa(dp1487
S'Grammatical_person'
p1488
S'false'
p1489
sa(dp1490
S'DIY_ethic'
p1491
S'true'
p1492
sa(dp1493
S'Person_County,_North_Carolina'
p1494
S'false'
p1495
sa(dp1496
S'DIY_Network'
p1497
S'true'
p1498
sa(dp1499
S'Person'
p1500
S'true'
p1501
sa(dp1502
S'Tweet'
p1503
S'true'
p1504
sa(dp1505
S'Human'
p1506
S'true'
p1507
sa(dp1508
S'Tweet_(singer)'
p1509
S'false'
p1510
sa(dp1511
S'Property'
p1512
S'true'
p1513
sa(dp1514
S'Real_estate'
p1515
S'false'
p1516
sa(dp1517
S'Twitter'
p1518
S'true'
p1519
sa(dp1520
S'Real_property'
p1521
S'true'
p1522
sa(dp1523
S'The_Temptations'
p1524
S'false'
p1525
sa(dp1526
S'Property_tax'
p1527
S'false'
p1528
sa(dp1529
S'Temptation_of_Christ'
p1530
S'false'
p1531
sa(dp1532
S'Property_insurance'
p1533
S'false'
p1534
sa(dp1535
S'The_Last_Temptation_of_Christ'
p1536
S'false'
p1537
sa(dp1538
S'Property_(philosophy)'
p1539
S'true'
p1540
sa(dp1541
S'Property_law'
p1542
S'true'
p1543
sa(dp1544
S'Eve'
p1545
S'false'
p1546
sa(dp1547
S'Godsmack'
p1548
S'false'
p1549
sa(dp1550
S'Confidence_trick'
p1551
S'true'
p1552
sa(dp1553
S'Fraud'
p1554
S'true'
p1555
sa(dp1556
S'Singing'
p1557
S'true'
p1558
sa(dp1559
S'Temptation'
p1560
S'true'
p1561
sa(dp1562
S'Singer'
p1563
S'true'
p1564
sa(dp1565
S'The_temptation_of_St._Anthony_in_visual_arts'
p1566
S'false'
p1567
sa(dp1568
S'Sleep'
p1569
S'true'
p1570
sa(dp1571
S'Mobile_Suit_Zeta_Gundam'
p1572
S'false'
p1573
sa(dp1574
S'The_Black_Parade'
p1575
S'false'
p1576
sa(dp1577
S'Friends'
p1578
S'false'
p1579
sa(dp1580
S'Sleep_(band)'
p1581
S'false'
p1582
sa(dp1583
S'Friendship'
p1584
S'true'
p1585
sa(dp1586
S'Religious_Society_of_Friends'
p1587
S'false'
p1588
sa(dp1589
S'Health_insurance'
p1590
S'true'
p1591
sa(dp1592
S'Wayne_Sleep'
p1593
S'false'
p1594
sa(dp1595
S'Team_Sleep'
p1596
S'false'
p1597
sa(dp1598
S'Health_care'
p1599
S'true'
p1600
sa(dp1601
S'God_the_Son'
p1602
S'false'
p1603
sa(dp1604
S'Health_economics'
p1605
S'true'
p1606
sa(dp1607
S'Son_(music)'
p1608
S'false'
p1609
sa(dp1610
S'Health_psychology'
p1611
S'true'
p1612
sa(dp1613
S'Son'
p1614
S'true'
p1615
sa(dp1616
S'Songhay_languages'
p1617
S'false'
p1618
sa(dp1619
S'Son_River'
p1620
S'false'
p1621
sa(dp1622
S'Sonoma_County,_California'
p1623
S'false'
p1624
sa(dp1625
S'Food_allergy'
p1626
S'true'
p1627
sa(dp1628
S'Health_education'
p1629
S'true'
p1630
sa(dp1631
S'Allergy'
p1632
S'true'
p1633
sa(dp1634
S'Call_option'
p1635
S'false'
p1636
sa(dp1637
S'Health_(gaming)'
p1638
S'false'
p1639
sa(dp1640
S'Health'
p1641
S'true'
p1642
sa(dp1643
S'Call_sign'
p1644
S'false'
p1645
sa(dp1646
S'Health_(band)'
p1647
S'false'
p1648
sa(dp1649
S'Renee_Montoya'
p1650
S'false'
p1651
sa(dp1652
S'Reproductive_health'
p1653
S'false'
p1654
sa(dp1655
S'Percy_Bysshe_Shelley'
p1656
S'false'
p1657
sa(dp1658
S'Medicine'
p1659
S'true'
p1660
sa(dp1661
S'Question'
p1662
S'true'
p1663
sa(dp1664
S'History_of_medicine'
p1665
S'true'
p1666
sa(dp1667
S'Question_(comics)'
p1668
S'false'
p1669
sa(dp1670
S'Shamanism'
p1671
S'false'
p1672
sa(dp1673
S'Call_and_response_(music)'
p1674
S'false'
p1675
sa(dp1676
S'Skill'
p1677
S'true'
p1678
sa(dp1679
S'Statistic_(role-playing_games)'
p1680
S'false'
p1681
sa(dp1682
S'One_Laptop_per_Child'
p1683
S'false'
p1684
sa(dp1685
S'Laptop'
p1686
S'true'
p1687
sa(dp1688
S'Soup'
p1689
S'true'
p1690
sa(dp1691
S'The_Soup'
p1692
S'false'
p1693
sa(dp1694
S'Soupy_Sales'
p1695
S'false'
p1696
sa(dp1697
S'Coffee_County,_Georgia'
p1698
S'false'
p1699
sa(dp1700
S'Coffee_County,_Alabama'
p1701
S'false'
p1702
sa(dp1703
S'Coffee_County,_Tennessee'
p1704
S'false'
p1705
sa(dp1706
S'Coffea'
p1707
S'true'
p1708
sa(dp1709
S'Coffee'
p1710
S'true'
p1711
sa(dp1712
S'Joule_heating'
p1713
S'false'
p1714
sa(dp1715
S'HVAC'
p1716
S'true'
p1717
sa(dp1718
S'Heating_system'
p1719
S'true'
p1720
sa(dp1721
S'Heater'
p1722
S'true'
p1723
sa(dp1724
S'Central_heating'
p1725
S'true'
p1726
sa(dp1727
S'Four_Temperaments'
p1728
S'false'
p1729
sa(dp1730
S'Musical_temperament'
p1731
S'false'
p1732
sa(dp1733
S'Regular_temperament'
p1734
S'false'
p1735
sa(dp1736
S'Dog'
p1737
S'true'
p1738
sa(dp1739
S'Duck_Hunt'
p1740
S'false'
p1741
sa(dp1742
S'Raccoon_Dog'
p1743
S'false'
p1744
sa(dp1745
S'Isle_of_Dogs'
p1746
S'false'
p1747
sa(dp1748
S'Snoop_Dogg'
p1749
S'false'
p1750
sa(dp1751
S'Nate_Dogg'
p1752
S'false'
p1753
sa(dp1754
S'Canidae'
p1755
S'true'
p1756
sa(dp1757
S'Shelter_(band)'
p1758
S'false'
p1759
sa(dp1760
S'Shelter_Records'
p1761
S'false'
p1762
sa(dp1763
S'Shelter_(charity)'
p1764
S'true'
p1765
sa(dp1766
S'Canidae'
p1767
S'true'
p1768
sa(dp1769
S'Police_dog'
p1770
S'true'
p1771
sa(dp1772
S'Dog'
p1773
S'true'
p1774
sa(dp1775
S'Sled_dog'
p1776
S'true'
p1777
sa(dp1778
S'Dogs_in_warfare'
p1779
S'true'
p1780
sa(dp1781
S'Dog_(engineering)'
p1782
S'false'
p1783
sa(dp1784
S'List_of_dog_breeds'
p1785
S'true'
p1786
sa(dp1787
S'List_of_sheep_breeds'
p1788
S'true'
p1789
sa(dp1790
S'List_of_horse_breeds'
p1791
S'true'
p1792
sa(dp1793
S'Cat_breed'
p1794
S'true'
p1795
sa(dp1796
S'Dog_breed'
p1797
g552
sa(dp1798
S'Reproduction'
p1799
S'false'
p1800
sa(dp1801
S'Breed'
p1802
S'true'
p1803
sa(dp1804
S'Breeding_in_the_wild'
p1805
S'false'
p1806
sa(dp1807
S'List_of_chicken_breeds'
p1808
S'false'
p1809
sa(dp1810
S'Dragstrip'
p1811
S'false'
p1812
sa(dp1813
S'Mile'
p1814
S'false'
p1815
sa(dp1816
S'Toy'
p1817
S'true'
p1818
sa(dp1819
S'Toy_dog'
p1820
S'false'
p1821
sa(dp1822
S'Sex_toy'
p1823
S'false'
p1824
sa(dp1825
S'Caterpillar_Inc.'
p1826
S'false'
p1827
sa(dp1828
S'Caterpillar'
p1829
S'true'
p1830
sa(dp1831
S"Caterpillar_(Alice's_Adventures_in_Wonderland)"
p1832
S'false'
p1833
sa(dp1834
S'Father_Time'
p1835
S'false'
p1836
sa(dp1837
S'Time_Inc.'
p1838
S'false'
p1839
sa(dp1840
S'The_Time_(band)'
p1841
S'false'
p1842
sa(dp1843
S'Time,_Norway'
p1844
S'false'
p1845
sa(dp1846
S'Time_signature'
p1847
S'false'
p1848
sa(dp1849
S'Time'
p1850
S'true'
p1851
sa(dp1852
S'Time_(magazine)'
p1853
S'false'
p1854
sa(dp1855
S'The_Time_(Dirty_Bit)'
p1856
S'false'
p1857
sa(dp1858
S'Price'
p1859
S'true'
p1860
sa(dp1861
S'Price_County,_Wisconsin'
p1862
S'false'
p1863
sa(dp1864
S'Price,_Utah'
p1865
S'false'
p1866
sa(dp1867
S'Length_overall'
p1868
S'false'
p1869
sa(dp1870
S'Length'
p1871
S'true'
p1872
sa(dp1873
S'Nineteen_Eighty-Four'
p1874
S'false'
p1875
sa(dp1876
S'Book'
p1877
S'true'
p1878
sa(dp1879
S'2003_in_literature'
p1880
S'false'
p1881
sa(dp1882
S'The_Books'
p1883
S'false'
p1884
sa(dp1885
S'Musical_theatre'
p1886
S'false'
p1887
sa(dp1888
S'Whoopi_Goldberg'
p1889
S'false'
p1890
sa(dp1891
S'Music_sequencer'
p1892
S'false'
p1893
sa(dp1894
S'Image_editing'
p1895
S'false'
p1896
sa(dp1897
S'Editing'
p1898
S'true'
p1899
sa(dp1900
S'Digital_audio_editor'
p1901
S'false'
p1902
sa(dp1903
S'Film_editing'
p1904
S'false'
p1905
sa(dp1906
S'Audio_engineering'
p1907
S'false'
p1908
sa(dp1909
S'Floor_Jansen'
p1910
S'false'
p1911
sa(dp1912
S'Floor'
p1913
S'true'
p1914
sa(dp1915
S'Floor_(gymnastics)'
p1916
S'false'
p1917
sa(dp1918
S'Flooring'
p1919
S'true'
p1920
sa(dp1921
S'Storey'
p1922
S'true'
p1923
sa(dp1924
S'Waste'
p1925
S'true'
p1926
sa(dp1927
S'Trash'
p1928
S'true'
p1929
sa(dp1930
S'Sanitation'
p1931
S'true'
p1932
sa(dp1933
S'White_trash'
p1934
S'false'
p1935
sa(dp1936
S'Biodegradable_waste'
p1937
S'false'
p1938
sa(dp1939
S'Dumpster_diving'
p1940
S'false'
p1941
sa(dp1942
S'Exploitation_film'
p1943
S'false'
p1944
sa(dp1945
S'Noel_Prefontaine'
p1946
S'false'
p1947
sa(dp1948
S'Palm_Pre'
p1949
S'false'
p1950
sa(dp1951
S'Preston_railway_station'
p1952
S'false'
p1953
sa(dp1954
S'Steve_Prefontaine'
p1955
S'false'
p1956
sa(dp1957
S'Cut_(earthmoving)'
p1958
S'false'
p1959
sa(dp1960
S'Film_editing'
p1961
S'false'
p1962
sa(dp1963
S'Cutting'
p1964
S'false'
p1965
sa(dp1966
S'Idea_Cellular'
p1967
S'false'
p1968
sa(dp1969
S'Idea'
p1970
S'true'
p1971
sa(dp1972
S'Aether_(classical_element)'
p1973
S'false'
p1974
sa(dp1975
S'Phaseolus_vulgaris'
p1976
S'true'
p1977
sa(dp1978
S'With_the_Lights_Out'
p1979
S'false'
p1980
sa(dp1981
S'Bean'
p1982
S'true'
p1983
sa(dp1984
S'Sandwich'
p1985
S'true'
p1986
sa(dp1987
S'Peanut_butter_and_jelly_sandwich'
p1988
S'true'
p1989
sa(dp1990
S'Reason_(software)'
p1991
S'false'
p1992
sa(dp1993
S'Reason'
p1994
S'true'
p1995
sa(dp1996
S'The_Reason_(Hoobastank_song)'
p1997
S'false'
p1998
sa(dp1999
S'Reason_(magazine)'
p2000
S'false'
p2001
sa(dp2002
S'Felidae'
p2003
S'true'
p2004
sa(dp2005
S'Domestic_cat'
p2006
S'true'
p2007
sa(dp2008
S'Cats_(musical)'
p2009
S'false'
p2010
sa(dp2011
S'Jacob_Cats'
p2012
S'false'
p2013
sa(dp2014
S'Cat'
p2015
S'true'
p2016
sa(dp2017
S'Feral_cat'
p2018
S'true'
p2019
sa(dp2020
S'Cat'
p2021
S'true'
p2022
sa(dp2023
S'Kitten'
p2024
S'true'
p2025
sa(dp2026
S'Shinto_shrine'
p2027
S'true'
p2028
sa(dp2029
S'Shrine'
p2030
S'true'
p2031
sa(dp2032
S'School'
p2033
S'true'
p2034
sa(dp2035
S'Battle_Royale'
p2036
S'false'
p2037
sa(dp2038
S'Shoaling_and_schooling'
p2039
S'false'
p2040
sa(dp2041
S'Bleach_(album)'
p2042
S'false'
p2043
sa(dp2044
S'Abdomen'
p2045
S'true'
p2046
sa(dp2047
S'Opisthosoma'
p2048
S'false'
p2049
sa(dp2050
S'Science_(magazine)'
p2051
S'false'
p2052
sa(dp2053
S'Science'
p2054
S'true'
p2055
sa(dp2056
S'Science_(journal)'
p2057
S'false'
p2058
sa(dp2059
S'Clock'
p2060
S'false'
p2061
sa(dp2062
S'Game_clock'
p2063
S'false'
p2064
sa(dp2065
S'Beat_the_Clock'
p2066
S'false'
p2067
sa(dp2068
S'Clocks_(song)'
p2069
S'false'
p2070
sa(dp2071
S'Clock_signal'
p2072
S'false'
p2073
sa(dp2074
S'Nathan_Deal'
p2075
S'false'
p2076
sa(dp2077
S'Kim_Deal'
p2078
S'false'
p2079
sa(dp2080
S'Deal,_Kent'
p2081
S'false'
p2082
sa(dp2083
S'Deal,_New_Jersey'
p2084
S'false'
p2085
sa(dp2086
S'Jesus_Walks'
p2087
S'false'
p2088
sa(dp2089
S'Jesus_of_Nazareth_(miniseries)'
p2090
S'true'
p2091
sa(dp2092
S'Jesus_Christ_Superstar'
p2093
S'false'
p2094
sa(dp2095
S'Jesus_in_Islam'
p2096
S'true'
p2097
sasS'A2FCGEU5RTEWG8'
p2098
(lp2099
(dp2100
S'Videotape'
p2101
S'false'
p2102
sa(dp2103
S'Kids_(film)'
p2104
S'false'
p2105
sa(dp2106
S'Magnetic_tape_data_storage'
p2107
S'false'
p2108
sa(dp2109
S'Typing'
p2110
S'true'
p2111
sa(dp2112
S'The_Temptations'
p2113
S'false'
p2114
sa(dp2115
S'Isle_of_Dogs'
p2116
S'false'
p2117
sa(dp2118
S'Toy'
p2119
S'true'
p2120
sa(dp2121
S'Time_signature'
p2122
S'false'
p2123
sa(dp2124
S'Domestic_cat'
p2125
S'true'
p2126
sa(dp2127
S'Cats_(musical)'
p2128
S'false'
p2129
sasS'A2T5CROJ0FWIJY'
p2130
(lp2131
(dp2132
S'Romance_(love)'
p2133
S'false'
p2134
sa(dp2135
S'Craft_beer'
p2136
S'false'
p2137
sa(dp2138
S'Arts_and_crafts'
p2139
S'true'
p2140
sa(dp2141
S'Pressure_sensitive_tape'
p2142
S'false'
p2143
sa(dp2144
S'Formal_language'
p2145
S'false'
p2146
sa(dp2147
S'Programming_language'
p2148
S'false'
p2149
sa(dp2150
S'Tape_music'
p2151
S'false'
p2152
sa(dp2153
S'4Kids_Entertainment'
p2154
S'false'
p2155
sa(dp2156
S'Magnetic_tape'
p2157
S'false'
p2158
sa(dp2159
S'Tape'
p2160
S'true'
p2161
sa(dp2162
S'Magnetic_tape_sound_recording'
p2163
S'false'
p2164
sa(dp2165
S'Tape_recorder'
p2166
S'false'
p2167
sa(dp2168
S'Digital_Audio_Tape'
p2169
S'false'
p2170
sa(dp2171
S'Adhesive_tape'
p2172
S'true'
p2173
sa(dp2174
S'Search_and_seizure'
p2175
S'false'
p2176
sa(dp2177
S'Feature_(archaeology)'
p2178
S'false'
p2179
sa(dp2180
S'Witchcraft'
p2181
S'false'
p2182
sa(dp2183
S'Typewriter'
p2184
S'false'
p2185
sa(dp2186
S'Do_it_yourself'
p2187
S'true'
p2188
sa(dp2189
S'Grammatical_person'
p2190
S'false'
p2191
sa(dp2192
S'DIY_ethic'
p2193
S'true'
p2194
sa(dp2195
S'DIY_Network'
p2196
S'false'
p2197
sa(dp2198
S'Person'
p2199
S'true'
p2200
sa(dp2201
S'Human'
p2202
S'false'
p2203
sa(dp2204
S'Tweet_(singer)'
p2205
S'false'
p2206
sa(dp2207
S'Property'
p2208
S'true'
p2209
sa(dp2210
S'Real_estate'
p2211
S'false'
p2212
sa(dp2213
S'Twitter'
p2214
S'true'
p2215
sa(dp2216
S'Property_tax'
p2217
S'false'
p2218
sa(dp2219
S'Property_insurance'
p2220
S'false'
p2221
sa(dp2222
S'Property_(philosophy)'
p2223
S'false'
p2224
sa(dp2225
S'Confidence_trick'
p2226
S'true'
p2227
sa(dp2228
S'Fraud'
p2229
S'true'
p2230
sa(dp2231
S'The_temptation_of_St._Anthony_in_visual_arts'
p2232
S'false'
p2233
sa(dp2234
S'Health_care'
p2235
S'false'
p2236
sa(dp2237
S'Health_economics'
p2238
S'false'
p2239
sa(dp2240
S'Health_psychology'
p2241
S'false'
p2242
sa(dp2243
S'Food_allergy'
p2244
S'false'
p2245
sa(dp2246
S'Health_(gaming)'
p2247
S'false'
p2248
sa(dp2249
S'Reproductive_health'
p2250
S'false'
p2251
sa(dp2252
S'History_of_medicine'
p2253
S'false'
p2254
sa(dp2255
S'Statistic_(role-playing_games)'
p2256
S'false'
p2257
sa(dp2258
S'One_Laptop_per_Child'
p2259
S'false'
p2260
sa(dp2261
S'Coffee'
p2262
S'true'
p2263
sa(dp2264
S'Heating_system'
p2265
S'false'
p2266
sa(dp2267
S'Heater'
p2268
S'true'
p2269
sa(dp2270
S'Four_Temperaments'
p2271
S'false'
p2272
sa(dp2273
S'Musical_temperament'
p2274
S'false'
p2275
sa(dp2276
S'Regular_temperament'
p2277
S'false'
p2278
sa(dp2279
S'Raccoon_Dog'
p2280
S'false'
p2281
sa(dp2282
S'Canidae'
p2283
S'true'
p2284
sa(dp2285
S'Police_dog'
p2286
S'false'
p2287
sa(dp2288
S'Sled_dog'
p2289
S'false'
p2290
sa(dp2291
S'List_of_dog_breeds'
p2292
S'true'
p2293
sa(dp2294
S'List_of_sheep_breeds'
p2295
S'false'
p2296
sa(dp2297
S'Cat_breed'
p2298
S'false'
p2299
sa(dp2300
S'Dog_breed'
p2301
S'true'
p2302
sa(dp2303
S'Reproduction'
p2304
S'false'
p2305
sa(dp2306
S'Breed'
p2307
S'true'
p2308
sa(dp2309
S'List_of_chicken_breeds'
p2310
S'false'
p2311
sa(dp2312
S'Mile'
p2313
S'false'
p2314
sa(dp2315
S'Toy_dog'
p2316
S'false'
p2317
sa(dp2318
S'Father_Time'
p2319
S'false'
p2320
sa(dp2321
S'Length_overall'
p2322
S'false'
p2323
sa(dp2324
S'Nineteen_Eighty-Four'
p2325
S'false'
p2326
sa(dp2327
S'2003_in_literature'
p2328
S'false'
p2329
sa(dp2330
S'Whoopi_Goldberg'
p2331
S'false'
p2332
sa(dp2333
S'Music_sequencer'
p2334
S'false'
p2335
sa(dp2336
S'Image_editing'
p2337
S'false'
p2338
sa(dp2339
S'Editing'
p2340
S'true'
p2341
sa(dp2342
S'Digital_audio_editor'
p2343
S'false'
p2344
sa(dp2345
S'Film_editing'
p2346
S'false'
p2347
sa(dp2348
S'Flooring'
p2349
S'false'
p2350
sa(dp2351
S'Storey'
p2352
S'false'
p2353
sa(dp2354
S'Trash'
p2355
S'true'
p2356
sa(dp2357
S'Biodegradable_waste'
p2358
S'true'
p2359
sa(dp2360
S'Cut_(earthmoving)'
p2361
S'false'
p2362
sa(dp2363
S'Film_editing'
p2364
S'false'
p2365
sa(dp2366
S'Phaseolus_vulgaris'
p2367
S'true'
p2368
sa(dp2369
S'Felidae'
p2370
S'true'
p2371
sa(dp2372
S'Feral_cat'
p2373
S'false'
p2374
sa(dp2375
S'Shinto_shrine'
p2376
S'false'
p2377
sa(dp2378
S'Opisthosoma'
p2379
S'true'
p2380
sa(dp2381
S'Science_(magazine)'
p2382
S'false'
p2383
sa(dp2384
S'Clock'
p2385
S'true'
p2386
sa(dp2387
S'Game_clock'
p2388
S'false'
p2389
sa(dp2390
S'Clock_signal'
p2391
S'false'
p2392
sa(dp2393
S'Jesus_of_Nazareth_(miniseries)'
p2394
S'false'
p2395
sa(dp2396
S'Jesus_in_Islam'
p2397
S'false'
p2398
sas.