(dp0
S'9823582280486913_sleep'
p1
(dp2
S'The_Black_Parade'
p3
(I0
I3
tp4
sS'Sleep'
p5
(I3
I0
tp6
sS'Wayne_Sleep'
p7
(I0
I3
tp8
sS'Sleep_(band)'
p9
(I0
I3
tp10
sS'Team_Sleep'
p11
(I0
I3
tp12
ssS'29519005326_clock'
p13
(dp14
S'Beat_the_Clock'
p15
(I0
I3
tp16
sS'Clock_signal'
p17
(I0
I3
tp18
sS'Game_clock'
p19
(I0
I3
tp20
sS'Clocks_(song)'
p21
(I0
I3
tp22
sS'Clock'
p23
(I2
I1
tp24
ssS'24020818587_typing'
p25
(dp26
S'Type_system'
p27
(I0
I3
tp28
sS'Typing'
p29
(I3
I0
tp30
sS'Typewriter'
p31
(I1
I2
tp32
ssS'18851802260_kids'
p33
(dp34
S'Kids_(Robbie_Williams_and_Kylie_Minogue_song)'
p35
(I0
I3
tp36
sS'American_Eagle_Outfitters'
p37
(I0
I3
tp38
sS'Kids_(film)'
p39
(I0
I3
tp40
sS'4Kids_Entertainment'
p41
(I0
I3
tp42
ssS'20926896192_mile'
p43
(dp44
S'Mile'
p45
(I1
I2
tp46
sS'Dragstrip'
p47
(I0
I3
tp48
ssS'243468422904688640_multi'
p49
(dp50
S'Multiplication'
p51
(I0
I3
tp52
sS'Multiculturalism'
p53
(I0
I3
tp54
ssS'21324116134_question'
p55
(dp56
S'Question_(comics)'
p57
(I0
I3
tp58
sS'Call_and_response_(music)'
p59
(I0
I3
tp60
sS'Question'
p61
(I3
I0
tp62
sS'Percy_Bysshe_Shelley'
p63
(I0
I3
tp64
sS'Renee_Montoya'
p65
(I0
I3
tp66
ssS'17322987380285440_editing'
p67
(dp68
S'Audio_engineering'
p69
(I1
I2
tp70
sS'Digital_audio_editor'
p71
(I0
I3
tp72
sS'Music_sequencer'
p73
(I0
I3
tp74
sS'Image_editing'
p75
(I0
I3
tp76
sS'Editing'
p77
(I3
I0
tp78
sS'Film_editing'
p79
(I0
I3
tp80
ssS'19690793991_heating'
p81
(dp82
S'Heating_system'
p83
(I1
I2
tp84
sS'Heater'
p85
(I2
I1
tp86
sS'Central_heating'
p87
(I1
I2
tp88
sS'Joule_heating'
p89
(I0
I3
tp90
sS'HVAC'
p91
(I1
I2
tp92
ssS'17322987380285440_book'
p93
(dp94
S'Musical_theatre'
p95
(I0
I3
tp96
sS'The_Books'
p97
(I0
I3
tp98
sS'Whoopi_Goldberg'
p99
(I0
I3
tp100
sS'Book'
p101
(I3
I0
tp102
sS'Nineteen_Eighty-Four'
p103
(I0
I3
tp104
sS'2003_in_literature'
p105
(I0
I3
tp106
ssS'24020818587_feature'
p107
(dp108
S'Feature_(archaeology)'
p109
(I0
I3
tp110
sS'Feature_film'
p111
(I0
I3
tp112
sS'Feature_story'
p113
(I0
I3
tp114
sS'The_Features'
p115
(I0
I3
tp116
ssS'3192809314058240_person'
p117
(dp118
S'Grammatical_person'
p119
(I0
I3
tp120
sS'Person'
p121
(I3
I0
tp122
sS'Person_County,_North_Carolina'
p123
(I0
I3
tp124
sS'Human'
p125
(I2
I1
tp126
ssS'18851802260_nature'
p127
(dp128
S'Mother_Nature'
p129
(I0
I3
tp130
sS'Nature_(TV_series)'
p131
(I0
I3
tp132
sS'Nature'
p133
(I3
I0
tp134
sS'Nature_(journal)'
p135
(I0
I3
tp136
sS'Gew\xc3\xbcrztraminer'
p137
(I0
I3
tp138
sS'La_Nature'
p139
(I0
I3
tp140
ssS'9823582280486913_singing'
p141
(dp142
S'Singer'
p143
(I3
I0
tp144
sS'Singing'
p145
(I3
I0
tp146
ssS'17322987380285440_price'
p147
(dp148
S'Price'
p149
(I3
I0
tp150
sS'Price_County,_Wisconsin'
p151
(I0
I3
tp152
sS'Price,_Utah'
p153
(I0
I3
tp154
ssS'18609889857_toy'
p155
(dp156
S'Toy'
p157
(I3
I0
tp158
sS'Toy_dog'
p159
(I0
I3
tp160
sS'Sex_toy'
p161
(I0
I3
tp162
ssS'18440338115_sentences'
p163
(dp164
S'Sentence_(linguistics)'
p165
(I3
I0
tp166
sS'Sentences'
p167
(I0
I3
tp168
ssS'24020818587_search'
p169
(dp170
S'C._P._Snow'
p171
(I0
I3
tp172
sS'Search_and_seizure'
p173
(I0
I3
tp174
ssS'22227688043_kitten'
p175
(dp176
S'Kitten'
p177
(I3
I0
tp178
sS'Cat'
p179
(I2
I1
tp180
ssS'19774778494_shrine'
p181
(dp182
S'Shinto_shrine'
p183
(I1
I2
tp184
sS'Shrine'
p185
(I3
I0
tp186
ssS'243468422904688640_love'
p187
(dp188
S'Love'
p189
(I3
I0
tp190
sS'Romance_(love)'
p191
(I1
I2
tp192
ssS'22559453258_trash'
p193
(dp194
S'Trash'
p195
(I2
I1
tp196
sS'Sanitation'
p197
(I2
I1
tp198
sS'Exploitation_film'
p199
(I0
I3
tp200
sS'Biodegradable_waste'
p201
(I1
I2
tp202
sS'Waste'
p203
(I3
I0
tp204
sS'Dumpster_diving'
p205
(I0
I3
tp206
sS'White_trash'
p207
(I0
I3
tp208
ssS'27831201288_skill'
p209
(dp210
S'Skill'
p211
(I3
I0
tp212
sS'Statistic_(role-playing_games)'
p213
(I0
I3
tp214
ssS'29519188114_deal'
p215
(dp216
S'Deal,_New_Jersey'
p217
(I0
I3
tp218
sS'Kim_Deal'
p219
(I0
I3
tp220
sS'Nathan_Deal'
p221
(I0
I3
tp222
sS'Deal,_Kent'
p223
(I0
I3
tp224
ssS'18363662339_tweet'
p225
(dp226
S'Tweet_(singer)'
p227
(I0
I3
tp228
sS'Tweet'
p229
(I2
I1
tp230
sS'Twitter'
p231
(I3
I0
tp232
ssS'243466125302714368_craft'
p233
(dp234
S'Witchcraft'
p235
(I0
I3
tp236
sS'The_Craft_(film)'
p237
(I0
I3
tp238
sS'Craft_unionism'
p239
(I0
I3
tp240
sS'Craft'
p241
(I3
I0
tp242
sS'Arts_and_crafts'
p243
(I3
I0
tp244
sS'Craft_beer'
p245
(I0
I3
tp246
sS'Robert_Craft'
p247
(I0
I3
tp248
ssS'243466125302714368_diy'
p249
(dp250
S'Do_it_yourself'
p251
(I3
I0
tp252
sS'DIY_ethic'
p253
(I2
I1
tp254
sS'DIY_Network'
p255
(I1
I2
tp256
sS'DIY_culture'
p257
(I2
I1
tp258
ssS'27831201288_medicine'
p259
(dp260
S'Medicine'
p261
(I2
I1
tp262
sS'Shamanism'
p263
(I0
I3
tp264
sS'History_of_medicine'
p265
(I1
I2
tp266
ssS'6947001950277632_science'
p267
(dp268
S'Science_(magazine)'
p269
(I0
I3
tp270
sS'Science'
p271
(I3
I0
tp272
sS'Science_(journal)'
p273
(I0
I3
tp274
ssS'6947001950277632_abdomens'
p275
(dp276
S'Abdomen'
p277
(I3
I0
tp278
sS'Opisthosoma'
p279
(I1
I2
tp280
ssS'26381124175_beans'
p281
(dp282
S'Phaseolus_vulgaris'
p283
(I3
I0
tp284
sS'Bean'
p285
(I3
I0
tp286
sS'With_the_Lights_Out'
p287
(I0
I3
tp288
ssS'22559453258_floor'
p289
(dp290
S'Storey'
p291
(I1
I2
tp292
sS'Floor_(gymnastics)'
p293
(I0
I3
tp294
sS'Flooring'
p295
(I1
I2
tp296
sS'Floor_Jansen'
p297
(I0
I3
tp298
sS'Floor'
p299
(I3
I0
tp300
ssS'22367630910_shelter'
p301
(dp302
S'Shelter_(charity)'
p303
(I2
I1
tp304
sS'Shelter_(band)'
p305
(I0
I3
tp306
sS'Shelter_Records'
p307
(I0
I3
tp308
ssS'27831201288_health'
p309
(dp310
S'Health_(gaming)'
p311
(I0
I3
tp312
sS'Health_psychology'
p313
(I1
I2
tp314
sS'Reproductive_health'
p315
(I0
I3
tp316
sS'Health_economics'
p317
(I1
I2
tp318
sS'Health_insurance'
p319
(I1
I2
tp320
sS'Health'
p321
(I3
I0
tp322
sS'Health_care'
p323
(I1
I2
tp324
sS'Health_education'
p325
(I2
I1
tp326
sS'Health_(band)'
p327
(I0
I3
tp328
ssS'243468422904688640_tape'
p329
(dp330
S'Magnetic_tape'
p331
(I0
I3
tp332
sS'Videotape'
p333
(I0
I3
tp334
sS'Tape_recorder'
p335
(I0
I3
tp336
sS'Digital_Audio_Tape'
p337
(I0
I3
tp338
sS'Tape_music'
p339
(I0
I3
tp340
sS'Tape_drive'
p341
(I0
I3
tp342
sS'Magnetic_tape_sound_recording'
p343
(I0
I3
tp344
sS'Tape'
p345
(I3
I0
tp346
sS'Adhesive_tape'
p347
(I3
I0
tp348
sS'Magnetic_tape_data_storage'
p349
(I0
I3
tp350
sS'Compact_Cassette'
p351
(I0
I3
tp352
sS'Pressure_sensitive_tape'
p353
(I1
I2
tp354
ssS'22367630910_breeds'
p355
(dp356
S'List_of_dog_breeds'
p357
(I3
I0
tp358
sS'Cat_breed'
p359
(I1
I2
tp360
sS'List_of_horse_breeds'
p361
(I1
I2
tp362
sS'List_of_sheep_breeds'
p363
(I1
I2
tp364
sS'Breed'
p365
(I3
I0
tp366
sS'Breeding_in_the_wild'
p367
(I0
I3
tp368
sS'List_of_chicken_breeds'
p369
(I0
I3
tp370
sS'Reproduction'
p371
(I0
I3
tp372
sS'Dog_breed'
p373
(I2
I1
tp374
ssS'385951167676416_temptation'
p375
(dp376
S'Mobile_Suit_Zeta_Gundam'
p377
(I0
I3
tp378
sS'Temptation'
p379
(I3
I0
tp380
sS'The_Temptations'
p381
(I0
I3
tp382
sS'Eve'
p383
(I0
I3
tp384
sS'The_Last_Temptation_of_Christ'
p385
(I0
I3
tp386
sS'The_temptation_of_St._Anthony_in_visual_arts'
p387
(I0
I3
tp388
sS'Temptation_of_Christ'
p389
(I0
I3
tp390
ssS'18544710674_laptop'
p391
(dp392
S'Laptop'
p393
(I3
I0
tp394
sS'One_Laptop_per_Child'
p395
(I0
I3
tp396
ssS'385951167676416_friends'
p397
(dp398
S'Friendship'
p399
(I3
I0
tp400
sS'Religious_Society_of_Friends'
p401
(I0
I3
tp402
sS'Friends'
p403
(I0
I3
tp404
ssS'6947001950277632_school'
p405
(dp406
S'Shoaling_and_schooling'
p407
(I0
I3
tp408
sS'School'
p409
(I2
I1
tp410
sS'Bleach_(album)'
p411
(I0
I3
tp412
sS'Battle_Royale'
p413
(I0
I3
tp414
ssS'22367630910_dog'
p415
(dp416
S'Duck_Hunt'
p417
(I0
I3
tp418
sS'Nate_Dogg'
p419
(I0
I3
tp420
sS'Canidae'
p421
(I2
I1
tp422
sS'Isle_of_Dogs'
p423
(I0
I3
tp424
sS'Dog'
p425
(I3
I0
tp426
sS'Raccoon_Dog'
p427
(I0
I3
tp428
sS'Snoop_Dogg'
p429
(I0
I3
tp430
ssS'26381124175_ideas'
p431
(dp432
S'Aether_(classical_element)'
p433
(I0
I3
tp434
sS'Idea'
p435
(I3
I0
tp436
sS'Idea_Cellular'
p437
(I0
I3
tp438
ssS'18875908185_reason'
p439
(dp440
S'The_Reason_(Hoobastank_song)'
p441
(I0
I3
tp442
sS'Reason_(software)'
p443
(I0
I3
tp444
sS'Reason'
p445
(I3
I0
tp446
sS'Reason_(magazine)'
p447
(I0
I3
tp448
ssS'19690793991_soup'
p449
(dp450
S'Soup'
p451
(I3
I0
tp452
sS'Soupy_Sales'
p453
(I0
I3
tp454
sS'The_Soup'
p455
(I0
I3
tp456
ssS'26381124175_sandwiches'
p457
(dp458
S'Peanut_butter_and_jelly_sandwich'
p459
(I1
I2
tp460
sS'Sandwich'
p461
(I3
I0
tp462
ssS'17322987380285440_length'
p463
(dp464
S'Length'
p465
(I3
I0
tp466
sS'Length_overall'
p467
(I0
I3
tp468
ssS'22367630910_temperaments'
p469
(dp470
S'Musical_temperament'
p471
(I0
I3
tp472
sS'Four_Temperaments'
p473
(I0
I3
tp474
sS'Regular_temperament'
p475
(I0
I3
tp476
ssS'21242251462_call'
p477
(dp478
S'Call_sign'
p479
(I0
I3
tp480
sS'Call_option'
p481
(I0
I3
tp482
ssS'26381124175_pre'
p483
(dp484
S'Steve_Prefontaine'
p485
(I0
I3
tp486
sS'Noel_Prefontaine'
p487
(I0
I3
tp488
sS'Preston_railway_station'
p489
(I0
I3
tp490
sS'Palm_Pre'
p491
(I0
I3
tp492
ssS'26381124175_cut'
p493
(dp494
S'Cutting'
p495
(I2
I1
tp496
sS'Cut_(earthmoving)'
p497
(I0
I3
tp498
sS'Film_editing'
p499
(I0
I3
tp500
ssS'186810580311605248_scam'
p501
(dp502
S'Godsmack'
p503
(I0
I3
tp504
sS'Fraud'
p505
(I3
I0
tp506
sS'Confidence_trick'
p507
(I3
I0
tp508
ssS'22227688043_cats'
p509
(dp510
S'Felidae'
p511
(I2
I1
tp512
sS'Feral_cat'
p513
(I1
I2
tp514
sS'Cat'
p515
(I3
I0
tp516
sS'Cats_(musical)'
p517
(I0
I3
tp518
sS'Jacob_Cats'
p519
(I0
I3
tp520
sS'Domestic_cat'
p521
(I3
I0
tp522
ssS'18440338115_language'
p523
(dp524
S'Programming_language'
p525
(I0
I3
tp526
sS'Leet'
p527
(I0
I3
tp528
sS'Formal_language'
p529
(I0
I3
tp530
sS'Language'
p531
(I3
I0
tp532
ssS'18609889857_caterpillar'
p533
(dp534
S'Caterpillar'
p535
(I3
I0
tp536
sS"Caterpillar_(Alice's_Adventures_in_Wonderland)"
p537
(I0
I3
tp538
sS'Caterpillar_Inc.'
p539
(I0
I3
tp540
ssS'9823582280486913_son'
p541
(dp542
S'Songhay_languages'
p543
(I0
I3
tp544
sS'Sonoma_County,_California'
p545
(I0
I3
tp546
sS'Son_River'
p547
(I0
I3
tp548
sS'Son'
p549
(I3
I0
tp550
sS'God_the_Son'
p551
(I0
I3
tp552
sS'Son_(music)'
p553
(I0
I3
tp554
ssS'22367630910_dogs'
p555
(dp556
S'Sled_dog'
p557
(I1
I2
tp558
sS'Dogs_in_warfare'
p559
(I1
I2
tp560
sS'Canidae'
p561
(I2
I1
tp562
sS'Police_dog'
p563
(I1
I2
tp564
sS'Dog'
p565
(I3
I0
tp566
sS'Dog_(engineering)'
p567
(I0
I3
tp568
ssS'18609889857_time'
p569
(dp570
S'Time_(magazine)'
p571
(I0
I3
tp572
sS'Time,_Norway'
p573
(I0
I3
tp574
sS'The_Time_(band)'
p575
(I0
I3
tp576
sS'Father_Time'
p577
(I0
I3
tp578
sS'Time_signature'
p579
(I0
I3
tp580
sS'Time'
p581
(I3
I0
tp582
sS'Time_Inc.'
p583
(I0
I3
tp584
sS'The_Time_(Dirty_Bit)'
p585
(I0
I3
tp586
ssS'29519188114_jesus'
p587
(dp588
S'Jesus_Jones'
p589
(I0
I3
tp590
sS'Jesus'
p591
(I3
I0
tp592
sS'Jesus_Christ_Superstar'
p593
(I0
I3
tp594
sS'Jesus_of_Nazareth_(miniseries)'
p595
(I1
I2
tp596
sS'Jesus_in_Islam'
p597
(I1
I2
tp598
sS'Jesus_Walks'
p599
(I0
I3
tp600
sS'Queen_(album)'
p601
(I0
I3
tp602
ssS'21242251462_allergy'
p603
(dp604
S'Allergy'
p605
(I3
I0
tp606
sS'Food_allergy'
p607
(I1
I2
tp608
ssS'19690793991_coffee'
p609
(dp610
S'Coffee_County,_Tennessee'
p611
(I0
I3
tp612
sS'Coffee_County,_Alabama'
p613
(I0
I3
tp614
sS'Coffee'
p615
(I3
I0
tp616
sS'Coffee_County,_Georgia'
p617
(I0
I3
tp618
sS'Coffea'
p619
(I1
I2
tp620
ssS'243468422904688640_craft'
p621
(dp622
S'Witchcraft'
p623
(I0
I3
tp624
sS'The_Craft_(film)'
p625
(I0
I3
tp626
sS'Craft_unionism'
p627
(I0
I3
tp628
sS'Craft'
p629
(I2
I1
tp630
sS'Arts_and_crafts'
p631
(I3
I0
tp632
sS'Craft_beer'
p633
(I0
I3
tp634
sS'Robert_Craft'
p635
(I0
I3
tp636
ssS'3192809314058240_property'
p637
(dp638
S'Property_insurance'
p639
(I0
I3
tp640
sS'Real_property'
p641
(I1
I2
tp642
sS'Property_law'
p643
(I2
I1
tp644
sS'Property_tax'
p645
(I0
I3
tp646
sS'Property_(philosophy)'
p647
(I1
I2
tp648
sS'Real_estate'
p649
(I0
I3
tp650
sS'Property'
p651
(I3
I0
tp652
ss.