(dp0
V94.159.154.23
p1
(lp2
sV75.44.216.69
p3
(lp4
V709187
p5
asVMuhandes
p6
(lp7
V7221308
p8
aV9565973
p9
aV16178383
p10
aV19776420
p11
aV13546346
p12
aV35537441
p13
aV36027128
p14
aV35677015
p15
aV2513652
p16
aV5740209
p17
aV7242481
p18
aV19941774
p19
aV19941857
p20
aV6961226
p21
aV2664512
p22
aV7738857
p23
aV22660060
p24
aV5902925
p25
aV36029071
p26
aV13325164
p27
aV1282180
p28
aV9011843
p29
aV2412401
p30
aV30576583
p31
aV3222584
p32
aV2122663
p33
aV36000634
p34
aV36000624
p35
aV36000609
p36
aV26850718
p37
aV36028026
p38
aV1506026
p39
asVBPositive
p40
(lp41
V227809
p42
aV2401051
p43
aV11291348
p44
aV20522498
p45
aV31348569
p46
aV7358085
p47
aV2298280
p48
aV36001224
p49
aV492474
p50
aV2611610
p51
aV35989849
p52
aV564046
p53
asV90.218.98.162
p54
(lp55
V101359
p56
asVHurricanehink
p57
(lp58
V32424201
p59
aV27384758
p60
aV23120866
p61
aV34753228
p62
aV28048479
p63
aV33292501
p64
aV35954027
p65
aV35999637
p66
aV262333
p67
aV9704012
p68
aV35984534
p69
aV3348601
p70
aV7813004
p71
asV187.127.236.34
p72
(lp73
V13004556
p74
aV13532955
p75
aV4483441
p76
aV10951651
p77
aV6540239
p78
aV1723100
p79
aV8550973
p80
aV843612
p81
asV158.184.224.160
p82
(lp83
V15516
p84
asVSNIyer12
p85
(lp86
V6236472
p87
aV31515049
p88
aV1141484
p89
aV33241363
p90
aV31503115
p91
aV29782802
p92
aV21617148
p93
aV21728
p94
aV23741
p95
aV6825581
p96
aV287125
p97
aV2208981
p98
aV3177042
p99
aV753781
p100
aV14473108
p101
aV28967018
p102
aV29106211
p103
aV304025
p104
aV214167
p105
aV28067737
p106
aV329902
p107
aV35576309
p108
aV2065372
p109
aV11490154
p110
aV11494134
p111
aV2049643
p112
asV82.24.99.217
p113
(lp114
V933395
p115
asV99.126.68.22
p116
(lp117
sVRacconish
p118
(lp119
V25877945
p120
aV319884
p121
aV35049440
p122
aV33007181
p123
aV435492
p124
aV31305641
p125
asV190.26.65.245
p126
(lp127
sVArbero
p128
(lp129
V23638354
p130
aV2868934
p131
aV9904
p132
aV711598
p133
aV2798180
p134
aV20749153
p135
aV21899497
p136
aV1327509
p137
aV3040449
p138
aV2862709
p139
aV11411461
p140
aV28316969
p141
aV19799359
p142
aV440460
p143
aV1655123
p144
aV13180206
p145
aV679716
p146
aV990757
p147
aV15396183
p148
aV159867
p149
aV1252555
p150
aV1009065
p151
aV662351
p152
asVDMacks
p153
(lp154
V36037093
p155
aV29687012
p156
aV2830423
p157
aV1030551
p158
aV2157582
p159
aV9803445
p160
aV68769
p161
aV189874
p162
aV16025582
p163
aV1528387
p164
aV16623
p165
aV35581213
p166
aV21281411
p167
aV10024
p168
aV20817369
p169
aV14975
p170
aV991210
p171
aV2419312
p172
aV25878800
p173
aV7117831
p174
aV59497
p175
aV18308
p176
aV22210872
p177
aV36027165
p178
aV14348703
p179
aV2473501
p180
aV1274769
p181
aV36006776
p182
aV6252572
p183
aV11605778
p184
aV8100833
p185
aV2849654
p186
aV301486
p187
aV3056180
p188
asVKudzuVine
p189
(lp190
V11801620
p191
aV18014097
p192
aV16386225
p193
aV3046726
p194
aV16266649
p195
aV3820058
p196
aV4867272
p197
aV36012480
p198
aV36000324
p199
aV7737651
p200
aV26332027
p201
aV35956215
p202
aV16241688
p203
aV8893733
p204
aV16344559
p205
aV16201129
p206
aV16169438
p207
aV7803123
p208
aV35943986
p209
aV35943871
p210
aV35943754
p211
aV12041643
p212
aV16101888
p213
aV2615378
p214
aV13643332
p215
aV16118866
p216
aV15771509
p217
aV15799689
p218
aV23019764
p219
aV15799567
p220
aV15771151
p221
aV35924664
p222
aV35925051
p223
aV35925184
p224
aV14284157
p225
aV14317812
p226
aV16524273
p227
aV110543
p228
aV1196230
p229
aV768065
p230
aV3540852
p231
aV641002
p232
aV7526443
p233
aV24364875
p234
aV6883027
p235
aV18589376
p236
aV18562537
p237
asV61.12.18.217
p238
(lp239
V30623977
p240
aV9765756
p241
aV889645
p242
aV2734327
p243
aV9028683
p244
aV1018617
p245
aV147718
p246
aV478225
p247
aV35137638
p248
aV1466381
p249
aV852742
p250
aV3457911
p251
aV34460856
p252
aV950378
p253
aV21465870
p254
aV24175279
p255
asV12.39.179.62
p256
(lp257
V2803980
p258
aV4990678
p259
asVJacmcquade
p260
(lp261
V6267869
p262
asVBusyWikipedian
p263
(lp264
V34757412
p265
aV5858869
p266
aV34587403
p267
aV33214089
p268
asVFavonian
p269
(lp270
V36037995
p271
aV919129
p272
aV37231
p273
aV36028391
p274
aV36028380
p275
aV36028361
p276
aV36028343
p277
aV30767480
p278
aV848691
p279
aV33925
p280
aV36016805
p281
aV36016716
p282
aV1824966
p283
aV36008433
p284
aV77363
p285
aV19012
p286
aV46924
p287
aV2274234
p288
aV27948
p289
aV15842
p290
aV211372
p291
aV14276148
p292
aV35981280
p293
aV35981237
p294
aV13049327
p295
aV21759
p296
aV21469003
p297
aV35614807
p298
aV19355
p299
aV4526806
p300
aV35974193
p301
aV35973980
p302
aV35973974
p303
aV5804918
p304
aV6323098
p305
aV374214
p306
aV11063
p307
aV18973446
p308
aV2147854
p309
aV844538
p310
aV35960627
p311
aV35970333
p312
aV35502
p313
aV8569916
p314
aV19350
p315
asVMatascichem
p316
(lp317
sV212.41.70.180
p318
(lp319
sVEricSerge
p320
(lp321
V1398118
p322
aV36037068
p323
aV32162586
p324
aV30740492
p325
aV9294168
p326
aV9583154
p327
aV664877
p328
aV14446
p329
aV2718091
p330
aV2541646
p331
aV17810
p332
aV9511810
p333
aV908825
p334
aV212182
p335
aV603346
p336
aV413714
p337
aV33933521
p338
aV35995220
p339
aV774454
p340
aV888445
p341
aV32455836
p342
aV1396741
p343
aV13755029
p344
aV29236100
p345
aV23829156
p346
aV19204750
p347
aV436167
p348
aV35984872
p349
aV13988338
p350
asV67.134.56.2
p351
(lp352
V17038853
p353
aV2975050
p354
aV18285325
p355
aV8156765
p356
aV4917658
p357
aV336544
p358
aV287264
p359
aV54633
p360
aV8134202
p361
aV545001
p362
aV14966439
p363
aV13743226
p364
aV22653949
p365
aV29944
p366
aV10244706
p367
aV704723
p368
aV9918870
p369
aV3373358
p370
aV18811891
p371
asVPeridon
p372
(lp373
V36037272
p374
aV32867688
p375
aV35804633
p376
aV3152334
p377
aV35767243
p378
aV35969268
p379
aV22931722
p380
aV1076027
p381
aV35941923
p382
aV13342203
p383
aV386986
p384
aV35847366
p385
aV168008
p386
aV23720770
p387
aV3125431
p388
aV35809999
p389
aV35809363
p390
aV2531364
p391
aV1037763
p392
aV35542155
p393
aV35709458
p394
aV35734695
p395
aV35715398
p396
aV11488804
p397
aV35645315
p398
aV2008633
p399
asVCountessOMar
p400
(lp401
V12946195
p402
asVMelcombe
p403
(lp404
V3404894
p405
aV21417820
p406
aV1519880
p407
aV102476
p408
aV23009144
p409
aV511307
p410
aV19284585
p411
aV6885770
p412
aV3374455
p413
aV3374374
p414
aV184099
p415
aV14343887
p416
aV191457
p417
aV7176679
p418
aV5599330
p419
aV2172840
p420
aV24522
p421
aV49571
p422
aV206948
p423
aV35204025
p424
aV1364506
p425
aV34983797
p426
asVVertium
p427
(lp428
V18965478
p429
aV35805450
p430
aV1124508
p431
aV13005625
p432
aV709664
p433
aV35925951
p434
aV412807
p435
aV588813
p436
aV15792160
p437
aV31000631
p438
aV2283332
p439
aV2710081
p440
asV92.238.149.150
p441
(lp442
V331074
p443
aV6228067
p444
aV7612954
p445
aV8935676
p446
aV830589
p447
aV23511189
p448
asV109.152.194.213
p449
(lp450
V1890473
p451
aV27827481
p452
aV34132939
p453
asV118.102.194.66
p454
(lp455
V376844
p456
aV3536669
p457
aV31263619
p458
asV66.31.101.206
p459
(lp460
sV72.62.250.91
p461
(lp462
V518916
p463
asVCanadianEman
p464
(lp465
V1604089
p466
asV70.165.47.130
p467
(lp468
V4334176
p469
aV196147
p470
aV17247957
p471
aV12925911
p472
aV1795277
p473
aV3705665
p474
aV1165959
p475
aV3443107
p476
aV6352133
p477
aV55791
p478
aV432205
p479
aV197015
p480
aV736919
p481
aV33258687
p482
aV3522089
p483
aV1089963
p484
aV723665
p485
asVMenkinAlRire
p486
(lp487
V19181720
p488
aV586138
p489
aV297412
p490
aV262673
p491
aV2767190
p492
aV422568
p493
aV1253409
p494
aV3103077
p495
aV558946
p496
aV2029104
p497
aV12669439
p498
aV12765056
p499
aV589693
p500
aV1196107
p501
aV1234558
p502
aV4113768
p503
aV26616851
p504
aV406539
p505
aV34132820
p506
aV84633
p507
aV4340419
p508
aV20899248
p509
aV695316
p510
aV11291943
p511
aV624204
p512
aV190153
p513
aV8157548
p514
aV739770
p515
aV4574812
p516
aV20438049
p517
asV173.197.180.115
p518
(lp519
V602264
p520
asV69.136.96.78
p521
(lp522
V2028297
p523
aV11361709
p524
aV19367783
p525
aV12345085
p526
aV2932229
p527
aV34919729
p528
aV33928
p529
aV12799492
p530
aV5443971
p531
aV6169609
p532
aV3880748
p533
aV4298542
p534
aV20431479
p535
aV30865836
p536
aV32789778
p537
aV159481
p538
aV1778172
p539
aV393562
p540
aV28445065
p541
aV11757949
p542
aV19068480
p543
aV1924338
p544
aV1441263
p545
aV31940519
p546
aV1374606
p547
aV1427427
p548
aV1427419
p549
aV1423542
p550
aV1413984
p551
aV1413980
p552
aV1404721
p553
aV238617
p554
aV1355813
p555
aV532176
p556
asV67.242.60.37
p557
(lp558
V33826286
p559
asV24.12.45.248
p560
(lp561
V2991011
p562
asV78.144.241.168
p563
(lp564
V15137637
p565
aV6124755
p566
asVLucas.tej
p567
(lp568
V3028191
p569
aV3282937
p570
aV2908254
p571
aV33592458
p572
aV33145323
p573
aV35795679
p574
aV3454378
p575
aV23004897
p576
aV14732518
p577
aV24222255
p578
aV27891201
p579
aV2411718
p580
asV208.81.184.4
p581
(lp582
V1415022
p583
aV1918743
p584
aV1133862
p585
aV1401714
p586
aV53678
p587
aV10681794
p588
aV28491
p589
aV33613
p590
aV848308
p591
aV35941633
p592
aV594109
p593
aV343808
p594
aV45868
p595
aV8757402
p596
aV1192308
p597
aV14346658
p598
aV11901400
p599
aV106791
p600
aV14578166
p601
aV858344
p602
aV1773184
p603
aV14125518
p604
aV77603
p605
aV22215026
p606
aV30389032
p607
aV10681353
p608
aV34305964
p609
aV13553438
p610
aV32146
p611
aV25491848
p612
aV853100
p613
aV21475328
p614
aV4271629
p615
aV3371178
p616
aV3556067
p617
aV106721
p618
asVJbraith
p619
(lp620
V236455
p621
asV14.96.163.67
p622
(lp623
V34107500
p624
asVJonRichfield
p625
(lp626
V4901720
p627
aV5072111
p628
aV24104729
p629
aV2135845
p630
aV5471566
p631
aV248314
p632
aV642755
p633
aV2152845
p634
aV673275
p635
aV35727199
p636
aV29164424
p637
aV308981
p638
aV152288
p639
aV463755
p640
aV53469
p641
aV17598541
p642
aV4432524
p643
aV661661
p644
aV197179
p645
aV12405185
p646
aV12410781
p647
aV46980
p648
aV18697521
p649
aV520635
p650
aV19653902
p651
aV378783
p652
aV23965763
p653
aV1195124
p654
aV3782813
p655
aV54969
p656
aV12902586
p657
aV293751
p658
asVFruitMonkey
p659
(lp660
V339588
p661
aV48686
p662
aV1090219
p663
aV2700
p664
aV19013570
p665
aV34961061
p666
aV13016071
p667
aV34240971
p668
aV23280989
p669
aV5570445
p670
aV17410497
p671
aV18197859
p672
aV22822929
p673
aV19579361
p674
aV19621298
p675
aV21020990
p676
aV17910290
p677
aV12873439
p678
aV21036004
p679
aV14070062
p680
aV14052717
p681
aV2619668
p682
aV18678019
p683
asVOpenFuture
p684
(lp685
V9358436
p686
aV1105595
p687
aV1105582
p688
aV1735236
p689
aV3969819
p690
aV44606
p691
aV24751386
p692
aV31411190
p693
aV284507
p694
aV22234838
p695
aV402866
p696
aV17644927
p697
aV25940902
p698
aV1619255
p699
aV5763249
p700
aV10355056
p701
aV1602346
p702
aV32040137
p703
aV1425014
p704
aV2394584
p705
aV1031900
p706
aV878537
p707
aV236177
p708
aV30271489
p709
aV34957028
p710
aV128026
p711
aV20059490
p712
aV8247295
p713
aV35812638
p714
aV193299
p715
aV3999168
p716
aV5818536
p717
aV9164
p718
aV28779218
p719
aV12903134
p720
aV3074930
p721
asVKatmaan
p722
(lp723
V3632550
p724
aV133302
p725
asVOceanflynn
p726
(lp727
V34059424
p728
aV1437721
p729
aV1449946
p730
aV11675105
p731
aV6679663
p732
asVBagumba
p733
(lp734
V2006045
p735
aV367106
p736
aV879354
p737
aV28391178
p738
aV30719313
p739
aV1465302
p740
aV9164017
p741
aV2933015
p742
aV986593
p743
aV35188042
p744
aV35188885
p745
aV901032
p746
aV31217009
p747
aV3033673
p748
aV35949377
p749
aV209178
p750
aV2196332
p751
aV30561537
p752
aV2788291
p753
aV34685110
p754
aV23807661
p755
aV26920
p756
aV33819262
p757
aV4661937
p758
aV7895061
p759
aV4952434
p760
aV4597713
p761
asV80.3.185.216
p762
(lp763
V33621163
p764
asV72.130.95.13
p765
(lp766
V34167588
p767
aV1028241
p768
asV93.215.88.40
p769
(lp770
V310411
p771
asV82.169.6.26
p772
(lp773
V34960402
p774
aV11940612
p775
aV4397892
p776
aV8287714
p777
aV1312869
p778
aV813789
p779
aV1898344
p780
aV2266765
p781
asVSergecross73
p782
(lp783
V27565825
p784
aV113193
p785
aV32552065
p786
aV9785797
p787
aV11589522
p788
aV36034155
p789
aV3410343
p790
aV35953347
p791
aV35670524
p792
aV34643933
p793
aV32596792
p794
aV29056
p795
aV364934
p796
aV35006975
p797
aV31463
p798
aV34074754
p799
aV35494464
p800
aV336539
p801
aV9255946
p802
aV35254302
p803
asVTpbradbury
p804
(lp805
V25086027
p806
aV11002
p807
aV1215553
p808
aV25164846
p809
aV4911401
p810
aV30882319
p811
aV12782528
p812
aV1038970
p813
aV432969
p814
aV238832
p815
aV18618607
p816
aV40203
p817
aV11867
p818
aV414741
p819
aV26751
p820
aV8203
p821
aV65568
p822
aV35551855
p823
aV7954643
p824
aV31742
p825
aV8973
p826
aV67893
p827
aV21473
p828
aV1164394
p829
asV205.154.55.192
p830
(lp831
V360128
p832
asVAleistad
p833
(lp834
V175446
p835
aV6583221
p836
aV11026
p837
asV69.165.217.17
p838
(lp839
V6914089
p840
aV1129572
p841
aV3688721
p842
aV7866768
p843
aV574767
p844
aV26466057
p845
asV82.10.205.183
p846
(lp847
V2193250
p848
aV578426
p849
aV15472645
p850
aV92604
p851
aV6881707
p852
aV6881508
p853
aV2193318
p854
aV4993929
p855
aV370097
p856
aV1266289
p857
aV66426
p858
aV1132161
p859
aV5179207
p860
aV370077
p861
aV1113158
p862
aV23904135
p863
aV877811
p864
aV30653203
p865
aV2193303
p866
aV2193334
p867
aV552500
p868
aV217053
p869
aV1705091
p870
asV68.60.76.247
p871
(lp872
sV68.83.30.48
p873
(lp874
V12009484
p875
asV209.90.98.254
p876
(lp877
sV41.177.4.26
p878
(lp879
V16595794
p880
aV181535
p881
aV2032208
p882
aV42132
p883
asVSunCreator
p884
(lp885
V36036222
p886
aV5630919
p887
aV5630970
p888
aV12170304
p889
aV5630961
p890
aV5630944
p891
aV5630936
p892
aV5630929
p893
aV913579
p894
aV36012575
p895
aV36012555
p896
aV36012521
p897
aV36012057
p898
aV36012078
p899
aV36012534
p900
aV36012541
p901
aV36020935
p902
aV5856181
p903
aV36020880
p904
aV36012972
p905
aV12507345
p906
aV34496450
p907
aV36017013
p908
aV3677435
p909
aV36016965
p910
aV36016963
p911
aV36016962
p912
aV36016960
p913
aV36016959
p914
aV36016958
p915
aV36016957
p916
aV36016956
p917
aV36016953
p918
aV36016940
p919
aV36016938
p920
aV36016937
p921
aV36016936
p922
aV36016935
p923
aV36016934
p924
aV36016932
p925
aV34579928
p926
aV36015485
p927
aV36015429
p928
aV36015475
p929
aV15308397
p930
aV36015448
p931
asVMrjohncummings
p932
(lp933
V17877290
p934
aV4975827
p935
aV665207
p936
aV33303869
p937
aV34342016
p938
aV24389
p939
aV2635753
p940
aV101663
p941
aV101289
p942
aV1277653
p943
aV23573947
p944
aV35518890
p945
aV1963626
p946
aV14272811
p947
aV35538777
p948
aV35556088
p949
aV35528184
p950
aV22257441
p951
aV655533
p952
aV23878587
p953
aV34434267
p954
aV34491408
p955
aV21468429
p956
aV38567
p957
aV125248
p958
aV946746
p959
aV469219
p960
aV468323
p961
aV8770636
p962
aV17021443
p963
asVCgiese
p964
(lp965
V25528614
p966
aV24410863
p967
asV69.42.11.180
p968
(lp969
V29767956
p970
aV6466211
p971
aV16235734
p972
aV3445901
p973
aV33557087
p974
aV1910093
p975
aV291395
p976
aV7005099
p977
aV184391
p978
aV19650323
p979
aV1234161
p980
aV254871
p981
aV5584997
p982
aV8482499
p983
asVPhil36
p984
(lp985
V36038008
p986
asVNapsync
p987
(lp988
V10921127
p989
aV31460
p990
aV7966353
p991
aV43568
p992
aV18994196
p993
aV7558034
p994
aV10180504
p995
aV35890534
p996
aV3152334
p997
aV13208590
p998
aV5792809
p999
aV35934168
p1000
aV52711
p1001
aV352699
p1002
aV35925543
p1003
aV44849
p1004
aV15215
p1005
aV26581
p1006
aV894399
p1007
aV462001
p1008
aV71870
p1009
asVMathiassandell
p1010
(lp1011
V36037980
p1012
aV3545769
p1013
aV144171
p1014
aV35337205
p1015
aV35012237
p1016
aV23416671
p1017
aV23241605
p1018
aV23886952
p1019
aV26076481
p1020
aV26354327
p1021
aV25540801
p1022
aV24318610
p1023
aV29619114
p1024
aV28064121
p1025
aV30831550
p1026
aV34552696
p1027
aV12310814
p1028
asVMuboshgu
p1029
(lp1030
V1261379
p1031
aV6766939
p1032
aV33084475
p1033
aV35576309
p1034
aV1022769
p1035
aV34634541
p1036
aV35980256
p1037
aV3487794
p1038
aV697601
p1039
aV23839526
p1040
aV3644109
p1041
aV30872183
p1042
aV24522328
p1043
aV30625300
p1044
aV10870825
p1045
aV13118401
p1046
aV22564913
p1047
aV36021079
p1048
aV3402333
p1049
aV2969986
p1050
aV31325380
p1051
aV1174226
p1052
aV23748848
p1053
aV6886716
p1054
aV21034082
p1055
aV218947
p1056
asVSylee1209
p1057
(lp1058
V3045799
p1059
asVTorchiest
p1060
(lp1061
V36037488
p1062
aV23532305
p1063
aV13894
p1064
aV19156642
p1065
aV36037116
p1066
aV22422593
p1067
aV4671044
p1068
aV22045255
p1069
aV35959865
p1070
aV3387761
p1071
aV4845988
p1072
aV1146982
p1073
aV21235144
p1074
aV91199
p1075
aV2767190
p1076
aV8303604
p1077
aV2558582
p1078
aV35967263
p1079
aV27898616
p1080
aV3305892
p1081
aV5472603
p1082
aV151590
p1083
aV10730229
p1084
aV3046280
p1085
aV21745045
p1086
aV30322468
p1087
aV9403579
p1088
aV35468368
p1089
aV32850365
p1090
aV3057530
p1091
aV35979325
p1092
aV10610261
p1093
aV360734
p1094
aV9857300
p1095
asV74.173.105.47
p1096
(lp1097
V35698939
p1098
aV35479773
p1099
aV35736033
p1100
aV3585187
p1101
aV3147955
p1102
aV716613
p1103
aV3555022
p1104
aV4676833
p1105
aV3653101
p1106
aV435110
p1107
aV844230
p1108
aV3553526
p1109
aV2143938
p1110
aV3017782
p1111
aV4977707
p1112
aV3458975
p1113
aV5009389
p1114
aV16815434
p1115
aV3557091
p1116
aV4964608
p1117
aV9423142
p1118
aV3397610
p1119
aV7682888
p1120
aV10328566
p1121
aV4992658
p1122
aV11199715
p1123
aV35645033
p1124
aV35645040
p1125
aV35645069
p1126
aV6023595
p1127
aV35656627
p1128
aV35656629
p1129
aV35656950
p1130
aV35686682
p1131
aV5527966
p1132
aV5805849
p1133
aV35698941
p1134
aV5995725
p1135
aV35698938
p1136
aV35476727
p1137
aV35698940
p1138
aV2983960
p1139
asVNostalgiacritic
p1140
(lp1141
V92069
p1142
aV92070
p1143
aV92071
p1144
aV92072
p1145
aV92073
p1146
aV92074
p1147
aV92075
p1148
aV92076
p1149
aV92077
p1150
aV92078
p1151
aV92079
p1152
aV92080
p1153
aV92081
p1154
aV92082
p1155
aV92083
p1156
aV92084
p1157
aV92085
p1158
aV92086
p1159
aV92087
p1160
aV92088
p1161
aV92089
p1162
aV92091
p1163
aV92092
p1164
aV92093
p1165
aV92094
p1166
aV92095
p1167
aV92096
p1168
aV92097
p1169
aV92098
p1170
aV92099
p1171
aV92101
p1172
aV92102
p1173
aV92103
p1174
aV92104
p1175
aV92105
p1176
aV92106
p1177
aV92108
p1178
aV92109
p1179
aV92110
p1180
aV92111
p1181
aV92112
p1182
aV92113
p1183
aV92114
p1184
aV92115
p1185
aV92116
p1186
aV92117
p1187
aV92118
p1188
asVAmmodramus
p1189
(lp1190
V124167
p1191
aV123707
p1192
aV2249772
p1193
aV123920
p1194
aV21125035
p1195
aV1297139
p1196
aV93693
p1197
aV93681
p1198
aV124343
p1199
aV10211027
p1200
aV150782
p1201
aV123801
p1202
aV31263753
p1203
aV34578056
p1204
aV3077052
p1205
aV4795867
p1206
aV6707957
p1207
aV6691623
p1208
aV338634
p1209
aV936771
p1210
aV17141604
p1211
aV4472401
p1212
aV133495
p1213
aV42172
p1214
aV123870
p1215
aV21013155
p1216
aV29005369
p1217
aV1559597
p1218
aV33166845
p1219
aV1003202
p1220
asV182.178.0.225
p1221
(lp1222
V27709
p1223
asVNiemti
p1224
(lp1225
V6245494
p1226
aV1015671
p1227
aV3209836
p1228
aV733950
p1229
aV965756
p1230
aV969147
p1231
aV723303
p1232
aV3705490
p1233
aV80981
p1234
aV33270910
p1235
aV2966250
p1236
aV1328565
p1237
aV6205567
p1238
aV2760787
p1239
aV4932929
p1240
aV156252
p1241
aV790330
p1242
aV219729
p1243
aV729201
p1244
asVThistorian
p1245
(lp1246
V681093
p1247
aV4128582
p1248
aV19406868
p1249
aV990062
p1250
asVQuidam65
p1251
(lp1252
V298817
p1253
aV5547841
p1254
aV1693069
p1255
aV31367338
p1256
aV4251732
p1257
aV3279424
p1258
aV31005096
p1259
aV17695344
p1260
aV6141037
p1261
aV9615782
p1262
aV3654322
p1263
aV18933066
p1264
aV544694
p1265
aV11002786
p1266
aV3857282
p1267
aV30877305
p1268
aV1314294
p1269
aV88295
p1270
aV510963
p1271
aV3550218
p1272
aV28035780
p1273
aV1243872
p1274
aV26928632
p1275
aV9328276
p1276
aV25786821
p1277
aV27822882
p1278
aV3235210
p1279
aV413938
p1280
aV8270030
p1281
aV25245955
p1282
aV5978642
p1283
aV19654433
p1284
aV10254471
p1285
aV11246998
p1286
aV4009664
p1287
aV4505623
p1288
aV91573
p1289
aV1474806
p1290
aV27489177
p1291
asVZigzig20s
p1292
(lp1293
V1008249
p1294
aV8357785
p1295
aV4124889
p1296
aV2782032
p1297
aV36031485
p1298
aV3937890
p1299
aV30154233
p1300
aV510447
p1301
aV5380735
p1302
aV16220258
p1303
aV19108200
p1304
aV4808287
p1305
aV20554768
p1306
aV11221788
p1307
aV33875892
p1308
aV10602027
p1309
aV55963
p1310
aV29294350
p1311
aV34699123
p1312
aV266402
p1313
aV28971030
p1314
aV25582065
p1315
aV3081506
p1316
aV24431220
p1317
aV4946723
p1318
aV6868666
p1319
asVLuigi5256
p1320
(lp1321
V1213838
p1322
aV192341
p1323
aV902370
p1324
aV28048479
p1325
aV5994113
p1326
asVCramyourspam
p1327
(lp1328
V993791
p1329
aV23854579
p1330
aV1198162
p1331
aV1021628
p1332
aV514725
p1333
aV3219012
p1334
aV20182563
p1335
aV12441
p1336
aV11084385
p1337
aV1186934
p1338
aV32026129
p1339
aV6158741
p1340
aV185628
p1341
aV148487
p1342
aV248216
p1343
aV42090
p1344
aV17946
p1345
aV409309
p1346
aV140611
p1347
aV116694
p1348
aV196326
p1349
aV9736
p1350
aV534366
p1351
aV1687318
p1352
aV57568
p1353
aV339747
p1354
aV15777
p1355
aV238893
p1356
aV24011399
p1357
aV1531811
p1358
aV21542769
p1359
asVDr.K.
p1360
(lp1361
V12810
p1362
aV68253
p1363
aV27146868
p1364
aV19032220
p1365
aV638291
p1366
aV3383995
p1367
aV358934
p1368
aV69880
p1369
aV656245
p1370
aV17279743
p1371
aV22540801
p1372
aV48706
p1373
aV2690296
p1374
aV364813
p1375
aV30693980
p1376
aV3474480
p1377
aV45519
p1378
aV6995889
p1379
aV1216
p1380
aV371327
p1381
aV46105
p1382
aV1587917
p1383
aV24161098
p1384
aV62709
p1385
aV364783
p1386
aV789786
p1387
aV4781915
p1388
aV4797163
p1389
aV23680998
p1390
aV296008
p1391
aV30625300
p1392
aV388034
p1393
aV3772
p1394
aV3165218
p1395
asV66.102.83.61
p1396
(lp1397
V371797
p1398
aV1648363
p1399
aV12205530
p1400
aV29589730
p1401
aV9048372
p1402
aV35565161
p1403
aV23713535
p1404
aV249395
p1405
aV30316829
p1406
aV107995
p1407
aV33347964
p1408
aV6670533
p1409
aV15802582
p1410
aV18955064
p1411
aV21058
p1412
aV79717
p1413
aV12971839
p1414
aV858827
p1415
aV4911548
p1416
aV33169110
p1417
aV1870426
p1418
aV338383
p1419
aV1429047
p1420
aV1201394
p1421
aV19194989
p1422
aV4917401
p1423
aV35987677
p1424
asVPAImay2012
p1425
(lp1426
sV68.192.139.10
p1427
(lp1428
V19648
p1429
aV16921964
p1430
aV11359
p1431
aV19631
p1432
aV19655
p1433
aV19349
p1434
aV19350
p1435
aV20314
p1436
aV33590333
p1437
aV19389
p1438
aV3886544
p1439
aV1827
p1440
aV1826
p1441
aV1974
p1442
aV2735
p1443
aV2194
p1444
asV128.140.105.50
p1445
(lp1446
V6688271
p1447
aV605020
p1448
asVChristofhe
p1449
(lp1450
V31009595
p1451
aV31010586
p1452
aV21967822
p1453
aV17053095
p1454
aV30944942
p1455
aV17337681
p1456
aV27380282
p1457
aV19049124
p1458
aV30944908
p1459
aV24738654
p1460
aV7560545
p1461
aV26115110
p1462
aV10034693
p1463
aV7979440
p1464
aV19546451
p1465
aV17318065
p1466
aV188197
p1467
aV31010003
p1468
aV31009960
p1469
aV31010043
p1470
aV25129776
p1471
aV31001880
p1472
aV28129402
p1473
aV31001854
p1474
aV30680257
p1475
aV19705979
p1476
aV31001831
p1477
aV20225086
p1478
aV25129537
p1479
aV21588110
p1480
aV34240387
p1481
aV34905294
p1482
aV31044348
p1483
aV25172309
p1484
aV26111342
p1485
aV26110766
p1486
aV34915796
p1487
aV34915500
p1488
aV31009706
p1489
aV31009655
p1490
aV17404991
p1491
aV31009891
p1492
asV75.14.215.216
p1493
(lp1494
V177052
p1495
asV142.68.147.203
p1496
(lp1497
V1415656
p1498
asV128.243.253.126
p1499
(lp1500
V8660161
p1501
aV22731534
p1502
aV76988
p1503
aV1582479
p1504
aV3434968
p1505
aV5805422
p1506
aV17717262
p1507
aV332681
p1508
aV991066
p1509
aV2155046
p1510
aV631338
p1511
aV8917187
p1512
aV4699426
p1513
aV507184
p1514
aV1575832
p1515
aV15181774
p1516
aV7628156
p1517
aV1205816
p1518
aV29446774
p1519
aV12543181
p1520
aV1787864
p1521
aV251481
p1522
aV236722
p1523
aV2121823
p1524
aV529854
p1525
aV32512
p1526
aV18194142
p1527
aV909671
p1528
aV1034422
p1529
aV31611880
p1530
aV21312829
p1531
aV596894
p1532
aV30724598
p1533
aV4762704
p1534
aV883432
p1535
aV15480271
p1536
aV51974
p1537
aV6402253
p1538
aV2311748
p1539
aV6421131
p1540
asV72.45.210.114
p1541
(lp1542
V6491947
p1543
aV161228
p1544
aV3078869
p1545
aV12533774
p1546
aV113479
p1547
asV2.221.28.178
p1548
(lp1549
V35990844
p1550
asV86.7.237.231
p1551
(lp1552
V28781021
p1553
asV77.77.14.181
p1554
(lp1555
V5951974
p1556
aV5133074
p1557
aV31025448
p1558
aV24074444
p1559
aV26051079
p1560
aV19134441
p1561
aV1732818
p1562
aV18830287
p1563
asVCavarrone
p1564
(lp1565
V74435
p1566
aV36037789
p1567
aV36037804
p1568
aV2606345
p1569
aV11876523
p1570
aV36035026
p1571
aV10216667
p1572
aV16966406
p1573
aV20985745
p1574
aV24590973
p1575
aV221489
p1576
aV33022002
p1577
aV6587401
p1578
aV9957228
p1579
aV36036399
p1580
aV36036037
p1581
aV1364770
p1582
aV2324188
p1583
aV1067318
p1584
aV275443
p1585
aV1091175
p1586
aV22892307
p1587
aV2798426
p1588
aV22030425
p1589
aV1822077
p1590
aV5886495
p1591
aV5120552
p1592
aV7287758
p1593
aV4858883
p1594
aV26969495
p1595
aV9955684
p1596
aV35091875
p1597
aV19471956
p1598
asV38.106.36.242
p1599
(lp1600
V35600283
p1601
aV167377
p1602
aV50745
p1603
asVAnomieBOT
p1604
(lp1605
V36030918
p1606
aV36035928
p1607
aV13024833
p1608
aV23840623
p1609
aV35731129
p1610
aV14180937
p1611
aV27117
p1612
aV1678899
p1613
aV3721279
p1614
aV9646560
p1615
aV32281695
p1616
aV849601
p1617
aV29553705
p1618
aV2927926
p1619
aV7784995
p1620
aV26788390
p1621
aV37516
p1622
aV85234
p1623
aV35072567
p1624
aV97774
p1625
aV30479
p1626
aV2047405
p1627
aV32537760
p1628
aV26178530
p1629
aV1715093
p1630
aV337196
p1631
aV33582800
p1632
aV496007
p1633
aV11233933
p1634
aV257210
p1635
aV24893
p1636
aV1076420
p1637
aV7701470
p1638
aV861451
p1639
aV161468
p1640
aV114334
p1641
aV114195
p1642
aV2457206
p1643
aV114198
p1644
aV113893
p1645
aV8711666
p1646
aV231811
p1647
aV30428130
p1648
aV6818499
p1649
aV12511532
p1650
aV112815
p1651
aV7864667
p1652
aV644431
p1653
aV36030453
p1654
aV3408982
p1655
asV174.63.42.84
p1656
(lp1657
V5839439
p1658
aV22278237
p1659
aV12837777
p1660
aV17566665
p1661
aV1195797
p1662
aV2075544
p1663
aV22713
p1664
aV1387936
p1665
aV3367760
p1666
aV116820
p1667
aV339365
p1668
aV31226949
p1669
asV24.143.224.15
p1670
(lp1671
V33973663
p1672
aV31443658
p1673
aV33099532
p1674
aV28663118
p1675
aV1209962
p1676
aV1336774
p1677
aV25045848
p1678
aV15166291
p1679
aV19394183
p1680
aV4528663
p1681
aV3241774
p1682
aV2145318
p1683
aV5749934
p1684
aV10803987
p1685
aV34686743
p1686
aV993270
p1687
aV35467108
p1688
aV3840484
p1689
aV5916805
p1690
aV5195367
p1691
aV1814188
p1692
aV1885128
p1693
aV15653113
p1694
aV2919663
p1695
aV478844
p1696
aV2948385
p1697
asVPKT
p1698
(lp1699
V19389
p1700
aV34793857
p1701
aV1424641
p1702
aV9652343
p1703
aV4769288
p1704
aV35831777
p1705
aV7421383
p1706
aV6666451
p1707
aV388022
p1708
aV6801357
p1709
aV2600368
p1710
aV23117343
p1711
aV1221101
p1712
aV1603583
p1713
aV21384
p1714
aV7700301
p1715
aV26043539
p1716
aV10954786
p1717
aV33866298
p1718
aV548105
p1719
aV5439947
p1720
aV20886826
p1721
aV23316468
p1722
aV22838364
p1723
aV9864592
p1724
aV34884477
p1725
aV35766319
p1726
aV11727701
p1727
aV2433987
p1728
aV2522501
p1729
aV329141
p1730
aV5764715
p1731
aV27080840
p1732
aV15399684
p1733
aV4610217
p1734
aV2550017
p1735
aV21244192
p1736
aV1361095
p1737
aV5128007
p1738
aV922693
p1739
aV31747546
p1740
aV5579011
p1741
aV630984
p1742
aV28281057
p1743
aV25678282
p1744
aV96089
p1745
aV96727
p1746
aV8951697
p1747
aV9346749
p1748
aV1980626
p1749
asV94.109.175.139
p1750
(lp1751
V23807614
p1752
asVElderScrolls6
p1753
(lp1754
V17850381
p1755
aV52546
p1756
asV71.173.4.114
p1757
(lp1758
V4562586
p1759
aV8072131
p1760
aV7619908
p1761
asVBjahnke
p1762
(lp1763
V3596939
p1764
asV119.236.141.31
p1765
(lp1766
V28741
p1767
aV32274090
p1768
aV393276
p1769
aV5800976
p1770
aV393331
p1771
aV23819704
p1772
aV35944075
p1773
aV35969492
p1774
aV8458939
p1775
aV3219525
p1776
aV602113
p1777
aV25249479
p1778
aV34572529
p1779
aV4953047
p1780
aV3353715
p1781
aV1946736
p1782
aV23635975
p1783
aV16746043
p1784
aV32444408
p1785
aV975569
p1786
aV652293
p1787
aV3968082
p1788
aV4254620
p1789
asV129.42.208.176
p1790
(lp1791
V12690176
p1792
aV3409804
p1793
aV695737
p1794
aV3482829
p1795
aV5800140
p1796
aV5803148
p1797
aV5811914
p1798
aV3470098
p1799
aV5800077
p1800
aV1684130
p1801
aV30609958
p1802
aV6304653
p1803
aV37445
p1804
aV8249455
p1805
aV20913324
p1806
aV4368917
p1807
aV3164429
p1808
aV412974
p1809
aV22418826
p1810
aV3407420
p1811
aV7733279
p1812
asVNodmaster
p1813
(lp1814
V17908203
p1815
aV2776867
p1816
aV8517639
p1817
aV7508262
p1818
aV7252636
p1819
aV30271144
p1820
aV11289456
p1821
aV3605195
p1822
aV19226002
p1823
aV1648431
p1824
aV9904
p1825
aV451121
p1826
aV225791
p1827
aV11899317
p1828
aV6188772
p1829
aV29345650
p1830
aV27426801
p1831
aV1386277
p1832
aV9629927
p1833
aV2232158
p1834
aV7734097
p1835
aV25304469
p1836
aV21461459
p1837
aV5321373
p1838
aV20742691
p1839
aV34797040
p1840
aV23833118
p1841
aV9163300
p1842
aV15899873
p1843
aV3091841
p1844
aV15017699
p1845
aV9374357
p1846
aV3007462
p1847
aV31243155
p1848
aV1083631
p1849
aV1047657
p1850
aV7252704
p1851
aV8321015
p1852
aV20877754
p1853
aV7136243
p1854
asVJasonwells1982
p1855
(lp1856
V35310952
p1857
aV33372165
p1858
aV33298199
p1859
asVApollo1758
p1860
(lp1861
V38420
p1862
aV2600983
p1863
aV50585
p1864
aV4541383
p1865
aV27683
p1866
aV3584260
p1867
aV15679509
p1868
aV5465417
p1869
aV32221869
p1870
aV3093305
p1871
aV4206504
p1872
aV22833180
p1873
aV18355937
p1874
aV35898494
p1875
aV15957698
p1876
aV4194913
p1877
aV29095834
p1878
aV3170674
p1879
aV36009085
p1880
aV4322097
p1881
aV2389221
p1882
aV35806719
p1883
aV35808859
p1884
aV102775
p1885
aV11530616
p1886
aV35962607
p1887
aV35956750
p1888
asVPhilaweb
p1889
(lp1890
V36037951
p1891
aV36020155
p1892
aV36020150
p1893
aV36019994
p1894
aV36019883
p1895
aV242403
p1896
aV35717773
p1897
aV17163024
p1898
aV25508
p1899
aV2554191
p1900
aV728776
p1901
aV35728932
p1902
aV35633666
p1903
aV35718657
p1904
aV35718630
p1905
aV157585
p1906
aV35717059
p1907
aV1205734
p1908
aV1313667
p1909
aV5580241
p1910
aV17175973
p1911
aV28661319
p1912
aV13746415
p1913
aV22135423
p1914
aV21973967
p1915
aV3371693
p1916
aV35499779
p1917
aV4035253
p1918
aV1021905
p1919
aV23711165
p1920
aV27872338
p1921
aV32986078
p1922
aV19217388
p1923
aV17701000
p1924
aV34182971
p1925
aV27208868
p1926
aV13340976
p1927
aV40058
p1928
aV18630687
p1929
aV32666221
p1930
aV19056058
p1931
aV8035
p1932
aV754028
p1933
asVMukogodo
p1934
(lp1935
V4947517
p1936
aV60112
p1937
aV53949
p1938
aV703896
p1939
aV2951105
p1940
aV6037603
p1941
aV11213809
p1942
aV35940793
p1943
aV35798639
p1944
aV11952595
p1945
aV3575307
p1946
aV1209183
p1947
aV20502020
p1948
aV858642
p1949
aV18599015
p1950
aV17627523
p1951
aV29961159
p1952
aV15127621
p1953
aV542987
p1954
aV52970
p1955
aV5708698
p1956
aV240336
p1957
aV755962
p1958
aV28746915
p1959
aV11358530
p1960
aV5140988
p1961
aV2991300
p1962
asVMilborneOne
p1963
(lp1964
V15123845
p1965
aV9942497
p1966
aV329193
p1967
aV30828726
p1968
aV1796894
p1969
aV1044190
p1970
aV36027001
p1971
aV3372750
p1972
aV350278
p1973
aV1030064
p1974
aV384838
p1975
aV46542
p1976
aV7415008
p1977
aV27104069
p1978
aV154276
p1979
aV265871
p1980
aV295976
p1981
aV53179
p1982
aV273081
p1983
aV1701189
p1984
aV182728
p1985
aV174281
p1986
aV208921
p1987
aV35497458
p1988
aV24872630
p1989
aV33265
p1990
asVThoughtcriminall
p1991
(lp1992
V99881
p1993
aV172933
p1994
aV74331
p1995
aV24288226
p1996
asVMcharkow
p1997
(lp1998
V33650241
p1999
aV30403950
p2000
aV24405612
p2001
aV7118144
p2002
aV24167080
p2003
aV15028433
p2004
aV10414530
p2005
aV149709
p2006
asVBarbthebuilder
p2007
(lp2008
V36037950
p2009
aV36037945
p2010
aV635628
p2011
aV36036647
p2012
aV36036831
p2013
aV36036761
p2014
aV36036751
p2015
aV36036443
p2016
aV7519607
p2017
aV36036462
p2018
aV7860151
p2019
aV31938949
p2020
aV14436339
p2021
aV36012891
p2022
aV36012869
p2023
aV36012692
p2024
aV463250
p2025
aV36012742
p2026
aV36012733
p2027
aV36012716
p2028
aV2001806
p2029
aV36012709
p2030
aV36012706
p2031
aV36012652
p2032
asVAllymooraby
p2033
(lp2034
V451173
p2035
aV392457
p2036
asV174.88.241.34
p2037
(lp2038
V22083907
p2039
aV15041768
p2040
aV17173785
p2041
aV159599
p2042
aV23576552
p2043
aV324
p2044
aV538767
p2045
aV9492436
p2046
aV2764750
p2047
aV2069237
p2048
asVHamish59
p2049
(lp2050
V29817574
p2051
aV11916591
p2052
aV11722848
p2053
aV36026809
p2054
aV36010960
p2055
aV24379233
p2056
aV35875238
p2057
aV12728514
p2058
aV35408356
p2059
aV11968847
p2060
aV35282476
p2061
aV28287272
p2062
aV1761594
p2063
aV11040598
p2064
aV24442279
p2065
aV14754973
p2066
aV12728630
p2067
aV12727725
p2068
asVSss28
p2069
(lp2070
V29332377
p2071
aV29776601
p2072
aV29177708
p2073
aV33508923
p2074
aV31667411
p2075
aV29290424
p2076
aV29885706
p2077
aV17626833
p2078
aV35725157
p2079
aV15988037
p2080
aV29773532
p2081
aV29661935
p2082
aV35276829
p2083
aV31015071
p2084
aV29673562
p2085
aV32502717
p2086
aV34857030
p2087
asVWiki-uk
p2088
(lp2089
V226789
p2090
aV36037988
p2091
aV36037968
p2092
aV24175790
p2093
aV50715
p2094
aV35532743
p2095
aV433738
p2096
aV10793289
p2097
aV4636871
p2098
aV6416651
p2099
aV570308
p2100
aV799615
p2101
aV2936290
p2102
aV667960
p2103
aV4014211
p2104
aV699227
p2105
aV35892186
p2106
aV1441698
p2107
aV1468762
p2108
aV3298895
p2109
aV10934653
p2110
aV13165942
p2111
aV519274
p2112
aV707304
p2113
asVChip123456
p2114
(lp2115
V57687
p2116
aV6961170
p2117
aV25582888
p2118
aV2031932
p2119
aV298941
p2120
aV36025835
p2121
aV3538011
p2122
aV35914723
p2123
aV35968446
p2124
aV3503405
p2125
aV6242031
p2126
aV336367
p2127
aV33220
p2128
aV1264640
p2129
aV3092836
p2130
aV741886
p2131
aV36001084
p2132
aV24480838
p2133
aV9016095
p2134
aV41987
p2135
aV17319684
p2136
aV24695215
p2137
aV2450905
p2138
aV753143
p2139
aV1302664
p2140
aV25208
p2141
aV2984191
p2142
aV31688633
p2143
aV28063768
p2144
aV1203579
p2145
aV8227
p2146
aV27366853
p2147
aV2528354
p2148
aV401730
p2149
aV10893
p2150
aV29687558
p2151
aV4859365
p2152
aV281028
p2153
aV10748937
p2154
aV1410435
p2155
aV2781408
p2156
aV24740505
p2157
aV8229901
p2158
aV18299772
p2159
aV22773660
p2160
asV209.118.236.162
p2161
(lp2162
V33142080
p2163
aV2785640
p2164
asV72.152.41.10
p2165
(lp2166
V34810341
p2167
asV83.66.196.138
p2168
(lp2169
V2440995
p2170
asVIha9c
p2171
(lp2172
V12174932
p2173
aV23580512
p2174
aV6688740
p2175
aV30469483
p2176
aV11989193
p2177
aV16839219
p2178
aV34934055
p2179
aV22509072
p2180
aV7401153
p2181
aV29138907
p2182
aV26613453
p2183
aV19938762
p2184
aV31463516
p2185
aV15144365
p2186
aV8428249
p2187
aV33932779
p2188
aV33333217
p2189
aV33981334
p2190
aV35537552
p2191
aV29524744
p2192
aV29077859
p2193
aV8118332
p2194
asVRFD
p2195
(lp2196
V36033295
p2197
aV36033113
p2198
aV36037362
p2199
aV260379
p2200
aV90983
p2201
aV36037163
p2202
aV138892
p2203
aV90984
p2204
aV36036105
p2205
aV36036095
p2206
aV1164030
p2207
aV1300565
p2208
aV36035895
p2209
aV36035855
p2210
aV90994
p2211
aV6188414
p2212
aV138670
p2213
aV95063
p2214
aV36035126
p2215
aV139338
p2216
aV139369
p2217
aV139354
p2218
aV18581381
p2219
aV5073263
p2220
aV139337
p2221
aV5923810
p2222
aV260540
p2223
aV2181672
p2224
aV139344
p2225
aV90957
p2226
aV139328
p2227
aV1352752
p2228
aV260369
p2229
aV5493669
p2230
aV138681
p2231
aV36031055
p2232
aV36031040
p2233
aV13189771
p2234
aV36030482
p2235
aV90917
p2236
aV140026
p2237
aV36029105
p2238
aV90945
p2239
aV139536
p2240
asV122.29.121.121
p2241
(lp2242
V36036636
p2243
asV205.235.104.4
p2244
(lp2245
V31795
p2246
aV20190834
p2247
aV24781560
p2248
aV7416167
p2249
aV5700308
p2250
aV3011989
p2251
aV30174988
p2252
aV10713550
p2253
aV14264807
p2254
aV31592194
p2255
aV187495
p2256
aV1857802
p2257
aV1273643
p2258
aV33431755
p2259
aV151211
p2260
aV1278780
p2261
aV935728
p2262
asV112.203.12.129
p2263
(lp2264
V6301509
p2265
asV186.52.166.33
p2266
(lp2267
V1127788
p2268
asV208.77.212.41
p2269
(lp2270
V22659508
p2271
aV328618
p2272
aV26394220
p2273
aV5145700
p2274
aV349214
p2275
aV183628
p2276
aV3763482
p2277
aV50591
p2278
aV22497
p2279
aV34895765
p2280
aV6304726
p2281
aV30859853
p2282
aV191752
p2283
aV285018
p2284
aV192207
p2285
aV339953
p2286
aV15982915
p2287
aV763365
p2288
aV593786
p2289
aV18472
p2290
aV33580925
p2291
aV8340639
p2292
aV28661477
p2293
aV639824
p2294
aV17273
p2295
asV13myerss
p2296
(lp2297
sVArtVandelay13
p2298
(lp2299
V35778968
p2300
aV35957793
p2301
aV35442447
p2302
aV3447440
p2303
aV9430058
p2304
aV35954352
p2305
aV27901706
p2306
aV29550647
p2307
aV19756507
p2308
aV23798404
p2309
aV31232207
p2310
aV31079157
p2311
aV28355401
p2312
asVAgentSniff
p2313
(lp2314
V36037966
p2315
aV14030436
p2316
aV32009448
p2317
aV513149
p2318
aV30996656
p2319
aV14765543
p2320
aV32800518
p2321
aV5349897
p2322
aV20326029
p2323
aV35909212
p2324
aV623421
p2325
aV28082651
p2326
aV8720252
p2327
aV35944390
p2328
aV17958975
p2329
aV25710090
p2330
aV35934509
p2331
aV23580423
p2332
aV30159621
p2333
aV34993014
p2334
aV15087457
p2335
aV29130246
p2336
asV82.171.112.199
p2337
(lp2338
V2624862
p2339
aV742028
p2340
asVPiotrus
p2341
(lp2342
V36028525
p2343
aV36013833
p2344
aV36020556
p2345
aV36033870
p2346
aV36033735
p2347
aV36030703
p2348
aV35989361
p2349
aV35983973
p2350
aV35970019
p2351
aV21663160
p2352
aV889573
p2353
aV85768
p2354
aV260451
p2355
aV161724
p2356
aV625326
p2357
aV26194781
p2358
aV12905407
p2359
aV10102551
p2360
aV36030514
p2361
aV461582
p2362
aV17579319
p2363
aV1988124
p2364
aV376841
p2365
aV19169445
p2366
aV506408
p2367
aV12512276
p2368
aV5225095
p2369
aV20950
p2370
aV12243832
p2371
aV36018004
p2372
aV36013214
p2373
aV34818626
p2374
aV35981634
p2375
asV142.227.206.1
p2376
(lp2377
V649827
p2378
asVAvraham
p2379
(lp2380
V34740914
p2381
aV70548
p2382
aV610738
p2383
aV30812810
p2384
aV43405
p2385
aV8836833
p2386
asVDidje83
p2387
(lp2388
V14260185
p2389
aV6618038
p2390
asVLeisurist
p2391
(lp2392
V658129
p2393
aV15789680
p2394
aV23702475
p2395
aV11077634
p2396
aV20970048
p2397
aV144716
p2398
aV537930
p2399
asV62.82.2.150
p2400
(lp2401
V589091
p2402
asVHonorTheKing
p2403
(lp2404
V36027001
p2405
aV30388504
p2406
aV19444571
p2407
aV11250
p2408
aV36003247
p2409
aV35526804
p2410
aV9768801
p2411
aV13018176
p2412
aV16152986
p2413
aV19961
p2414
aV27982370
p2415
aV29972037
p2416
aV34254390
p2417
aV35991774
p2418
aV4013030
p2419
aV10504432
p2420
aV6429106
p2421
aV769536
p2422
aV4004747
p2423
aV11361998
p2424
aV5833668
p2425
aV24657033
p2426
aV35810114
p2427
aV3744546
p2428
asV199.216.129.242
p2429
(lp2430
V38334
p2431
aV36863
p2432
aV704408
p2433
aV95405
p2434
aV249154
p2435
aV149769
p2436
aV18952443
p2437
aV18440148
p2438
aV44940
p2439
aV3871014
p2440
aV3364578
p2441
aV1852432
p2442
aV9387918
p2443
asVTransporterMan
p2444
(lp2445
V7696603
p2446
aV29295152
p2447
aV26137147
p2448
aV35134492
p2449
aV7078753
p2450
aV33246451
p2451
aV33246319
p2452
aV12768684
p2453
aV27712479
p2454
aV35757948
p2455
aV31240398
p2456
aV35389308
p2457
aV28760664
p2458
aV4944466
p2459
aV70188
p2460
aV35253292
p2461
aV33138353
p2462
aV30762325
p2463
aV30678235
p2464
aV17622246
p2465
aV28786488
p2466
aV30762209
p2467
aV33352994
p2468
aV32550812
p2469
aV10933800
p2470
aV32645665
p2471
aV389678
p2472
aV27789930
p2473
aV35216704
p2474
aV59629
p2475
aV12901655
p2476
aV10649200
p2477
aV34843848
p2478
aV6943226
p2479
aV1598074
p2480
aV2025288
p2481
aV7326026
p2482
aV24077714
p2483
aV15316402
p2484
aV3001010
p2485
aV17689543
p2486
aV9356210
p2487
aV7639363
p2488
aV3205701
p2489
asV216.194.35.107
p2490
(lp2491
V4097343
p2492
aV7996112
p2493
aV5296596
p2494
aV914114
p2495
aV66743
p2496
aV440021
p2497
aV752960
p2498
aV333309
p2499
aV520289
p2500
aV1262498
p2501
aV369155
p2502
aV13357912
p2503
aV23190374
p2504
asVNicokroeker
p2505
(lp2506
V36037929
p2507
aV35995350
p2508
aV1650235
p2509
aV1188460
p2510
asV90.222.43.222
p2511
(lp2512
V4994147
p2513
asVMZMcBride
p2514
(lp2515
V2885151
p2516
aV35937098
p2517
aV12153654
p2518
aV24113
p2519
aV27715261
p2520
aV151652
p2521
aV3701077
p2522
aV33661257
p2523
aV35989314
p2524
aV35989311
p2525
aV24954279
p2526
aV16324396
p2527
aV35988363
p2528
aV35987323
p2529
aV31069
p2530
aV35355611
p2531
aV35962585
p2532
aV35972613
p2533
aV17198295
p2534
aV17845731
p2535
aV168889
p2536
aV27736158
p2537
aV30083538
p2538
aV11027130
p2539
aV28019109
p2540
aV34522379
p2541
aV9159662
p2542
aV26547286
p2543
aV22825172
p2544
aV35964579
p2545
aV22825000
p2546
aV2836141
p2547
aV35955732
p2548
aV462173
p2549
aV462172
p2550
aV34247821
p2551
aV26777733
p2552
aV35948159
p2553
aV31642787
p2554
aV13585269
p2555
aV9083639
p2556
aV24737438
p2557
aV25013008
p2558
aV27872859
p2559
aV13698353
p2560
aV27144503
p2561
asV174.57.19.149
p2562
(lp2563
V676659
p2564
aV1000232
p2565
aV1281444
p2566
aV25683
p2567
aV19283806
p2568
aV1614141
p2569
aV330027
p2570
asV176.253.147.104
p2571
(lp2572
V26712227
p2573
aV26704767
p2574
asVCjeads1988
p2575
(lp2576
V517238
p2577
asV208.107.212.115
p2578
(lp2579
V95728
p2580
aV91327
p2581
aV53274
p2582
aV91308
p2583
aV95661
p2584
aV92062
p2585
aV1533755
p2586
aV134761
p2587
aV134888
p2588
aV151049
p2589
aV151047
p2590
aV134924
p2591
aV134922
p2592
aV134751
p2593
aV130048
p2594
aV92114
p2595
aV92043
p2596
aV22287644
p2597
aV91565
p2598
aV96684
p2599
aV96778
p2600
aV96724
p2601
aV93278
p2602
aV93230
p2603
aV128332
p2604
aV128113
p2605
aV77857
p2606
aV122314
p2607
aV76928
p2608
aV80780
p2609
aV77384
p2610
aV77369
p2611
aV76923
p2612
aV80771
p2613
aV77368
p2614
aV82026
p2615
aV107794
p2616
aV88366
p2617
aV93646
p2618
aV93641
p2619
aV93607
p2620
aV87462
p2621
asV209.68.83.231
p2622
(lp2623
sVEmerson7
p2624
(lp2625
V104532
p2626
aV900303
p2627
aV33051966
p2628
aV19375964
p2629
aV1550962
p2630
aV2265744
p2631
aV2467894
p2632
aV10589711
p2633
aV2211626
p2634
aV21807728
p2635
aV20872714
p2636
aV28275247
p2637
aV20092979
p2638
aV20608499
p2639
aV12496875
p2640
aV5191024
p2641
aV3904772
p2642
aV1425689
p2643
aV1550547
p2644
aV1532629
p2645
aV248780
p2646
aV505570
p2647
aV2014559
p2648
aV10035
p2649
aV30073552
p2650
aV13344241
p2651
aV726508
p2652
aV8751067
p2653
aV1560722
p2654
aV4969966
p2655
aV1126241
p2656
aV6831020
p2657
aV1103851
p2658
aV54727
p2659
aV19862296
p2660
aV1789052
p2661
aV1977912
p2662
aV2279213
p2663
aV9955394
p2664
aV12565506
p2665
aV2396139
p2666
aV764881
p2667
aV28822493
p2668
asVWOSlinker
p2669
(lp2670
V20699541
p2671
aV35752874
p2672
aV22078270
p2673
aV33325126
p2674
aV1137561
p2675
aV13817510
p2676
aV16539649
p2677
aV35930778
p2678
aV35633255
p2679
aV35612376
p2680
aV35612281
p2681
aV6822779
p2682
aV35431778
p2683
aV32591490
p2684
aV31635759
p2685
aV30986368
p2686
aV23501408
p2687
aV14518940
p2688
aV9041410
p2689
aV7649111
p2690
aV3606454
p2691
aV35958427
p2692
aV35908662
p2693
aV35819481
p2694
aV35795198
p2695
aV35504575
p2696
aV35563048
p2697
aV35589655
p2698
aV35634773
p2699
aV35637349
p2700
aV35723962
p2701
aV35920229
p2702
aV35818560
p2703
aV35941326
p2704
aV8346686
p2705
aV7563464
p2706
aV35490896
p2707
aV35490039
p2708
aV35484068
p2709
aV35469302
p2710
aV35458884
p2711
aV31090790
p2712
aV16963746
p2713
aV15224574
p2714
aV15223645
p2715
aV11138928
p2716
aV326285
p2717
aV34034282
p2718
aV32008339
p2719
asVEzhiki
p2720
(lp2721
V32655780
p2722
aV36037946
p2723
aV36037907
p2724
aV36037899
p2725
aV1912439
p2726
aV36037862
p2727
aV36037826
p2728
aV36037464
p2729
aV35858984
p2730
aV36037292
p2731
aV36036788
p2732
aV36036787
p2733
aV36036783
p2734
aV36036781
p2735
aV36036779
p2736
aV36036778
p2737
aV36036775
p2738
aV36036773
p2739
aV36036770
p2740
aV36036768
p2741
aV36036767
p2742
aV36036766
p2743
aV36036765
p2744
aV36036762
p2745
aV36036755
p2746
aV36036753
p2747
aV36036750
p2748
aV36036747
p2749
aV36036743
p2750
aV36036741
p2751
aV36036739
p2752
aV36036736
p2753
aV36036734
p2754
aV36036733
p2755
aV36036727
p2756
aV36036725
p2757
aV36036722
p2758
aV36036720
p2759
aV36036719
p2760
aV36036718
p2761
aV36036715
p2762
aV36036711
p2763
aV36036709
p2764
aV36036707
p2765
aV36036706
p2766
aV36036704
p2767
aV36036702
p2768
aV36036700
p2769
aV36036699
p2770
asVWalikhan.babar
p2771
(lp2772
V5012305
p2773
aV30503465
p2774
asVCamboxer
p2775
(lp2776
V11304789
p2777
aV14109011
p2778
aV46688
p2779
aV206492
p2780
aV9191288
p2781
aV10710308
p2782
aV9191964
p2783
aV31766231
p2784
aV14750552
p2785
aV34649
p2786
aV185930
p2787
aV35929
p2788
aV2300378
p2789
aV349127
p2790
aV7111997
p2791
aV3275230
p2792
aV34966
p2793
aV8776896
p2794
aV226266
p2795
aV226261
p2796
aV9255256
p2797
aV11380205
p2798
aV10035043
p2799
aV13652078
p2800
aV13680221
p2801
aV38660
p2802
aV13502820
p2803
aV38647
p2804
aV38646
p2805
aV13503108
p2806
aV35854
p2807
aV11650417
p2808
aV10580788
p2809
aV13503273
p2810
aV34896
p2811
aV35859
p2812
aV9114725
p2813
aV1606895
p2814
aV4345188
p2815
aV31529963
p2816
aV472473
p2817
aV434724
p2818
asVFicatus
p2819
(lp2820
V8621385
p2821
aV34681328
p2822
aV31058701
p2823
aV163174
p2824
aV2344445
p2825
aV699498
p2826
asVRaphie
p2827
(lp2828
V8622336
p2829
aV11403115
p2830
aV12990681
p2831
aV10835013
p2832
aV31811552
p2833
aV5509327
p2834
aV20296282
p2835
aV26583612
p2836
aV12573945
p2837
aV11029388
p2838
aV5397154
p2839
aV21071991
p2840
aV20149130
p2841
aV16095232
p2842
aV17926792
p2843
aV12561802
p2844
aV28941482
p2845
aV14990694
p2846
aV5842527
p2847
aV4165349
p2848
aV3505914
p2849
aV20815123
p2850
aV3644617
p2851
aV3818165
p2852
aV10370986
p2853
aV6016663
p2854
aV12561200
p2855
aV4291996
p2856
aV5216155
p2857
aV22736699
p2858
aV12076073
p2859
aV16118560
p2860
aV15833663
p2861
aV15788851
p2862
aV11779554
p2863
aV11422936
p2864
aV11757199
p2865
aV6104136
p2866
aV15885360
p2867
asVMarsRover
p2868
(lp2869
V17384301
p2870
aV27501246
p2871
aV4252289
p2872
aV738270
p2873
aV5888751
p2874
aV14708158
p2875
aV6684
p2876
aV11097317
p2877
aV1939510
p2878
aV144868
p2879
aV149578
p2880
aV1490956
p2881
aV1478080
p2882
aV8137011
p2883
aV90550
p2884
aV14627
p2885
aV19127
p2886
aV8303
p2887
aV19153
p2888
aV35049514
p2889
aV5297005
p2890
aV95833
p2891
aV420855
p2892
aV7477961
p2893
aV34999304
p2894
aV34999280
p2895
aV34999265
p2896
aV16779711
p2897
aV19320581
p2898
aV1873633
p2899
aV21362
p2900
aV224748
p2901
aV28930
p2902
aV796920
p2903
aV793020
p2904
aV792286
p2905
aV745507
p2906
aV730058
p2907
aV722531
p2908
aV679514
p2909
aV679512
p2910
aV679511
p2911
aV669423
p2912
aV653745
p2913
asVKiefer.Wolfowitz
p2914
(lp2915
V22605697
p2916
aV1771483
p2917
aV24416039
p2918
aV7180815
p2919
aV31367924
p2920
aV2047446
p2921
aV35990922
p2922
aV1225316
p2923
aV5520646
p2924
aV8438526
p2925
aV13248447
p2926
asVEdmonton7838
p2927
(lp2928
V290195
p2929
aV573907
p2930
asVMwinog2777
p2931
(lp2932
V4637590
p2933
aV2672763
p2934
aV246280
p2935
aV27858358
p2936
aV1182436
p2937
aV1000456
p2938
aV10104816
p2939
aV125447
p2940
aV2784915
p2941
aV1385027
p2942
aV6442144
p2943
aV8401736
p2944
aV3779011
p2945
aV9063173
p2946
aV1021540
p2947
aV2775885
p2948
aV1017595
p2949
aV60430
p2950
aV12216906
p2951
aV505826
p2952
aV870675
p2953
aV9452468
p2954
aV3644001
p2955
aV768042
p2956
aV3679359
p2957
aV5996149
p2958
aV23234926
p2959
aV8850884
p2960
aV4141875
p2961
aV13790987
p2962
aV9956537
p2963
aV8756399
p2964
aV28454632
p2965
aV8791669
p2966
aV8711336
p2967
aV9210306
p2968
aV17545747
p2969
aV22376710
p2970
asVRothorpe
p2971
(lp2972
V469556
p2973
aV36036983
p2974
aV14099209
p2975
aV1481539
p2976
aV10241962
p2977
aV6981167
p2978
aV65174
p2979
aV54006
p2980
aV1441938
p2981
aV6362
p2982
aV149561
p2983
aV2862726
p2984
aV1899685
p2985
aV228040
p2986
aV22977993
p2987
aV2057059
p2988
aV25174930
p2989
aV9180355
p2990
aV5014151
p2991
aV646150
p2992
aV16053
p2993
aV19760229
p2994
aV18866
p2995
aV54218
p2996
aV23990131
p2997
aV80441
p2998
aV3640770
p2999
aV1222297
p3000
aV146638
p3001
aV33965039
p3002
aV2456113
p3003
aV1227284
p3004
aV565925
p3005
aV5742
p3006
aV6265808
p3007
aV233412
p3008
aV23034
p3009
aV2647973
p3010
aV6554225
p3011
aV3379941
p3012
aV19548
p3013
aV16027
p3014
aV1622355
p3015
aV51387
p3016
aV2294503
p3017
asVDAP388
p3018
(lp3019
V36022012
p3020
aV1733067
p3021
aV18487072
p3022
aV17782843
p3023
aV35997680
p3024
aV26286300
p3025
aV23796687
p3026
aV34591445
p3027
aV25256892
p3028
aV34809830
p3029
aV17674241
p3030
aV32879966
p3031
aV1600208
p3032
aV1018830
p3033
aV35026593
p3034
aV32017003
p3035
asV142.227.100.129
p3036
(lp3037
V31604155
p3038
aV1988889
p3039
aV3127750
p3040
aV7660130
p3041
aV33915362
p3042
aV1290526
p3043
aV656507
p3044
aV70728
p3045
aV142867
p3046
aV17771
p3047
aV621128
p3048
aV314965
p3049
aV17020605
p3050
aV25532
p3051
asVDormskirk
p3052
(lp3053
V36037953
p3054
aV371551
p3055
aV14863872
p3056
aV9058746
p3057
aV1366796
p3058
aV4635532
p3059
aV16750678
p3060
aV6216412
p3061
aV2305858
p3062
aV3688938
p3063
aV3651097
p3064
aV18096766
p3065
aV4078974
p3066
aV3199801
p3067
aV280728
p3068
aV66221
p3069
asVKadoshim
p3070
(lp3071
V214550
p3072
aV3929489
p3073
aV61255
p3074
asVModernist
p3075
(lp3076
V178942
p3077
aV37585
p3078
aV5961279
p3079
aV11382737
p3080
aV24176
p3081
aV1115370
p3082
aV18985263
p3083
aV5008672
p3084
aV1249101
p3085
aV32603
p3086
aV22104645
p3087
aV199145
p3088
aV11000819
p3089
aV63380
p3090
aV89728
p3091
aV147847
p3092
aV53717
p3093
aV2433
p3094
aV9454692
p3095
aV17888
p3096
aV50420
p3097
aV217057
p3098
aV182607
p3099
aV24997119
p3100
aV700892
p3101
aV453763
p3102
aV52293
p3103
aV30437
p3104
asVJmj713
p3105
(lp3106
V8352426
p3107
aV27439614
p3108
aV18987966
p3109
aV3314237
p3110
aV35617853
p3111
aV63969
p3112
aV539788
p3113
aV25493839
p3114
aV1898161
p3115
aV1486684
p3116
aV2195309
p3117
aV30929616
p3118
aV1792080
p3119
aV64006
p3120
aV320387
p3121
aV35926557
p3122
aV19980890
p3123
aV24341412
p3124
aV64015
p3125
aV19537461
p3126
aV31515019
p3127
aV21467210
p3128
asVBuaidh
p3129
(lp3130
V26746
p3131
aV17609696
p3132
aV21930963
p3133
aV27956
p3134
aV17611182
p3135
aV21930956
p3136
aV25410
p3137
aV17610955
p3138
aV21930949
p3139
aV23332
p3140
aV733189
p3141
aV21930941
p3142
aV26811621
p3143
aV17610636
p3144
aV21930938
p3145
aV22199
p3146
aV22489
p3147
aV21930931
p3148
aV17610369
p3149
aV21930928
p3150
aV17610084
p3151
aV21651
p3152
aV17609429
p3153
aV21930920
p3154
aV21650
p3155
aV17608693
p3156
aV21930917
p3157
aV17345044
p3158
aV21930906
p3159
aV21649
p3160
aV685261
p3161
aV21930900
p3162
aV21648
p3163
aV800138
p3164
aV21930895
p3165
aV21134
p3166
aV21216
p3167
aV17599137
p3168
aV21930893
p3169
aV21930883
p3170
aV4082933
p3171
aV21647
p3172
aV17462889
p3173
aV21930804
p3174
aV19978
p3175
aV19571
p3176
asV82.114.76.196
p3177
(lp3178
V8182729
p3179
aV28023814
p3180
aV17452169
p3181
aV19672862
p3182
aV650755
p3183
aV4967559
p3184
aV34397043
p3185
aV28892186
p3186
aV35623497
p3187
aV215217
p3188
aV4015968
p3189
asVSnowmanradio
p3190
(lp3191
V32546
p3192
aV34607
p3193
aV55562
p3194
aV54178
p3195
aV53227
p3196
aV51273
p3197
aV51111
p3198
aV48367
p3199
aV43476
p3200
aV43407
p3201
aV43081
p3202
aV43063
p3203
aV40389
p3204
aV38773
p3205
aV36976
p3206
aV36907
p3207
aV2731987
p3208
aV32594
p3209
aV32337
p3210
aV30802
p3211
aV30440
p3212
aV29027
p3213
aV27390
p3214
aV25407
p3215
aV25280
p3216
aV24522
p3217
aV24175
p3218
aV24116
p3219
aV23965
p3220
aV23886
p3221
aV20108
p3222
aV17415
p3223
aV17077
p3224
aV17060
p3225
aV22367437
p3226
aV15166
p3227
aV14133
p3228
aV14097
p3229
aV13027
p3230
aV16610
p3231
aV15292
p3232
aV12420
p3233
asVCyoung2488
p3234
(lp3235
sVO.Koslowski
p3236
(lp3237
V13018176
p3238
aV31064035
p3239
aV1696476
p3240
aV88075
p3241
aV2227627
p3242
aV507433
p3243
aV15340
p3244
aV541795
p3245
aV2605300
p3246
aV11225
p3247
aV1577615
p3248
aV6469541
p3249
aV8070689
p3250
aV317645
p3251
aV846593
p3252
aV2184556
p3253
aV146265
p3254
aV19073515
p3255
aV500085
p3256
aV3550569
p3257
aV26388977
p3258
aV763421
p3259
aV591632
p3260
aV4498794
p3261
aV30957282
p3262
aV396367
p3263
aV21365464
p3264
aV951
p3265
aV705925
p3266
aV8839427
p3267
aV3001783
p3268
aV707399
p3269
aV31755515
p3270
aV15617757
p3271
aV192605
p3272
aV3454
p3273
aV171635
p3274
aV30518782
p3275
aV1112764
p3276
aV15555748
p3277
aV24594884
p3278
aV13489945
p3279
aV8850
p3280
aV102403
p3281
aV30127649
p3282
aV874930
p3283
aV426143
p3284
asVKenneBar81
p3285
(lp3286
sV208.90.103.110
p3287
(lp3288
V1209780
p3289
aV275235
p3290
asVXB70Valyrie
p3291
(lp3292
V36037029
p3293
aV66691
p3294
aV35867366
p3295
aV536887
p3296
aV361361
p3297
aV1441712
p3298
aV4478351
p3299
asVMimich
p3300
(lp3301
V31313213
p3302
aV58925
p3303
aV869744
p3304
aV31340123
p3305
aV35981169
p3306
aV75795
p3307
aV30751594
p3308
aV571725
p3309
aV25166722
p3310
aV106393
p3311
aV35741753
p3312
aV36035909
p3313
aV150582
p3314
aV25539406
p3315
asVJbhygiene
p3316
(lp3317
V6592123
p3318
aV4976501
p3319
aV27645552
p3320
aV11324111
p3321
aV3702216
p3322
asV110.55.46.3
p3323
(lp3324
V33160508
p3325
aV18621413
p3326
aV27504492
p3327
aV24499475
p3328
aV35377350
p3329
aV4611283
p3330
aV35933266
p3331
aV31787888
p3332
aV15080845
p3333
aV33699244
p3334
aV7406534
p3335
aV8636983
p3336
aV2211244
p3337
aV4224869
p3338
aV2339186
p3339
aV3500965
p3340
aV6402635
p3341
aV30939580
p3342
asV66.165.46.178
p3343
(lp3344
V1915509
p3345
aV1367384
p3346
aV22575482
p3347
aV6727252
p3348
aV39300
p3349
aV2211256
p3350
asVGunkarta
p3351
(lp3352
V5777593
p3353
aV406363
p3354
aV36017709
p3355
aV31448423
p3356
aV14923316
p3357
aV484999
p3358
aV162963
p3359
aV1286863
p3360
aV36017552
p3361
aV13676774
p3362
aV256220
p3363
aV395365
p3364
aV655373
p3365
aV36008133
p3366
aV36008450
p3367
aV31610976
p3368
aV27086197
p3369
aV24442533
p3370
aV14579
p3371
aV653682
p3372
aV178943
p3373
aV32493090
p3374
aV35992139
p3375
aV2089946
p3376
asVJohnnyMrNinja
p3377
(lp3378
V35804104
p3379
aV36034422
p3380
aV2387514
p3381
aV36029787
p3382
aV11976045
p3383
aV36020594
p3384
aV10655224
p3385
aV7489835
p3386
aV3034761
p3387
aV35955222
p3388
aV35988956
p3389
aV26299952
p3390
aV35987817
p3391
aV35987815
p3392
aV35987706
p3393
aV29397722
p3394
aV35977811
p3395
aV18976952
p3396
aV31602807
p3397
aV19979904
p3398
aV35964913
p3399
aV585215
p3400
asVBrightStarSky
p3401
(lp3402
V5379817
p3403
aV22918583
p3404
aV26431480
p3405
aV2575642
p3406
aV1549452
p3407
aV16773017
p3408
aV28962046
p3409
aV2442300
p3410
aV2276820
p3411
aV1896352
p3412
aV5729749
p3413
aV11870943
p3414
aV2492789
p3415
aV3698121
p3416
aV1800772
p3417
aV32558784
p3418
aV57630
p3419
aV7165631
p3420
aV33548278
p3421
aV10906429
p3422
aV57570
p3423
aV21383
p3424
aV516377
p3425
aV352353
p3426
aV658376
p3427
aV229553
p3428
aV228108
p3429
aV240568
p3430
aV439958
p3431
aV5178062
p3432
aV33734205
p3433
aV2697304
p3434
aV2640796
p3435
aV1938315
p3436
aV981875
p3437
aV2105583
p3438
aV2606872
p3439
aV3853380
p3440
aV13256
p3441
aV155443
p3442
aV7290308
p3443
aV442482
p3444
aV33251410
p3445
aV33385780
p3446
aV13133962
p3447
aV22657933
p3448
aV33195931
p3449
asVMrNiceGuy1113
p3450
(lp3451
V11409898
p3452
aV11355507
p3453
aV11355480
p3454
aV11355439
p3455
aV11355412
p3456
aV7303121
p3457
aV11355357
p3458
aV11355294
p3459
aV13682686
p3460
aV11355222
p3461
aV2129648
p3462
aV11355148
p3463
aV464820
p3464
aV11354985
p3465
aV11354940
p3466
aV877940
p3467
aV10492915
p3468
aV11152935
p3469
asVSnotbot
p3470
(lp3471
V35973406
p3472
aV35684598
p3473
aV35842098
p3474
aV35617853
p3475
aV30723418
p3476
aV35355537
p3477
aV35854543
p3478
aV35450117
p3479
aV35688099
p3480
aV35745212
p3481
aV35945552
p3482
aV15377063
p3483
aV32124643
p3484
aV28303720
p3485
aV31109037
p3486
aV28323243
p3487
aV6808548
p3488
aV3332833
p3489
aV35742289
p3490
aV16781887
p3491
aV35047924
p3492
aV34489238
p3493
aV34727705
p3494
aV34938962
p3495
aV35754131
p3496
aV30755513
p3497
aV34675907
p3498
aV621063
p3499
aV347060
p3500
aV35638826
p3501
aV3576878
p3502
aV35707883
p3503
aV34386833
p3504
aV35700982
p3505
aV35575715
p3506
aV34794004
p3507
aV35282626
p3508
aV34958632
p3509
aV35659844
p3510
aV14364911
p3511
aV12234411
p3512
aV14288657
p3513
aV35622829
p3514
aV35586204
p3515
aV26192637
p3516
aV9798499
p3517
aV29258508
p3518
asVSteam5
p3519
(lp3520
V429348
p3521
aV442413
p3522
aV29401856
p3523
aV12040646
p3524
aV21254221
p3525
aV1779630
p3526
aV945347
p3527
aV31662677
p3528
aV3779391
p3529
aV674952
p3530
aV3779272
p3531
aV3778970
p3532
aV3778361
p3533
aV34267501
p3534
aV24890089
p3535
aV29378279
p3536
aV1422754
p3537
aV33305725
p3538
aV1396472
p3539
aV108139
p3540
aV354995
p3541
aV31159964
p3542
aV8644861
p3543
aV8644615
p3544
aV10744175
p3545
aV8024645
p3546
aV8552613
p3547
aV100729
p3548
aV425153
p3549
aV16286279
p3550
aV5596976
p3551
aV402842
p3552
aV23400070
p3553
aV7329823
p3554
aV5150823
p3555
aV36021369
p3556
aV1465105
p3557
asV140.241.0.20
p3558
(lp3559
V962642
p3560
aV970069
p3561
aV1994293
p3562
aV146791
p3563
aV32184687
p3564
aV149561
p3565
aV1965717
p3566
aV1601713
p3567
aV9647705
p3568
aV847607
p3569
aV1742787
p3570
aV5213774
p3571
aV1033388
p3572
aV209416
p3573
aV5154784
p3574
aV1321906
p3575
aV1313500
p3576
aV19008577
p3577
aV257272
p3578
aV174922
p3579
aV850048
p3580
aV14554662
p3581
aV2855494
p3582
aV5230926
p3583
aV666931
p3584
aV31098
p3585
aV116752
p3586
aV18276771
p3587
aV884465
p3588
aV151397
p3589
aV11477468
p3590
asVGhosttownaz
p3591
(lp3592
V32113542
p3593
aV18614719
p3594
aV30861497
p3595
aV826549
p3596
aV106790
p3597
aV14463857
p3598
aV8726575
p3599
aV13082098
p3600
aV20813929
p3601
aV20813877
p3602
aV22215467
p3603
aV14788996
p3604
aV8726337
p3605
aV1352916
p3606
asV41.132.75.125
p3607
(lp3608
V7410569
p3609
asV89.240.186.96
p3610
(lp3611
V406072
p3612
asVTheleftorium
p3613
(lp3614
V1766990
p3615
aV1777731
p3616
aV2238902
p3617
aV1777427
p3618
aV34907483
p3619
aV25813358
p3620
aV26895873
p3621
aV33103482
p3622
aV32189649
p3623
aV1424178
p3624
aV192207
p3625
aV29838
p3626
aV32879966
p3627
aV2240117
p3628
aV14331
p3629
aV1777977
p3630
asV117.206.236.12
p3631
(lp3632
V5208126
p3633
asVNephiliskos
p3634
(lp3635
V242606
p3636
aV36036997
p3637
aV18085095
p3638
asVCarterEllis19
p3639
(lp3640
V34412541
p3641
aV35535298
p3642
aV35850096
p3643
aV12182486
p3644
aV19188562
p3645
aV24246434
p3646
aV24551917
p3647
aV35302839
p3648
aV35557287
p3649
aV31778094
p3650
aV31759971
p3651
aV33178700
p3652
aV31604414
p3653
aV17499679
p3654
aV26827936
p3655
aV27243683
p3656
aV18875677
p3657
aV33993952
p3658
aV27047499
p3659
aV31748634
p3660
aV31907701
p3661
aV32996187
p3662
aV33398333
p3663
aV31846287
p3664
aV33001733
p3665
aV31851861
p3666
aV26748314
p3667
asVRichhoncho
p3668
(lp3669
V2205912
p3670
aV31508543
p3671
aV31230447
p3672
aV31230968
p3673
aV31230902
p3674
aV25214565
p3675
aV31230796
p3676
aV31230789
p3677
aV31230689
p3678
aV31230632
p3679
aV31230459
p3680
aV28870227
p3681
aV31230675
p3682
aV36024398
p3683
aV11593961
p3684
aV31230644
p3685
aV31230637
p3686
aV31230478
p3687
aV31230986
p3688
aV5193651
p3689
aV31231017
p3690
aV31231030
p3691
aV31231095
p3692
aV31231128
p3693
aV31231142
p3694
aV31231148
p3695
aV31231163
p3696
aV922055
p3697
aV31231236
p3698
aV31231238
p3699
aV31231270
p3700
aV14585621
p3701
aV31231316
p3702
aV13151694
p3703
aV1329467
p3704
asVSpecial-T
p3705
(lp3706
V151230
p3707
aV130125
p3708
aV151114
p3709
aV151119
p3710
aV130066
p3711
aV660019
p3712
aV136162
p3713
aV6433
p3714
aV234801
p3715
aV768817
p3716
aV24373
p3717
aV60033
p3718
aV258775
p3719
aV253538
p3720
aV556372
p3721
aV58984
p3722
aV29837
p3723
aV33882
p3724
aV26010
p3725
aV2151241
p3726
aV7100
p3727
aV30961
p3728
aV9180355
p3729
aV30353
p3730
aV515395
p3731
aV7957
p3732
aV321546
p3733
aV10984512
p3734
aV926360
p3735
aV49214
p3736
aV235876
p3737
aV31548992
p3738
aV13027
p3739
aV1197705
p3740
aV6681607
p3741
asV159.0.39.140
p3742
(lp3743
V5218457
p3744
asV79.78.208.24
p3745
(lp3746
V18435908
p3747
asV216.214.197.18
p3748
(lp3749
V1149401
p3750
aV3041827
p3751
aV5509441
p3752
aV5509350
p3753
aV695346
p3754
aV1657538
p3755
aV277667
p3756
aV10847
p3757
asVPinethicket
p3758
(lp3759
V15873
p3760
aV328581
p3761
aV4131402
p3762
aV26151
p3763
aV2962292
p3764
aV31513284
p3765
aV41515
p3766
aV15133886
p3767
aV7819
p3768
aV233217
p3769
aV63110
p3770
aV165458
p3771
aV85012
p3772
aV15854
p3773
aV35554623
p3774
aV1571102
p3775
aV11494523
p3776
aV4824
p3777
aV5669199
p3778
aV4979116
p3779
aV277665
p3780
aV34670
p3781
aV227922
p3782
aV23178430
p3783
aV16946852
p3784
aV52234
p3785
aV5068054
p3786
aV45317
p3787
aV16112368
p3788
aV930080
p3789
aV115646
p3790
aV6119571
p3791
aV259502
p3792
aV15855
p3793
aV23639
p3794
aV34752
p3795
aV26701177
p3796
aV581903
p3797
aV264960
p3798
aV51054
p3799
aV73374
p3800
aV19655
p3801
aV13631667
p3802
aV62893
p3803
aV2850124
p3804
aV164384
p3805
aV656245
p3806
aV1597877
p3807
aV22572
p3808
aV5615
p3809
asVBob1960evens
p3810
(lp3811
V1311415
p3812
aV219218
p3813
aV2166491
p3814
aV2617154
p3815
asV159.53.46.147
p3816
(lp3817
V9571211
p3818
aV3717543
p3819
aV58991
p3820
aV23059
p3821
aV5660355
p3822
aV143335
p3823
aV29259560
p3824
aV34346824
p3825
aV14020971
p3826
aV422785
p3827
aV79289
p3828
aV5124517
p3829
aV27052875
p3830
aV305034
p3831
aV3559743
p3832
aV529384
p3833
aV2386
p3834
aV4820327
p3835
aV7799171
p3836
aV31942169
p3837
aV2605544
p3838
aV27410514
p3839
aV4627521
p3840
aV19553481
p3841
aV2043628
p3842
aV3360323
p3843
aV808630
p3844
aV32817449
p3845
aV11411762
p3846
aV39721
p3847
aV2907984
p3848
aV102861
p3849
aV575509
p3850
aV16368217
p3851
aV30828858
p3852
asVKraxler
p3853
(lp3854
V34809257
p3855
aV11592473
p3856
aV20979929
p3857
aV10719975
p3858
aV11453858
p3859
aV35995269
p3860
aV18237373
p3861
aV29418641
p3862
aV1882687
p3863
aV35483326
p3864
aV15574107
p3865
aV1337515
p3866
aV35928904
p3867
aV34262999
p3868
aV21814460
p3869
aV7239282
p3870
aV11260303
p3871
aV11401168
p3872
aV11594312
p3873
aV18681483
p3874
aV28094825
p3875
aV121638
p3876
aV15017259
p3877
aV35962899
p3878
aV33803707
p3879
aV35831490
p3880
aV35864072
p3881
aV18466224
p3882
aV18718724
p3883
aV18813870
p3884
aV35855685
p3885
aV21944981
p3886
aV31834863
p3887
aV15732309
p3888
asV72.22.28.4
p3889
(lp3890
V60611
p3891
aV14612640
p3892
aV3524019
p3893
aV169662
p3894
aV19123969
p3895
aV24887939
p3896
aV17624351
p3897
aV20223
p3898
aV34636
p3899
aV20586
p3900
aV20188067
p3901
aV2903913
p3902
aV13296302
p3903
aV29049575
p3904
aV6342312
p3905
aV422785
p3906
aV27428503
p3907
aV32432
p3908
aV31658
p3909
aV308981
p3910
aV24527985
p3911
aV4021200
p3912
aV8301094
p3913
aV10278775
p3914
aV43168
p3915
aV319214
p3916
aV10778278
p3917
aV27827075
p3918
aV23704
p3919
aV878643
p3920
aV81995
p3921
asVCarlossuarez46
p3922
(lp3923
V36038002
p3924
aV36037998
p3925
aV36037990
p3926
aV30344
p3927
aV36037972
p3928
aV36037967
p3929
aV36037959
p3930
aV36037947
p3931
aV36037944
p3932
aV36037940
p3933
aV36037936
p3934
aV36037926
p3935
aV36037923
p3936
aV36037894
p3937
aV36037891
p3938
aV36037883
p3939
aV36037879
p3940
aV36037877
p3941
aV36037870
p3942
aV36037863
p3943
aV36037860
p3944
aV36037853
p3945
aV36037851
p3946
aV36037848
p3947
aV36037745
p3948
aV36037742
p3949
aV36037738
p3950
aV36037737
p3951
aV36037734
p3952
aV36037732
p3953
aV36037726
p3954
aV36037715
p3955
aV36037713
p3956
aV36037685
p3957
aV36032187
p3958
aV36032185
p3959
aV10632672
p3960
aV16530258
p3961
aV36032180
p3962
aV36031805
p3963
aV36031800
p3964
aV36031796
p3965
aV36031793
p3966
aV36031792
p3967
aV36031789
p3968
aV36031785
p3969
aV36031778
p3970
aV36031774
p3971
asV76.174.215.212
p3972
(lp3973
V4437650
p3974
asV67.180.180.177
p3975
(lp3976
V27996318
p3977
aV18952271
p3978
aV8056602
p3979
asVDemocracy112
p3980
(lp3981
V36037834
p3982
aV36037818
p3983
aV36037798
p3984
aV36037795
p3985
aV36037786
p3986
aV36037773
p3987
aV36037770
p3988
aV36037763
p3989
aV36037759
p3990
aV36037751
p3991
aV36037744
p3992
aV36037741
p3993
aV36037733
p3994
aV36037676
p3995
aV36037673
p3996
aV36037670
p3997
aV36037667
p3998
aV36037657
p3999
aV36037649
p4000
aV36037625
p4001
aV36037616
p4002
aV36037611
p4003
aV36037595
p4004
aV36037496
p4005
aV36037508
p4006
aV36037272
p4007
aV36026219
p4008
aV36035318
p4009
aV36026610
p4010
aV36026334
p4011
aV36026077
p4012
aV36025981
p4013
aV36025752
p4014
aV36025692
p4015
aV27700585
p4016
asV131.107.0.117
p4017
(lp4018
V58608
p4019
aV5887372
p4020
aV29524576
p4021
aV19567348
p4022
aV19349161
p4023
aV34560446
p4024
aV63550
p4025
aV1027957
p4026
aV572997
p4027
aV30206915
p4028
aV3520493
p4029
aV5513800
p4030
aV634
p4031
aV18837359
p4032
aV26206654
p4033
aV32071277
p4034
aV14175243
p4035
aV23275551
p4036
aV1194858
p4037
aV541680
p4038
aV563503
p4039
aV843852
p4040
aV1107184
p4041
asV76.23.23.7
p4042
(lp4043
V27878221
p4044
asVAstros4477
p4045
(lp4046
V1037139
p4047
aV32785421
p4048
aV15545762
p4049
aV13484893
p4050
aV249774
p4051
aV1037325
p4052
aV36028746
p4053
aV36028741
p4054
aV2849652
p4055
aV9494968
p4056
aV493997
p4057
aV158372
p4058
aV176595
p4059
aV147278
p4060
aV4404364
p4061
aV27695925
p4062
aV27695891
p4063
aV27750771
p4064
aV27750788
p4065
aV27750745
p4066
aV33434813
p4067
aV34999597
p4068
aV36018639
p4069
aV36018629
p4070
aV1680862
p4071
asVJoeSperrazza
p4072
(lp4073
V27717
p4074
aV36012233
p4075
aV36029197
p4076
aV3165476
p4077
aV36028917
p4078
aV37135
p4079
aV36028189
p4080
aV36027986
p4081
aV36027973
p4082
aV36027885
p4083
aV36027793
p4084
aV36027780
p4085
aV23270459
p4086
aV28183399
p4087
aV1935442
p4088
aV36021945
p4089
aV581541
p4090
aV5482879
p4091
aV10629842
p4092
aV2008087
p4093
aV3721401
p4094
aV3434750
p4095
aV93092
p4096
aV3237347
p4097
aV15043
p4098
aV4554716
p4099
aV12326205
p4100
aV2202149
p4101
aV648828
p4102
aV6886
p4103
aV18415206
p4104
aV23968
p4105
aV26999426
p4106
aV35968127
p4107
aV165903
p4108
aV356988
p4109
aV25019575
p4110
aV35726543
p4111
aV211280
p4112
aV35952506
p4113
aV36636
p4114
asV107.3.29.160
p4115
(lp4116
V245185
p4117
aV7327130
p4118
aV30949252
p4119
asVNovaseminary
p4120
(lp4121
V21289312
p4122
aV172088
p4123
aV22535682
p4124
aV33391857
p4125
aV33682635
p4126
aV13555073
p4127
aV13651625
p4128
aV310388
p4129
aV2952822
p4130
aV647722
p4131
aV2704632
p4132
aV3152215
p4133
aV13829646
p4134
aV35825237
p4135
aV321516
p4136
aV226921
p4137
aV8873665
p4138
aV12038307
p4139
aV754264
p4140
aV35962740
p4141
aV35958839
p4142
aV1956887
p4143
asVTheDailyVinyl
p4144
(lp4145
V1254747
p4146
aV35474419
p4147
aV13072078
p4148
aV12475173
p4149
aV32465257
p4150
aV24399131
p4151
asVTewapack
p4152
(lp4153
V34548050
p4154
aV22091251
p4155
aV1520408
p4156
aV13058585
p4157
aV34361225
p4158
aV2349327
p4159
aV25368993
p4160
aV1615980
p4161
aV14435654
p4162
aV1569714
p4163
aV11715872
p4164
aV5903831
p4165
aV36009851
p4166
aV4380250
p4167
aV2080151
p4168
aV8001955
p4169
aV1590652
p4170
aV1635463
p4171
aV81694
p4172
aV23421154
p4173
aV1175864
p4174
aV4977557
p4175
aV5379284
p4176
aV9527097
p4177
aV33565478
p4178
aV32750749
p4179
aV32587428
p4180
aV35927801
p4181
aV17807292
p4182
aV1926060
p4183
aV4661388
p4184
aV12710384
p4185
aV2126093
p4186
aV12016388
p4187
aV15926164
p4188
aV18156310
p4189
aV4923131
p4190
aV3628671
p4191
aV6902000
p4192
aV5335565
p4193
aV5164198
p4194
aV5786912
p4195
asVPiledhigheranddeeper
p4196
(lp4197
V67371
p4198
aV17561276
p4199
aV1653864
p4200
aV412200
p4201
aV35825691
p4202
aV35733852
p4203
aV23042123
p4204
aV441661
p4205
aV191713
p4206
aV260856
p4207
aV528202
p4208
aV27319109
p4209
aV885280
p4210
aV42219
p4211
aV1041429
p4212
aV507859
p4213
aV161087
p4214
aV9404236
p4215
aV35940793
p4216
aV35909227
p4217
aV1004014
p4218
aV35799861
p4219
aV141871
p4220
aV684248
p4221
aV35511883
p4222
aV1036801
p4223
aV1289465
p4224
aV69080
p4225
aV2161650
p4226
aV352839
p4227
asVArjann
p4228
(lp4229
V33449567
p4230
aV31662781
p4231
aV32047438
p4232
aV32985148
p4233
aV31232513
p4234
aV11605778
p4235
aV34419436
p4236
aV35595535
p4237
aV34133694
p4238
aV30476775
p4239
aV1634239
p4240
aV2853280
p4241
aV33853218
p4242
aV32861354
p4243
aV35777606
p4244
aV35004712
p4245
aV10514894
p4246
asVMusicfreak7676
p4247
(lp4248
V14349211
p4249
aV17240769
p4250
aV28614346
p4251
aV6862980
p4252
aV10407205
p4253
aV6767156
p4254
aV4029808
p4255
aV6949853
p4256
aV11191873
p4257
aV34911389
p4258
aV35571915
p4259
aV5690038
p4260
aV31897499
p4261
aV18083032
p4262
aV3515200
p4263
aV5410717
p4264
aV8588333
p4265
aV27177505
p4266
aV11578887
p4267
aV5662925
p4268
aV18239660
p4269
aV7689369
p4270
aV34986553
p4271
aV5711476
p4272
aV35009690
p4273
aV209066
p4274
aV6939088
p4275
aV5713640
p4276
aV1126578
p4277
aV261035
p4278
aV8520497
p4279
aV345218
p4280
aV345217
p4281
aV345231
p4282
aV345228
p4283
aV1796361
p4284
aV16666890
p4285
aV7431959
p4286
aV32193710
p4287
aV2697824
p4288
asV182.68.174.79
p4289
(lp4290
V449583
p4291
asVLisaMLane
p4292
(lp4293
V32362461
p4294
aV3446197
p4295
aV2023025
p4296
aV12529986
p4297
aV17364396
p4298
aV74677
p4299
aV4549152
p4300
asV83.87.75.67
p4301
(lp4302
V648117
p4303
aV10073889
p4304
aV20023828
p4305
aV35950530
p4306
aV10827111
p4307
aV1634882
p4308
aV14457689
p4309
aV3337375
p4310
aV9367063
p4311
aV35504102
p4312
aV327158
p4313
aV6911828
p4314
aV735362
p4315
aV13430141
p4316
aV7512139
p4317
aV1325610
p4318
aV2951123
p4319
aV402052
p4320
aV57415
p4321
aV2694266
p4322
aV2715921
p4323
aV30872739
p4324
aV21342805
p4325
aV34154764
p4326
aV29052868
p4327
asVCentralVA
p4328
(lp4329
V2763792
p4330
aV19336
p4331
aV18848275
p4332
aV10697873
p4333
aV18370097
p4334
aV9759443
p4335
asVEdwardx
p4336
(lp4337
V6981395
p4338
aV888070
p4339
aV163903
p4340
aV838000
p4341
aV8312802
p4342
aV168307
p4343
aV1873492
p4344
aV1877251
p4345
aV223913
p4346
aV224508
p4347
aV4718514
p4348
aV3368842
p4349
aV2167549
p4350
aV455810
p4351
aV11638472
p4352
aV1450171
p4353
aV3605714
p4354
aV149499
p4355
aV5885400
p4356
aV10078083
p4357
aV462550
p4358
aV4947130
p4359
aV5824610
p4360
aV2145711
p4361
aV2184330
p4362
aV353209
p4363
aV35970626
p4364
aV2247923
p4365
aV21814156
p4366
aV108111
p4367
aV613974
p4368
aV2286750
p4369
aV1405234
p4370
aV560164
p4371
aV1553804
p4372
aV4438953
p4373
aV24988160
p4374
aV4768522
p4375
aV5161989
p4376
aV609020
p4377
aV20418
p4378
aV18993719
p4379
aV19827626
p4380
aV4453827
p4381
aV1815259
p4382
aV399078
p4383
aV11409436
p4384
asVEvolution2k8
p4385
(lp4386
V36029877
p4387
aV36027244
p4388
aV33137908
p4389
aV35964822
p4390
aV35894934
p4391
aV35951459
p4392
aV35954641
p4393
asVLugnuts
p4394
(lp4395
V15400846
p4396
aV22480157
p4397
aV20925627
p4398
aV12567432
p4399
aV12581928
p4400
aV12631322
p4401
aV22495256
p4402
aV22519868
p4403
aV36036384
p4404
aV36036377
p4405
aV32021529
p4406
aV913791
p4407
aV36036273
p4408
aV36036259
p4409
aV36036245
p4410
aV913912
p4411
aV34290283
p4412
aV2440805
p4413
aV7332292
p4414
aV36036162
p4415
aV20791313
p4416
aV32809321
p4417
aV36036116
p4418
aV36036034
p4419
aV36036012
p4420
aV36036022
p4421
aV7296803
p4422
aV36009711
p4423
aV18794273
p4424
aV36034990
p4425
aV36034987
p4426
aV36034957
p4427
aV36034967
p4428
aV36034965
p4429
aV36034941
p4430
aV36034929
p4431
aV14417823
p4432
aV32421784
p4433
aV913656
p4434
aV7331756
p4435
aV36034820
p4436
aV7331790
p4437
aV30685638
p4438
aV18876872
p4439
aV7315738
p4440
asVCathairawr
p4441
(lp4442
V3092985
p4443
aV530870
p4444
aV5247407
p4445
aV1991235
p4446
aV314172
p4447
aV1998157
p4448
aV1998057
p4449
aV1998192
p4450
aV3190362
p4451
aV3014113
p4452
aV3512313
p4453
aV1992835
p4454
aV3867528
p4455
aV8349192
p4456
aV3052247
p4457
aV3092963
p4458
aV4687263
p4459
aV3867574
p4460
aV4313404
p4461
aV1991279
p4462
aV2394022
p4463
aV554247
p4464
aV1992613
p4465
aV10143531
p4466
aV3092956
p4467
aV4687145
p4468
aV34028475
p4469
aV1998116
p4470
aV1998252
p4471
aV1930053
p4472
aV5243403
p4473
aV1991326
p4474
aV1998037
p4475
aV2961363
p4476
aV806150
p4477
aV2794180
p4478
aV1992733
p4479
aV1992778
p4480
aV5247456
p4481
aV13163306
p4482
aV1992924
p4483
aV1998088
p4484
aV4760925
p4485
asVBongwarrior
p4486
(lp4487
V406072
p4488
aV5900312
p4489
aV34734093
p4490
aV1413783
p4491
aV383448
p4492
aV36020484
p4493
aV8307909
p4494
aV2425635
p4495
aV22782393
p4496
aV72850
p4497
aV2303860
p4498
aV73133
p4499
aV343138
p4500
aV22680876
p4501
aV3547447
p4502
aV385156
p4503
aV13201723
p4504
aV410515
p4505
aV768413
p4506
aV35954027
p4507
aV1848144
p4508
aV2622039
p4509
aV34316125
p4510
aV2209145
p4511
aV362917
p4512
aV2957681
p4513
aV16140453
p4514
aV3067217
p4515
aV59993
p4516
aV45712
p4517
aV1849742
p4518
aV29080909
p4519
aV1566935
p4520
aV340931
p4521
aV19389
p4522
aV35926922
p4523
aV28203
p4524
aV35698744
p4525
aV44668
p4526
aV12215597
p4527
aV11999840
p4528
aV35909268
p4529
aV15863
p4530
aV288116
p4531
aV1187948
p4532
asV99.40.230.83
p4533
(lp4534
V6274457
p4535
aV31967971
p4536
asVRickMorais
p4537
(lp4538
V2630987
p4539
aV90143
p4540
aV686122
p4541
aV45080
p4542
aV35749177
p4543
aV35749200
p4544
aV47374
p4545
aV2323522
p4546
aV3790517
p4547
aV3512033
p4548
aV192669
p4549
aV3575307
p4550
aV35325878
p4551
aV17845
p4552
aV15798
p4553
aV19524
p4554
aV35306032
p4555
aV35306117
p4556
aV203647
p4557
aV35262772
p4558
aV18091
p4559
aV10332686
p4560
aV12598913
p4561
aV5276582
p4562
aV34206381
p4563
aV34210609
p4564
aV669572
p4565
aV35220
p4566
asV206.248.30.66
p4567
(lp4568
V114537
p4569
aV6234942
p4570
aV4459282
p4571
aV915924
p4572
aV16855
p4573
aV3121968
p4574
aV25295
p4575
aV60288
p4576
aV1623135
p4577
aV7871891
p4578
aV536918
p4579
aV994199
p4580
aV7325728
p4581
aV1419224
p4582
aV114672
p4583
aV1886323
p4584
aV31317180
p4585
aV12089889
p4586
aV7133005
p4587
aV7181463
p4588
aV2924161
p4589
aV7957604
p4590
aV14118118
p4591
aV436053
p4592
aV150444
p4593
aV19645952
p4594
aV1780941
p4595
aV13363823
p4596
aV2394121
p4597
aV33458809
p4598
asVARTEST4ECHO
p4599
(lp4600
V24320124
p4601
aV12775732
p4602
aV12775914
p4603
aV35930823
p4604
aV13410007
p4605
aV28608469
p4606
aV2108588
p4607
aV407711
p4608
aV2925165
p4609
aV5043761
p4610
aV12776196
p4611
aV12776098
p4612
aV8943175
p4613
aV1072673
p4614
aV35977402
p4615
aV27238813
p4616
aV891661
p4617
aV27872082
p4618
aV15857804
p4619
aV1822818
p4620
aV185843
p4621
aV394874
p4622
aV8678186
p4623
aV35734478
p4624
aV29462586
p4625
aV157430
p4626
aV11475238
p4627
aV3683646
p4628
aV24311840
p4629
aV17883091
p4630
asVMr305worldwide
p4631
(lp4632
V2812578
p4633
aV1615957
p4634
aV32087
p4635
aV2718091
p4636
aV29133071
p4637
aV1873365
p4638
aV12129280
p4639
aV32223
p4640
asV123.236.82.242
p4641
(lp4642
V27719890
p4643
aV1679698
p4644
asV68.193.148.156
p4645
(lp4646
V3629521
p4647
aV4666344
p4648
aV2074334
p4649
aV24265311
p4650
aV11548185
p4651
aV5529341
p4652
aV6342981
p4653
aV2139853
p4654
aV20204
p4655
asVMichaelgokil
p4656
(lp4657
V1044538
p4658
aV5285635
p4659
aV34909619
p4660
aV29138979
p4661
aV35774638
p4662
aV11847178
p4663
aV15956061
p4664
aV35774722
p4665
aV29213365
p4666
aV3798466
p4667
aV34240079
p4668
aV8380895
p4669
aV30044101
p4670
aV1885668
p4671
asVMeco
p4672
(lp4673
V192467
p4674
aV6319583
p4675
aV35941633
p4676
aV18309966
p4677
aV156699
p4678
aV23891
p4679
aV36015209
p4680
aV1272748
p4681
aV28858009
p4682
aV4247829
p4683
aV871020
p4684
aV28756953
p4685
aV35995953
p4686
aV7517723
p4687
aV8956000
p4688
aV35826350
p4689
aV35336644
p4690
aV268245
p4691
aV35993328
p4692
aV1192308
p4693
aV32632702
p4694
aV177954
p4695
aV194811
p4696
aV1577501
p4697
aV34240749
p4698
aV771088
p4699
aV35969336
p4700
asVZad68
p4701
(lp4702
V35983349
p4703
aV35983912
p4704
aV950208
p4705
aV2699458
p4706
aV2988641
p4707
aV487390
p4708
aV29202891
p4709
aV1722361
p4710
aV2358665
p4711
aV2095637
p4712
aV27080830
p4713
aV8718425
p4714
aV15627
p4715
aV70548
p4716
aV35301830
p4717
aV52883
p4718
aV8607574
p4719
aV685945
p4720
aV35891760
p4721
aV34886915
p4722
aV6323252
p4723
aV31290405
p4724
aV140704
p4725
asVGyrofrog
p4726
(lp4727
V642526
p4728
aV2300927
p4729
aV30330250
p4730
aV185126
p4731
aV78385
p4732
aV1571696
p4733
aV10532549
p4734
aV1676535
p4735
aV441357
p4736
aV1114941
p4737
aV7722751
p4738
aV16022862
p4739
aV13922073
p4740
aV6877673
p4741
aV743769
p4742
aV1705548
p4743
aV1456433
p4744
aV1989255
p4745
aV5969701
p4746
aV11282737
p4747
aV6071967
p4748
aV8111088
p4749
aV7606039
p4750
aV462734
p4751
aV13408587
p4752
aV1868058
p4753
aV3809322
p4754
aV3591961
p4755
aV1591467
p4756
aV15137617
p4757
aV1785798
p4758
aV4828036
p4759
aV2157363
p4760
aV62143
p4761
aV1693743
p4762
aV33401749
p4763
aV393817
p4764
aV22983707
p4765
aV32143399
p4766
aV2458523
p4767
asV2.96.166.126
p4768
(lp4769
V3754578
p4770
asVKafuffle
p4771
(lp4772
V36037987
p4773
aV36030961
p4774
aV36037484
p4775
aV6958840
p4776
aV6912305
p4777
aV6803119
p4778
aV6822592
p4779
aV72480
p4780
aV6810518
p4781
aV1707018
p4782
aV6904415
p4783
aV36035613
p4784
aV36035101
p4785
aV5732736
p4786
aV1107745
p4787
aV7564771
p4788
aV7770160
p4789
aV7564688
p4790
aV2608205
p4791
aV1082838
p4792
aV14576175
p4793
aV35241741
p4794
aV14574988
p4795
aV36024202
p4796
aV36024197
p4797
aV35773409
p4798
aV8595085
p4799
aV16503705
p4800
aV4506723
p4801
aV5415782
p4802
aV3958766
p4803
aV7111685
p4804
aV36004136
p4805
aV36004111
p4806
aV34447898
p4807
aV35998965
p4808
aV35998944
p4809
aV35611755
p4810
aV9135713
p4811
asV174.5.213.39
p4812
(lp4813
V31061251
p4814
aV12170624
p4815
aV15836923
p4816
aV684397
p4817
aV463025
p4818
aV20936195
p4819
aV33657371
p4820
aV5978821
p4821
aV16613561
p4822
aV35618466
p4823
aV26779113
p4824
aV28413007
p4825
aV26790120
p4826
aV34431152
p4827
aV291226
p4828
aV1335475
p4829
aV21330650
p4830
aV30731473
p4831
aV56989
p4832
aV25403604
p4833
aV21171319
p4834
aV2376244
p4835
aV2935437
p4836
aV24042549
p4837
aV27274317
p4838
aV27363328
p4839
aV12132986
p4840
aV14072099
p4841
aV15122681
p4842
aV23180602
p4843
asV74.213.7.106
p4844
(lp4845
V5547766
p4846
aV1612367
p4847
aV561182
p4848
aV740870
p4849
aV432249
p4850
aV374904
p4851
aV478614
p4852
aV6384282
p4853
aV468919
p4854
aV318998
p4855
aV277587
p4856
aV331337
p4857
aV2620698
p4858
aV2942397
p4859
aV58928
p4860
aV1981920
p4861
aV21486951
p4862
aV105439
p4863
aV1367546
p4864
aV5076192
p4865
aV828663
p4866
aV1259224
p4867
aV635632
p4868
aV275566
p4869
aV1575791
p4870
aV2258471
p4871
aV2065260
p4872
aV441663
p4873
aV17675754
p4874
asVMikeLynch
p4875
(lp4876
V35301204
p4877
aV37516
p4878
aV15829930
p4879
aV31060135
p4880
aV1061241
p4881
aV281337
p4882
aV30876250
p4883
aV31348569
p4884
aV35119770
p4885
aV25109534
p4886
aV163038
p4887
aV7865082
p4888
aV35592460
p4889
aV35680766
p4890
aV7166679
p4891
aV35659197
p4892
aV16872084
p4893
aV1848079
p4894
aV33877519
p4895
aV3539892
p4896
aV1846735
p4897
aV34143589
p4898
aV3637763
p4899
aV392095
p4900
aV908126
p4901
aV250724
p4902
aV238760
p4903
aV1418599
p4904
aV1684096
p4905
aV599650
p4906
aV16781580
p4907
aV1189997
p4908
aV42154
p4909
aV806892
p4910
aV47988
p4911
aV1750
p4912
aV602648
p4913
aV1335758
p4914
asV117.204.140.83
p4915
(lp4916
V10577713
p4917
asVJohnArmagh
p4918
(lp4919
V142596
p4920
aV12465182
p4921
aV12118514
p4922
aV33684
p4923
aV732247
p4924
aV8857801
p4925
asVGoodDay
p4926
(lp4927
V24377688
p4928
aV21090700
p4929
aV29828162
p4930
aV7964686
p4931
aV5975647
p4932
aV35987677
p4933
aV703607
p4934
aV203756
p4935
aV42966
p4936
aV34169133
p4937
aV19069314
p4938
aV3801738
p4939
aV19242297
p4940
aV18721788
p4941
aV12737307
p4942
aV2806149
p4943
aV29144150
p4944
aV5292890
p4945
aV667016
p4946
aV3017227
p4947
aV8415636
p4948
aV21919022
p4949
aV20845573
p4950
aV13375615
p4951
aV10261340
p4952
aV3489519
p4953
aV1088705
p4954
aV24557486
p4955
aV31876081
p4956
aV73125
p4957
aV73133
p4958
aV70155
p4959
aV73124
p4960
aV30519527
p4961
aV73139
p4962
aV66964
p4963
aV73138
p4964
aV22705
p4965
aV66881
p4966
aV66880
p4967
aV73140
p4968
aV73132
p4969
aV70551
p4970
aV73129
p4971
aV8795
p4972
aV73135
p4973
aV73128
p4974
aV70948
p4975
asV88.141.39.181
p4976
(lp4977
V707926
p4978
asV74.202.57.170
p4979
(lp4980
V1981159
p4981
asVBarbaracarder
p4982
(lp4983
V12027035
p4984
aV8903910
p4985
aV126633
p4986
aV3746058
p4987
aV126637
p4988
aV5618714
p4989
aV259885
p4990
asVDjln
p4991
(lp4992
V17429269
p4993
aV4504396
p4994
aV6476710
p4995
aV24573686
p4996
aV14914734
p4997
aV7950674
p4998
aV25114021
p4999
aV22725430
p5000
aV7098311
p5001
aV34059272
p5002
aV5133057
p5003
aV5032618
p5004
aV1714231
p5005
aV1933364
p5006
aV2605007
p5007
aV8475325
p5008
aV1711684
p5009
aV322713
p5010
aV375226
p5011
aV21508033
p5012
aV11296832
p5013
aV28369385
p5014
aV36020859
p5015
aV12776895
p5016
aV21510197
p5017
aV7385893
p5018
aV35965210
p5019
aV35805448
p5020
aV34266200
p5021
aV33459076
p5022
aV33655997
p5023
aV34333696
p5024
aV10650795
p5025
aV16888756
p5026
asVJowaninpensans
p5027
(lp5028
V36037682
p5029
aV32298930
p5030
aV11119022
p5031
aV12131507
p5032
aV35938494
p5033
aV31992920
p5034
aV3500134
p5035
aV33397103
p5036
aV35973756
p5037
aV32194695
p5038
aV32137881
p5039
aV33702495
p5040
aV25067595
p5041
aV7379525
p5042
aV350532
p5043
aV3421766
p5044
aV34238118
p5045
aV2554575
p5046
asVWikiDan61
p5047
(lp5048
V36036935
p5049
aV36036561
p5050
aV36037567
p5051
aV36037462
p5052
aV36036639
p5053
aV36036390
p5054
aV36036373
p5055
aV30603927
p5056
aV35684598
p5057
aV2215098
p5058
aV947831
p5059
aV6433108
p5060
aV71301
p5061
aV36007068
p5062
aV35972532
p5063
aV36006906
p5064
aV36006352
p5065
aV36006331
p5066
aV36005544
p5067
aV4704728
p5068
aV7872357
p5069
aV36005435
p5070
aV2954310
p5071
aV20500922
p5072
aV35993032
p5073
aV35997739
p5074
aV35935723
p5075
aV35995440
p5076
aV35992729
p5077
aV35993580
p5078
aV35993237
p5079
aV35987263
p5080
aV6723276
p5081
aV1126578
p5082
aV35992636
p5083
aV35986059
p5084
aV35985876
p5085
asVDmcq
p5086
(lp5087
V740817
p5088
aV9613
p5089
aV19192
p5090
aV31112
p5091
aV13200637
p5092
aV7851870
p5093
aV64243
p5094
aV3134388
p5095
aV10520679
p5096
aV14554
p5097
aV991
p5098
aV9803384
p5099
aV4463446
p5100
aV5739
p5101
aV8267
p5102
aV185663
p5103
aV366723
p5104
aV191123
p5105
aV25175
p5106
aV3575201
p5107
aV18276340
p5108
aV13636
p5109
aV30367
p5110
aV13969
p5111
aV7163
p5112
aV4706881
p5113
aV23000
p5114
aV11376
p5115
aV312075
p5116
aV147912
p5117
aV5762265
p5118
aV483773
p5119
aV7719033
p5120
aV61229
p5121
asVDBigXray
p5122
(lp5123
V23845327
p5124
aV18702486
p5125
aV15416063
p5126
aV13226865
p5127
aV712848
p5128
aV433072
p5129
aV155522
p5130
aV35994126
p5131
aV35408347
p5132
aV18703094
p5133
aV35495683
p5134
aV351276
p5135
aV3204540
p5136
aV36012233
p5137
aV35138956
p5138
aV35685089
p5139
aV36035354
p5140
aV35959046
p5141
aV36034755
p5142
aV27776167
p5143
aV36034446
p5144
aV36034439
p5145
aV36034415
p5146
asV97.71.68.227
p5147
(lp5148
V6745318
p5149
aV194034
p5150
aV18152825
p5151
aV31809669
p5152
aV28357674
p5153
aV16701360
p5154
aV643226
p5155
aV1385825
p5156
aV3545033
p5157
aV28062890
p5158
aV3117784
p5159
aV7216911
p5160
aV3805855
p5161
aV4046371
p5162
asVCanoe1967
p5163
(lp5164
V4055613
p5165
aV543323
p5166
aV483681
p5167
aV352080
p5168
aV35788446
p5169
aV348535
p5170
aV916249
p5171
aV629551
p5172
aV22282523
p5173
aV22500720
p5174
aV14884844
p5175
aV62984
p5176
aV21340364
p5177
aV31489723
p5178
aV1877872
p5179
aV21359332
p5180
aV22418955
p5181
aV35965249
p5182
aV630260
p5183
aV1784928
p5184
aV236268
p5185
aV144386
p5186
aV8530190
p5187
aV14511116
p5188
aV277322
p5189
aV15610190
p5190
aV152692
p5191
aV156891
p5192
aV36001616
p5193
aV9491
p5194
aV34678509
p5195
aV1881737
p5196
aV3306102
p5197
aV708656
p5198
aV1286899
p5199
asV207.87.33.46
p5200
(lp5201
V11972435
p5202
aV21845814
p5203
aV3546973
p5204
aV3616873
p5205
aV471844
p5206
aV7297566
p5207
aV871416
p5208
aV81640
p5209
aV402402
p5210
aV6200603
p5211
aV169320
p5212
aV672999
p5213
aV57448
p5214
aV732975
p5215
aV1205348
p5216
aV1021510
p5217
aV2269463
p5218
aV24355242
p5219
asVJayen466
p5220
(lp5221
V262819
p5222
aV20904317
p5223
aV763517
p5224
aV1544374
p5225
aV13118744
p5226
aV3025227
p5227
aV543905
p5228
aV227480
p5229
aV222448
p5230
aV18934
p5231
aV31028787
p5232
aV14759518
p5233
aV2295345
p5234
aV16665307
p5235
aV236404
p5236
aV889224
p5237
aV21353909
p5238
aV35321955
p5239
aV1820528
p5240
aV25198300
p5241
aV2901782
p5242
aV1962277
p5243
aV213740
p5244
asVDornicke
p5245
(lp5246
V599680
p5247
aV153578
p5248
aV23924839
p5249
aV20594750
p5250
aV24756523
p5251
aV11326983
p5252
aV7649378
p5253
aV30959515
p5254
aV5445775
p5255
aV6176363
p5256
aV336375
p5257
aV9120071
p5258
aV28427984
p5259
aV21420168
p5260
aV12928577
p5261
aV1003720
p5262
asVLozziePopxX
p5263
(lp5264
V24160635
p5265
aV28138758
p5266
aV36037045
p5267
asV142.221.110.221
p5268
(lp5269
V10805003
p5270
aV505542
p5271
aV25816
p5272
aV53446
p5273
aV612026
p5274
aV61385
p5275
aV1822305
p5276
aV275773
p5277
aV17842950
p5278
aV38985
p5279
asVDrKiernan
p5280
(lp5281
V62093
p5282
aV206492
p5283
aV46755
p5284
aV12153654
p5285
aV125209
p5286
aV322159
p5287
aV18835362
p5288
aV167335
p5289
aV46854
p5290
aV293253
p5291
aV269055
p5292
aV46684
p5293
aV46744
p5294
aV6752770
p5295
aV206442
p5296
aV20713
p5297
aV10436
p5298
aV10440
p5299
aV10441
p5300
aV195020
p5301
aV195012
p5302
aV23777795
p5303
aV189855
p5304
aV187753
p5305
aV20960029
p5306
asVWikidemon
p5307
(lp5308
V266307
p5309
aV20082093
p5310
aV25311421
p5311
aV31094840
p5312
aV6522604
p5313
aV18938099
p5314
aV5261067
p5315
aV2051428
p5316
aV33132430
p5317
aV24423967
p5318
aV35270133
p5319
aV32337369
p5320
aV35876801
p5321
aV26749224
p5322
aV904450
p5323
aV20617631
p5324
aV534366
p5325
aV35627827
p5326
aV2986489
p5327
aV17881122
p5328
aV970755
p5329
aV3716026
p5330
aV11393186
p5331
aV9785040
p5332
aV34779981
p5333
aV2501906
p5334
aV633384
p5335
aV73440
p5336
asVRicJac
p5337
(lp5338
V13456
p5339
aV38398
p5340
aV211714
p5341
aV1852845
p5342
aV4135308
p5343
aV1750673
p5344
aV367085
p5345
aV1475269
p5346
aV172899
p5347
aV22114132
p5348
aV27306717
p5349
aV205858
p5350
aV374491
p5351
aV195846
p5352
aV30460858
p5353
aV1720476
p5354
aV444977
p5355
aV1877136
p5356
aV170174
p5357
aV1727616
p5358
aV4154892
p5359
aV20714373
p5360
asVEric3791
p5361
(lp5362
V31056604
p5363
aV35918547
p5364
asV91.155.208.42
p5365
(lp5366
V35937252
p5367
aV221478
p5368
aV16887517
p5369
aV491120
p5370
aV262054
p5371
aV6976884
p5372
aV34359398
p5373
aV19217714
p5374
aV512580
p5375
aV509338
p5376
aV4603840
p5377
aV6669317
p5378
aV34558993
p5379
aV329871
p5380
aV22454986
p5381
aV35670077
p5382
aV26593340
p5383
aV23504819
p5384
aV22707837
p5385
aV1021520
p5386
aV2691518
p5387
aV892520
p5388
aV35841356
p5389
aV5348041
p5390
aV4817542
p5391
aV30874322
p5392
aV3840368
p5393
aV30786015
p5394
aV30871929
p5395
aV34785183
p5396
aV4241625
p5397
aV22508032
p5398
aV22508322
p5399
aV14241786
p5400
aV22534571
p5401
aV23177674
p5402
aV19278686
p5403
aV8960133
p5404
aV4606420
p5405
aV4606476
p5406
aV27878650
p5407
aV33540064
p5408
aV34824446
p5409
aV35209665
p5410
aV32130528
p5411
aV6506041
p5412
aV1537535
p5413
aV399469
p5414
aV470281
p5415
aV1150797
p5416
asVZoupan
p5417
(lp5418
V36037004
p5419
aV3233994
p5420
aV385109
p5421
aV5309171
p5422
aV42399
p5423
aV322505
p5424
aV854000
p5425
aV36026451
p5426
aV36026445
p5427
aV23310211
p5428
aV36021987
p5429
aV292787
p5430
aV462663
p5431
aV3313522
p5432
aV283933
p5433
aV34428420
p5434
aV18683663
p5435
aV15239679
p5436
aV20664568
p5437
aV31860763
p5438
aV8231921
p5439
aV29514210
p5440
aV7471189
p5441
aV13669199
p5442
aV42213
p5443
aV894820
p5444
aV5472306
p5445
aV4231969
p5446
aV3557885
p5447
aV35944172
p5448
aV9673079
p5449
aV13566374
p5450
aV27394335
p5451
aV10067175
p5452
aV35917072
p5453
aV27439303
p5454
aV27439301
p5455
aV7394175
p5456
asVJihadcola
p5457
(lp5458
V5698039
p5459
aV1802363
p5460
aV326257
p5461
aV35156993
p5462
aV83835
p5463
aV11825946
p5464
aV2119178
p5465
aV29932756
p5466
aV2667939
p5467
asVAsc85
p5468
(lp5469
V106669
p5470
aV719429
p5471
aV33199658
p5472
aV414848
p5473
aV33683
p5474
aV4169799
p5475
aV661735
p5476
aV351329
p5477
aV912669
p5478
aV34952134
p5479
aV1085675
p5480
aV384606
p5481
aV1450984
p5482
aV11708961
p5483
aV110062
p5484
aV147311
p5485
aV2344655
p5486
aV9140525
p5487
aV3940428
p5488
aV2225078
p5489
aV13380375
p5490
aV1689420
p5491
aV277149
p5492
aV32552492
p5493
aV22966182
p5494
aV771593
p5495
aV1277598
p5496
aV858040
p5497
aV2558317
p5498
aV50585
p5499
aV27111734
p5500
aV2317224
p5501
aV125665
p5502
aV150473
p5503
aV32986465
p5504
aV14206625
p5505
aV11494260
p5506
aV21793159
p5507
aV3106135
p5508
aV26250189
p5509
asVThorncrag
p5510
(lp5511
V35954361
p5512
aV25619904
p5513
aV35743962
p5514
aV35937620
p5515
aV35924937
p5516
aV32548487
p5517
aV277462
p5518
aV35636420
p5519
aV35326965
p5520
aV35908346
p5521
aV35995350
p5522
aV773123
p5523
aV11274
p5524
aV211714
p5525
aV30740499
p5526
aV37583
p5527
aV16225773
p5528
aV34223909
p5529
aV34139719
p5530
aV34221594
p5531
asV99.254.93.189
p5532
(lp5533
V16979222
p5534
asVMlewan
p5535
(lp5536
V316732
p5537
aV15743082
p5538
aV408002
p5539
aV297256
p5540
aV34401665
p5541
aV2408701
p5542
aV1366856
p5543
aV679169
p5544
aV16119919
p5545
aV7877522
p5546
aV32494
p5547
aV16287570
p5548
aV26092
p5549
aV284398
p5550
aV1387542
p5551
aV16813899
p5552
aV168586
p5553
aV462483
p5554
aV2954351
p5555
aV859292
p5556
aV8915376
p5557
aV9276466
p5558
aV25739
p5559
aV287010
p5560
aV22823767
p5561
aV22823639
p5562
aV22821494
p5563
aV56308
p5564
aV1776566
p5565
aV18177739
p5566
aV372516
p5567
aV1386692
p5568
aV15040028
p5569
aV7535953
p5570
aV957075
p5571
aV1662653
p5572
aV95135
p5573
aV1161627
p5574
aV29843
p5575
asVDaveVoorhis
p5576
(lp5577
V3946552
p5578
aV636140
p5579
aV3077431
p5580
aV84481
p5581
aV703643
p5582
aV467319
p5583
aV26220
p5584
aV175285
p5585
aV2878490
p5586
asV90.199.107.135
p5587
(lp5588
V1447234
p5589
aV225697
p5590
aV26029734
p5591
asVVankod
p5592
(lp5593
V31071369
p5594
aV19621705
p5595
aV11736877
p5596
aV35926439
p5597
aV4635114
p5598
aV17066095
p5599
aV9183436
p5600
aV28236220
p5601
aV24592220
p5602
aV25033726
p5603
aV19112971
p5604
aV32680876
p5605
aV13407740
p5606
aV21810862
p5607
aV35407675
p5608
aV24401632
p5609
aV24713301
p5610
aV31673850
p5611
aV1440472
p5612
aV6872188
p5613
aV13463517
p5614
aV18330937
p5615
aV35125029
p5616
aV12081449
p5617
aV4068486
p5618
aV30740367
p5619
aV2424220
p5620
aV8857231
p5621
aV18807014
p5622
aV15022763
p5623
aV17102608
p5624
aV24780546
p5625
aV10470998
p5626
aV14598888
p5627
aV13406057
p5628
aV2528932
p5629
aV18502759
p5630
aV11993113
p5631
aV19357980
p5632
aV24724915
p5633
asV173.65.4.44
p5634
(lp5635
V29902542
p5636
aV4174965
p5637
aV7963318
p5638
asVBlackdoom77
p5639
(lp5640
V10400583
p5641
aV6984
p5642
aV32912919
p5643
aV775859
p5644
aV18803164
p5645
aV29844042
p5646
aV970642
p5647
aV23106529
p5648
aV14561
p5649
aV152735
p5650
aV20537952
p5651
aV15947451
p5652
aV471293
p5653
aV17709998
p5654
aV25893385
p5655
aV1070801
p5656
aV453969
p5657
aV35664874
p5658
aV2539708
p5659
aV6211806
p5660
aV4595581
p5661
aV17151448
p5662
aV692656
p5663
asV91.212.248.28
p5664
(lp5665
V5030769
p5666
asVP64
p5667
(lp5668
V39945
p5669
aV9080
p5670
aV10258804
p5671
aV9891210
p5672
aV162856
p5673
aV16257363
p5674
aV10089286
p5675
aV10371811
p5676
aV10073372
p5677
aV358192
p5678
aV6613685
p5679
aV35985559
p5680
aV30709
p5681
aV3678706
p5682
aV15693944
p5683
aV20146636
p5684
aV337252
p5685
aV1257539
p5686
aV811766
p5687
aV12602589
p5688
aV685222
p5689
aV624840
p5690
aV59359
p5691
aV175883
p5692
aV69088
p5693
aV918825
p5694
aV20162612
p5695
aV205479
p5696
aV2673576
p5697
aV235892
p5698
aV35829508
p5699
aV16875195
p5700
aV35829333
p5701
aV35829308
p5702
aV197638
p5703
aV8909488
p5704
aV33112877
p5705
aV3596206
p5706
aV18327
p5707
asVSasata
p5708
(lp5709
V20423
p5710
aV8543315
p5711
aV758403
p5712
aV35970661
p5713
aV3692798
p5714
aV22550094
p5715
aV22488825
p5716
aV8247890
p5717
aV35756149
p5718
aV21080599
p5719
aV1037074
p5720
aV12860475
p5721
aV38468
p5722
aV60059
p5723
asVGodofredo29
p5724
(lp5725
V726218
p5726
aV313009
p5727
aV634622
p5728
aV7065238
p5729
aV129740
p5730
aV8031432
p5731
aV18603797
p5732
aV982243
p5733
aV18638934
p5734
aV2987094
p5735
aV5454803
p5736
aV160199
p5737
aV22461
p5738
aV1957449
p5739
aV1792890
p5740
aV1194427
p5741
aV67160
p5742
aV302324
p5743
aV129801
p5744
aV1040760
p5745
aV22468
p5746
aV993655
p5747
aV97368
p5748
aV20736775
p5749
aV462500
p5750
aV348130
p5751
asVZZ47
p5752
(lp5753
V4415732
p5754
aV35961900
p5755
aV35001969
p5756
aV35537042
p5757
aV34316302
p5758
aV35972618
p5759
aV26227917
p5760
aV24873558
p5761
aV32453578
p5762
aV29786435
p5763
aV33368383
p5764
aV23980981
p5765
aV13609156
p5766
aV23966589
p5767
aV21666283
p5768
aV34876105
p5769
asVMcarling
p5770
(lp5771
V33345597
p5772
aV2758249
p5773
aV7550182
p5774
aV4124046
p5775
aV708954
p5776
aV5285468
p5777
aV8177035
p5778
aV362961
p5779
aV35940743
p5780
aV49132
p5781
aV35849192
p5782
aV35848087
p5783
aV35790290
p5784
aV8563923
p5785
aV19283814
p5786
aV1370788
p5787
aV1716462
p5788
aV1056664
p5789
aV1184951
p5790
aV20246201
p5791
aV28177864
p5792
aV50748
p5793
aV1078260
p5794
aV1019567
p5795
aV1167316
p5796
aV25690249
p5797
aV629611
p5798
aV3642217
p5799
aV3558514
p5800
aV993255
p5801
aV241693
p5802
aV31368281
p5803
aV31339884
p5804
aV18603746
p5805
aV307133
p5806
aV12641034
p5807
aV4311503
p5808
aV11188944
p5809
aV18654563
p5810
aV416499
p5811
aV14281019
p5812
aV10672356
p5813
aV1153392
p5814
aV2671819
p5815
asVMathsci
p5816
(lp5817
V35591224
p5818
aV9239
p5819
aV35610544
p5820
aV20611107
p5821
aV4163014
p5822
aV36015114
p5823
aV23216627
p5824
aV23535174
p5825
aV36013469
p5826
aV36003002
p5827
aV26361671
p5828
aV12196101
p5829
aV34508166
p5830
aV1219314
p5831
aV71486
p5832
aV34205013
p5833
asV78.184.29.111
p5834
(lp5835
V26561933
p5836
asVBulwersator
p5837
(lp5838
V628467
p5839
aV11093898
p5840
aV1013233
p5841
aV7239234
p5842
aV34369266
p5843
aV2489669
p5844
aV17339732
p5845
aV10821103
p5846
aV238377
p5847
aV4430
p5848
aV4862018
p5849
aV13168320
p5850
aV32544339
p5851
aV9564605
p5852
aV13383240
p5853
aV13085307
p5854
aV13246418
p5855
aV5575322
p5856
aV9318750
p5857
aV12606792
p5858
aV13352478
p5859
aV13261562
p5860
aV13041512
p5861
aV13177936
p5862
aV13010177
p5863
aV414227
p5864
aV12787737
p5865
aV12609381
p5866
aV12297779
p5867
aV2580562
p5868
aV13277356
p5869
aV13009581
p5870
aV10492985
p5871
aV1263376
p5872
aV12387741
p5873
aV9285187
p5874
aV10513444
p5875
aV13201656
p5876
aV13272667
p5877
aV13227166
p5878
aV6369354
p5879
aV12749165
p5880
aV12008115
p5881
aV21033151
p5882
aV5711508
p5883
aV13269001
p5884
aV11928629
p5885
aV1975823
p5886
aV10907357
p5887
asVC3F2k
p5888
(lp5889
V27815578
p5890
aV697990
p5891
aV6501490
p5892
aV30035
p5893
aV20739
p5894
aV376979
p5895
aV1073552
p5896
aV27891342
p5897
aV6270795
p5898
aV798088
p5899
aV142142
p5900
aV66732
p5901
aV15822958
p5902
aV35913787
p5903
aV33408497
p5904
aV31655090
p5905
aV26636759
p5906
aV30733570
p5907
aV8735708
p5908
aV4827841
p5909
aV356955
p5910
aV526868
p5911
aV24180980
p5912
aV17723767
p5913
aV1160556
p5914
aV3050793
p5915
aV3277428
p5916
aV1890023
p5917
aV35782617
p5918
aV34182295
p5919
aV27721863
p5920
aV24668807
p5921
aV31632993
p5922
aV950274
p5923
aV25256261
p5924
aV25992413
p5925
aV30863900
p5926
asVMusdan77
p5927
(lp5928
V31015127
p5929
aV4969
p5930
aV225482
p5931
aV15967
p5932
aV93560
p5933
aV101732
p5934
aV19084452
p5935
aV1371710
p5936
aV1546571
p5937
aV9614472
p5938
aV2452248
p5939
aV226675
p5940
aV3253211
p5941
aV191890
p5942
aV384518
p5943
aV13789924
p5944
aV5476946
p5945
aV25277388
p5946
aV149561
p5947
aV1822048
p5948
aV392621
p5949
aV26349729
p5950
aV424122
p5951
aV31509
p5952
aV291049
p5953
aV2800767
p5954
aV1640050
p5955
aV1845373
p5956
aV690865
p5957
aV414848
p5958
aV12426
p5959
aV169722
p5960
aV488793
p5961
aV13736167
p5962
aV168876
p5963
aV21031276
p5964
asV14.194.15.243
p5965
(lp5966
V31726654
p5967
asVDgloclou
p5968
(lp5969
sVKeithbob
p5970
(lp5971
V58848
p5972
aV27124929
p5973
aV28677895
p5974
aV336500
p5975
aV113926
p5976
aV176796
p5977
aV22860589
p5978
aV3496553
p5979
aV30653048
p5980
asVIllaZilla
p5981
(lp5982
V35771744
p5983
aV36037886
p5984
aV4959466
p5985
aV6245494
p5986
aV5996626
p5987
aV2408918
p5988
aV288704
p5989
aV612467
p5990
aV34344124
p5991
aV363450
p5992
aV901421
p5993
aV21728203
p5994
aV36013350
p5995
aV36003289
p5996
aV891661
p5997
aV147736
p5998
aV20422487
p5999
aV34279305
p6000
aV3898419
p6001
aV23487440
p6002
aV2158497
p6003
aV4497089
p6004
aV1136526
p6005
aV428726
p6006
aV7650157
p6007
aV17818611
p6008
aV997327
p6009
aV8242057
p6010
aV280465
p6011
aV1545347
p6012
aV31775043
p6013
aV34217880
p6014
aV169425
p6015
aV709419
p6016
aV21487247
p6017
aV100627
p6018
aV151734
p6019
asV78.133.8.72
p6020
(lp6021
V18844727
p6022
asVKnowledgekid87
p6023
(lp6024
V36037488
p6025
aV23532305
p6026
aV30839881
p6027
aV30655949
p6028
aV51679
p6029
aV34957028
p6030
aV15785437
p6031
aV20329140
p6032
aV36011543
p6033
aV403699
p6034
aV285203
p6035
asV24.184.250.163
p6036
(lp6037
V2271685
p6038
aV30755774
p6039
aV9274504
p6040
asV199.106.103.58
p6041
(lp6042
V18181159
p6043
aV2095405
p6044
aV6437
p6045
aV1754956
p6046
aV1027466
p6047
aV33029579
p6048
aV664022
p6049
aV470969
p6050
aV2681055
p6051
aV1966238
p6052
aV2096307
p6053
aV1841039
p6054
aV501829
p6055
aV24407835
p6056
aV1475866
p6057
aV20016429
p6058
asVTedderBot
p6059
(lp6060
V36023996
p6061
aV3779241
p6062
aV1837994
p6063
aV35946063
p6064
aV5969701
p6065
aV35986458
p6066
aV5703020
p6067
aV34211932
p6068
aV35959189
p6069
aV32181855
p6070
aV153061
p6071
aV34946937
p6072
aV5230859
p6073
aV20490327
p6074
aV35933355
p6075
aV645268
p6076
aV35907691
p6077
aV35893912
p6078
aV35910790
p6079
aV35892911
p6080
aV10981989
p6081
aV35820624
p6082
aV35877458
p6083
aV34236034
p6084
aV2126650
p6085
aV35805346
p6086
aV35363462
p6087
aV35847312
p6088
aV30599084
p6089
aV35046700
p6090
aV1096328
p6091
aV10853062
p6092
aV35666325
p6093
aV21400147
p6094
aV22872278
p6095
aV35751103
p6096
aV23290197
p6097
aV19065069
p6098
aV17281935
p6099
aV31044243
p6100
aV34388293
p6101
aV35680045
p6102
aV32005855
p6103
aV31842021
p6104
aV25303929
p6105
aV21738849
p6106
aV973198
p6107
aV35665118
p6108
aV35643540
p6109
as.