(lp0
S'[{"show_all_inline_media":false,"id":399869740,"profile_use_background_image":true,"profile_text_color":"333333","profile_background_image_url_https":"https:\\/\\/si0.twimg.com\\/images\\/themes\\/theme1\\/bg.png","following":null,"listed_count":0,"utc_offset":28800,"verified":false,"name":"E","id_str":"399869740","profile_image_url_https":"https:\\/\\/si0.twimg.com\\/sticky\\/default_profile_images\\/default_profile_4_normal.png","profile_sidebar_border_color":"C0DEED","is_translator":false,"protected":true,"follow_request_sent":null,"url":null,"created_at":"Fri Oct 28 05:02:32 +0000 2011","profile_image_url":"http:\\/\\/a0.twimg.com\\/sticky\\/default_profile_images\\/default_profile_4_normal.png","profile_background_tile":false,"default_profile_image":true,"followers_count":0,"profile_sidebar_fill_color":"DDEEF6","favourites_count":0,"description":null,"statuses_count":0,"friends_count":16,"screen_name":"ericserge","location":null,"profile_background_color":"C0DEED","lang":"en","contributors_enabled":false,"geo_enabled":false,"profile_background_image_url":"http:\\/\\/a0.twimg.com\\/images\\/themes\\/theme1\\/bg.png","notifications":null,"default_profile":true,"profile_link_color":"0084B4","time_zone":"Singapore"},{"show_all_inline_media":false,"id":20456425,"profile_use_background_image":true,"profile_text_color":"333333","profile_background_image_url_https":"https:\\/\\/si0.twimg.com\\/images\\/themes\\/theme1\\/bg.png","following":null,"listed_count":0,"utc_offset":null,"verified":false,"name":"Darshita Umradia","id_str":"20456425","profile_image_url_https":"https:\\/\\/si0.twimg.com\\/sticky\\/default_profile_images\\/default_profile_3_normal.png","profile_sidebar_border_color":"C0DEED","is_translator":false,"protected":false,"follow_request_sent":null,"url":null,"created_at":"Mon Feb 09 18:53:55 +0000 2009","profile_image_url":"http:\\/\\/a0.twimg.com\\/sticky\\/default_profile_images\\/default_profile_3_normal.png","profile_background_tile":false,"default_profile_image":true,"followers_count":4,"profile_sidebar_fill_color":"DDEEF6","favourites_count":0,"description":null,"statuses_count":0,"friends_count":1,"screen_name":"fruitmonkey","location":null,"profile_background_color":"C0DEED","lang":"en","contributors_enabled":false,"geo_enabled":false,"profile_background_image_url":"http:\\/\\/a0.twimg.com\\/images\\/themes\\/theme1\\/bg.png","notifications":null,"default_profile":true,"profile_link_color":"0084B4","time_zone":null},{"show_all_inline_media":false,"id":28992853,"profile_use_background_image":true,"profile_text_color":"333333","profile_background_image_url_https":"https:\\/\\/si0.twimg.com\\/images\\/themes\\/theme1\\/bg.png","following":null,"listed_count":0,"utc_offset":null,"verified":false,"name":"DARWIN","id_str":"28992853","profile_image_url_https":"https:\\/\\/si0.twimg.com\\/sticky\\/default_profile_images\\/default_profile_1_normal.png","profile_sidebar_border_color":"C0DEED","is_translator":false,"protected":false,"follow_request_sent":null,"url":null,"created_at":"Sun Apr 05 14:12:42 +0000 2009","profile_image_url":"http:\\/\\/a0.twimg.com\\/sticky\\/default_profile_images\\/default_profile_1_normal.png","profile_background_tile":false,"default_profile_image":true,"followers_count":0,"profile_sidebar_fill_color":"DDEEF6","favourites_count":0,"description":null,"statuses_count":1,"friends_count":1,"screen_name":"katmaan","location":null,"profile_background_color":"C0DEED","lang":"en","contributors_enabled":false,"geo_enabled":false,"status":{"in_reply_to_screen_name":null,"in_reply_to_user_id":null,"truncated":false,"contributors":null,"retweeted":false,"possibly_sensitive":false,"coordinates":null,"geo":null,"retweet_count":0,"in_reply_to_status_id_str":null,"in_reply_to_user_id_str":null,"favorited":false,"source":"\\u003Ca href=\\"http:\\/\\/hypeitapp.com\\" rel=\\"nofollow\\"\\u003EHypeIt\\u003C\\/a\\u003E","created_at":"Tue Dec 14 19:20:39 +0000 2010","id_str":"14761703895998464","place":null,"in_reply_to_status_id":null,"id":14761703895998464,"text":"Check out the @dwell Holiday Giveaway. Today\'s prize is a Lind Cocktail Ottoman from @roomandboard. I just entered http:\\/\\/bit.ly\\/i3AauW!"},"profile_background_image_url":"http:\\/\\/a0.twimg.com\\/images\\/themes\\/theme1\\/bg.png","notifications":null,"default_profile":true,"profile_link_color":"0084B4","time_zone":null},{"show_all_inline_media":false,"id":576670818,"profile_use_background_image":true,"profile_text_color":"3E4415","profile_background_image_url_https":"https:\\/\\/si0.twimg.com\\/images\\/themes\\/theme5\\/bg.gif","following":null,"listed_count":0,"utc_offset":-18000,"verified":false,"name":"Jake Hall","id_str":"576670818","profile_image_url_https":"https:\\/\\/si0.twimg.com\\/profile_images\\/2207939558\\/6493_794093902348_5705578_45558367_4172496_n_normal.jpg","profile_sidebar_border_color":"829D5E","is_translator":false,"protected":false,"follow_request_sent":null,"url":null,"created_at":"Thu May 10 21:31:19 +0000 2012","profile_image_url":"http:\\/\\/a0.twimg.com\\/profile_images\\/2207939558\\/6493_794093902348_5705578_45558367_4172496_n_normal.jpg","profile_background_tile":false,"default_profile_image":false,"followers_count":5,"profile_sidebar_fill_color":"99CC33","favourites_count":0,"description":"I went to the woods because I wished to live deliberately, to front only the essential facts of life..and not, when I came to die, discover that I had not lived","statuses_count":0,"friends_count":16,"screen_name":"Ammodramus","location":"Washington, DC","profile_background_color":"352726","lang":"en","contributors_enabled":false,"geo_enabled":false,"profile_background_image_url":"http:\\/\\/a0.twimg.com\\/images\\/themes\\/theme5\\/bg.gif","notifications":null,"default_profile":false,"profile_link_color":"D02B55","time_zone":"Eastern Time (US & Canada)"},{"show_all_inline_media":false,"id":149057129,"profile_use_background_image":true,"profile_text_color":"333333","profile_background_image_url_https":"https:\\/\\/si0.twimg.com\\/images\\/themes\\/theme1\\/bg.png","following":null,"listed_count":0,"utc_offset":null,"verified":false,"name":"Earth","id_str":"149057129","profile_image_url_https":"https:\\/\\/si0.twimg.com\\/sticky\\/default_profile_images\\/default_profile_4_normal.png","profile_sidebar_border_color":"C0DEED","is_translator":false,"protected":false,"follow_request_sent":null,"url":null,"created_at":"Fri May 28 08:58:35 +0000 2010","profile_image_url":"http:\\/\\/a0.twimg.com\\/sticky\\/default_profile_images\\/default_profile_4_normal.png","profile_background_tile":false,"default_profile_image":true,"followers_count":2,"profile_sidebar_fill_color":"DDEEF6","favourites_count":0,"description":null,"statuses_count":0,"friends_count":7,"screen_name":"openfuture","location":null,"profile_background_color":"C0DEED","lang":"en","contributors_enabled":false,"geo_enabled":false,"profile_background_image_url":"http:\\/\\/a0.twimg.com\\/images\\/themes\\/theme1\\/bg.png","notifications":null,"default_profile":true,"profile_link_color":"0084B4","time_zone":null},{"show_all_inline_media":false,"id":16050841,"profile_use_background_image":true,"profile_text_color":"333333","profile_background_image_url_https":"https:\\/\\/si0.twimg.com\\/images\\/themes\\/theme1\\/bg.png","following":null,"listed_count":0,"utc_offset":null,"verified":false,"name":"Phil","id_str":"16050841","profile_image_url_https":"https:\\/\\/si0.twimg.com\\/sticky\\/default_profile_images\\/default_profile_2_normal.png","profile_sidebar_border_color":"C0DEED","is_translator":false,"protected":false,"follow_request_sent":null,"url":null,"created_at":"Sat Aug 30 02:58:30 +0000 2008","profile_image_url":"http:\\/\\/a0.twimg.com\\/sticky\\/default_profile_images\\/default_profile_2_normal.png","profile_background_tile":false,"default_profile_image":true,"followers_count":1,"profile_sidebar_fill_color":"DDEEF6","favourites_count":0,"description":null,"statuses_count":0,"friends_count":18,"screen_name":"Phil36","location":null,"profile_background_color":"C0DEED","lang":"en","contributors_enabled":false,"geo_enabled":false,"profile_background_image_url":"http:\\/\\/a0.twimg.com\\/images\\/themes\\/theme1\\/bg.png","notifications":null,"default_profile":true,"profile_link_color":"0084B4","time_zone":null},{"show_all_inline_media":false,"id":26595540,"profile_use_background_image":true,"profile_text_color":"361957","profile_background_image_url_https":"https:\\/\\/si0.twimg.com\\/images\\/themes\\/theme10\\/bg.gif","following":null,"listed_count":0,"utc_offset":-18000,"verified":false,"name":"Casie Giese","id_str":"26595540","profile_image_url_https":"https:\\/\\/si0.twimg.com\\/sticky\\/default_profile_images\\/default_profile_6_normal.png","profile_sidebar_border_color":"8a66d9","is_translator":false,"protected":true,"follow_request_sent":null,"url":null,"created_at":"Wed Mar 25 21:23:43 +0000 2009","profile_image_url":"http:\\/\\/a0.twimg.com\\/sticky\\/default_profile_images\\/default_profile_6_normal.png","profile_background_tile":true,"default_profile_image":true,"followers_count":5,"profile_sidebar_fill_color":"a07ced","favourites_count":0,"description":"","statuses_count":20,"friends_count":31,"screen_name":"cgiese","location":"Dallas Texas","profile_background_color":"5d2d8a","lang":"en","contributors_enabled":false,"geo_enabled":false,"profile_background_image_url":"http:\\/\\/a0.twimg.com\\/images\\/themes\\/theme10\\/bg.gif","notifications":null,"default_profile":false,"profile_link_color":"FF0000","time_zone":"Eastern Time (US & Canada)"},{"show_all_inline_media":false,"id":76788886,"profile_use_background_image":true,"profile_text_color":"333333","profile_background_image_url_https":"https:\\/\\/si0.twimg.com\\/images\\/themes\\/theme1\\/bg.png","following":null,"listed_count":0,"utc_offset":null,"verified":false,"name":"Jade","id_str":"76788886","profile_image_url_https":"https:\\/\\/si0.twimg.com\\/sticky\\/default_profile_images\\/default_profile_6_normal.png","profile_sidebar_border_color":"C0DEED","is_translator":false,"protected":false,"follow_request_sent":null,"url":null,"created_at":"Wed Sep 23 23:17:02 +0000 2009","profile_image_url":"http:\\/\\/a0.twimg.com\\/sticky\\/default_profile_images\\/default_profile_6_normal.png","profile_background_tile":false,"default_profile_image":true,"followers_count":0,"profile_sidebar_fill_color":"DDEEF6","favourites_count":0,"description":null,"statuses_count":0,"friends_count":0,"screen_name":"Peridon","location":null,"profile_background_color":"C0DEED","lang":"en","contributors_enabled":false,"geo_enabled":false,"profile_background_image_url":"http:\\/\\/a0.twimg.com\\/images\\/themes\\/theme1\\/bg.png","notifications":null,"default_profile":true,"profile_link_color":"0084B4","time_zone":null},{"show_all_inline_media":false,"id":595482845,"profile_use_background_image":true,"profile_text_color":"333333","profile_background_image_url_https":"https:\\/\\/si0.twimg.com\\/images\\/themes\\/theme1\\/bg.png","following":null,"listed_count":0,"utc_offset":null,"verified":false,"name":"Arber","id_str":"595482845","profile_image_url_https":"https:\\/\\/si0.twimg.com\\/sticky\\/default_profile_images\\/default_profile_6_normal.png","profile_sidebar_border_color":"C0DEED","is_translator":false,"protected":false,"follow_request_sent":null,"url":null,"created_at":"Thu May 31 13:25:53 +0000 2012","profile_image_url":"http:\\/\\/a0.twimg.com\\/sticky\\/default_profile_images\\/default_profile_6_normal.png","profile_background_tile":false,"default_profile_image":true,"followers_count":0,"profile_sidebar_fill_color":"DDEEF6","favourites_count":0,"description":null,"statuses_count":0,"friends_count":9,"screen_name":"Arbero","location":null,"profile_background_color":"C0DEED","lang":"tr","contributors_enabled":false,"geo_enabled":false,"profile_background_image_url":"http:\\/\\/a0.twimg.com\\/images\\/themes\\/theme1\\/bg.png","notifications":null,"default_profile":true,"profile_link_color":"0084B4","time_zone":null},{"show_all_inline_media":false,"id":75874933,"profile_use_background_image":true,"profile_text_color":"333333","profile_background_image_url_https":"https:\\/\\/si0.twimg.com\\/images\\/themes\\/theme1\\/bg.png","following":null,"listed_count":0,"utc_offset":null,"verified":false,"name":"joan armitage","id_str":"75874933","profile_image_url_https":"https:\\/\\/si0.twimg.com\\/sticky\\/default_profile_images\\/default_profile_1_normal.png","profile_sidebar_border_color":"C0DEED","is_translator":false,"protected":false,"follow_request_sent":null,"url":null,"created_at":"Sun Sep 20 21:03:28 +0000 2009","profile_image_url":"http:\\/\\/a0.twimg.com\\/sticky\\/default_profile_images\\/default_profile_1_normal.png","profile_background_tile":false,"default_profile_image":true,"followers_count":0,"profile_sidebar_fill_color":"DDEEF6","favourites_count":0,"description":null,"statuses_count":0,"friends_count":1,"screen_name":"melcombe","location":null,"profile_background_color":"C0DEED","lang":"en","contributors_enabled":false,"geo_enabled":false,"profile_background_image_url":"http:\\/\\/a0.twimg.com\\/images\\/themes\\/theme1\\/bg.png","notifications":null,"default_profile":true,"profile_link_color":"0084B4","time_zone":null},{"show_all_inline_media":false,"id":15209852,"profile_use_background_image":true,"profile_text_color":"F3E5B8","profile_background_image_url_https":"https:\\/\\/si0.twimg.com\\/profile_background_images\\/401800909\\/xe0d82a19dad2b61b18f981a2e2b91b6.png","following":null,"listed_count":0,"utc_offset":-21600,"verified":false,"name":"Mari Jane","id_str":"15209852","profile_image_url_https":"https:\\/\\/si0.twimg.com\\/profile_images\\/1757319405\\/l_3ddc0b3dfba14ba2af0a373396e6740c_2_normal.jpg","profile_sidebar_border_color":"53AB8D","is_translator":false,"protected":true,"follow_request_sent":null,"url":null,"created_at":"Mon Jun 23 18:13:45 +0000 2008","profile_image_url":"http:\\/\\/a0.twimg.com\\/profile_images\\/1757319405\\/l_3ddc0b3dfba14ba2af0a373396e6740c_2_normal.jpg","profile_background_tile":true,"default_profile_image":false,"followers_count":22,"profile_sidebar_fill_color":"291C0D","favourites_count":0,"description":"The more peculiar, the more fascinating.","statuses_count":3,"friends_count":14,"screen_name":"bpositive","location":"","profile_background_color":"F3E5B8","lang":"en","contributors_enabled":false,"geo_enabled":false,"profile_background_image_url":"http:\\/\\/a0.twimg.com\\/profile_background_images\\/401800909\\/xe0d82a19dad2b61b18f981a2e2b91b6.png","notifications":null,"default_profile":false,"profile_link_color":"53AB8D","time_zone":"Central Time (US & Canada)"},{"show_all_inline_media":false,"id":16250987,"profile_use_background_image":true,"profile_text_color":"333333","profile_background_image_url_https":"https:\\/\\/si0.twimg.com\\/images\\/themes\\/theme1\\/bg.png","following":null,"listed_count":0,"utc_offset":-21600,"verified":false,"name":"Torchiest","id_str":"16250987","profile_image_url_https":"https:\\/\\/si0.twimg.com\\/profile_images\\/59875080\\/Cruise_2006_032_normal.JPG","profile_sidebar_border_color":"C0DEED","is_translator":false,"protected":false,"follow_request_sent":null,"url":"http:\\/\\/superpol.blogspot.com","created_at":"Fri Sep 12 01:29:06 +0000 2008","profile_image_url":"http:\\/\\/a0.twimg.com\\/profile_images\\/59875080\\/Cruise_2006_032_normal.JPG","profile_background_tile":false,"default_profile_image":false,"followers_count":12,"profile_sidebar_fill_color":"DDEEF6","favourites_count":0,"description":"Programmer, poet, father, nerd, undercover normal person.","statuses_count":151,"friends_count":35,"screen_name":"Torchiest","location":"Houston, TX","profile_background_color":"C0DEED","lang":"en","contributors_enabled":false,"geo_enabled":false,"status":{"in_reply_to_screen_name":"jacobtwop","in_reply_to_user_id":2988601,"truncated":false,"contributors":null,"retweeted":false,"coordinates":null,"geo":null,"retweet_count":0,"in_reply_to_status_id_str":"206358498211135489","in_reply_to_user_id_str":"2988601","favorited":false,"source":"web","created_at":"Sat May 26 14:35:41 +0000 2012","id_str":"206393171083669504","place":null,"in_reply_to_status_id":206358498211135489,"id":206393171083669504,"text":"@jacobtwop I didn\'t know collect calls even existed anymore."},"profile_background_image_url":"http:\\/\\/a0.twimg.com\\/images\\/themes\\/theme1\\/bg.png","notifications":null,"default_profile":true,"profile_link_color":"0084B4","time_zone":"Central Time (US & Canada)"},{"show_all_inline_media":false,"id":240963775,"profile_use_background_image":true,"profile_text_color":"333333","profile_background_image_url_https":"https:\\/\\/si0.twimg.com\\/images\\/themes\\/theme1\\/bg.png","following":null,"listed_count":0,"utc_offset":null,"verified":false,"name":"\\uae40\\uae30\\uc131","id_str":"240963775","profile_image_url_https":"https:\\/\\/si0.twimg.com\\/sticky\\/default_profile_images\\/default_profile_3_normal.png","profile_sidebar_border_color":"C0DEED","is_translator":false,"protected":false,"follow_request_sent":null,"url":null,"created_at":"Fri Jan 21 03:59:23 +0000 2011","profile_image_url":"http:\\/\\/a0.twimg.com\\/sticky\\/default_profile_images\\/default_profile_3_normal.png","profile_background_tile":false,"default_profile_image":true,"followers_count":1,"profile_sidebar_fill_color":"DDEEF6","favourites_count":0,"description":null,"statuses_count":0,"friends_count":1,"screen_name":"vertium","location":null,"profile_background_color":"C0DEED","lang":"ko","contributors_enabled":false,"geo_enabled":false,"profile_background_image_url":"http:\\/\\/a0.twimg.com\\/images\\/themes\\/theme1\\/bg.png","notifications":null,"default_profile":true,"profile_link_color":"0084B4","time_zone":null},{"show_all_inline_media":false,"id":22328358,"profile_use_background_image":true,"profile_text_color":"333333","profile_background_image_url_https":"https:\\/\\/si0.twimg.com\\/images\\/themes\\/theme1\\/bg.png","following":null,"listed_count":0,"utc_offset":null,"verified":false,"name":"Mark Reeder","id_str":"22328358","profile_image_url_https":"https:\\/\\/si0.twimg.com\\/sticky\\/default_profile_images\\/default_profile_3_normal.png","profile_sidebar_border_color":"C0DEED","is_translator":false,"protected":false,"follow_request_sent":null,"url":null,"created_at":"Sun Mar 01 03:41:26 +0000 2009","profile_image_url":"http:\\/\\/a0.twimg.com\\/sticky\\/default_profile_images\\/default_profile_3_normal.png","profile_background_tile":false,"default_profile_image":true,"followers_count":2,"profile_sidebar_fill_color":"DDEEF6","favourites_count":0,"description":null,"statuses_count":0,"friends_count":2,"screen_name":"Quidam65","location":null,"profile_background_color":"C0DEED","lang":"en","contributors_enabled":false,"geo_enabled":false,"profile_background_image_url":"http:\\/\\/a0.twimg.com\\/images\\/themes\\/theme1\\/bg.png","notifications":null,"default_profile":true,"profile_link_color":"0084B4","time_zone":null},{"show_all_inline_media":false,"id":148092632,"profile_use_background_image":true,"profile_text_color":"333333","profile_background_image_url_https":"https:\\/\\/si0.twimg.com\\/images\\/themes\\/theme1\\/bg.png","following":null,"listed_count":8,"utc_offset":null,"verified":false,"name":"Doug Walker","id_str":"148092632","profile_image_url_https":"https:\\/\\/si0.twimg.com\\/sticky\\/default_profile_images\\/default_profile_2_normal.png","profile_sidebar_border_color":"C0DEED","is_translator":false,"protected":false,"follow_request_sent":null,"url":null,"created_at":"Tue May 25 20:37:41 +0000 2010","profile_image_url":"http:\\/\\/a0.twimg.com\\/sticky\\/default_profile_images\\/default_profile_2_normal.png","profile_background_tile":false,"default_profile_image":true,"followers_count":1488,"profile_sidebar_fill_color":"DDEEF6","favourites_count":0,"description":null,"statuses_count":0,"friends_count":1,"screen_name":"NostalgiaCritic","location":null,"profile_background_color":"C0DEED","lang":"en","contributors_enabled":false,"geo_enabled":false,"profile_background_image_url":"http:\\/\\/a0.twimg.com\\/images\\/themes\\/theme1\\/bg.png","notifications":null,"default_profile":true,"profile_link_color":"0084B4","time_zone":null},{"show_all_inline_media":false,"id":61059010,"profile_use_background_image":true,"profile_text_color":"333333","profile_background_image_url_https":"https:\\/\\/si0.twimg.com\\/images\\/themes\\/theme1\\/bg.png","following":null,"listed_count":0,"utc_offset":null,"verified":false,"name":"carlos suarez","id_str":"61059010","profile_image_url_https":"https:\\/\\/si0.twimg.com\\/sticky\\/default_profile_images\\/default_profile_5_normal.png","profile_sidebar_border_color":"C0DEED","is_translator":false,"protected":false,"follow_request_sent":null,"url":null,"created_at":"Wed Jul 29 00:01:04 +0000 2009","profile_image_url":"http:\\/\\/a0.twimg.com\\/sticky\\/default_profile_images\\/default_profile_5_normal.png","profile_background_tile":false,"default_profile_image":true,"followers_count":3,"profile_sidebar_fill_color":"DDEEF6","favourites_count":0,"description":null,"statuses_count":0,"friends_count":20,"screen_name":"carlossuarez46","location":null,"profile_background_color":"C0DEED","lang":"en","contributors_enabled":false,"geo_enabled":false,"profile_background_image_url":"http:\\/\\/a0.twimg.com\\/images\\/themes\\/theme1\\/bg.png","notifications":null,"default_profile":true,"profile_link_color":"0084B4","time_zone":null},{"show_all_inline_media":false,"id":89948658,"profile_use_background_image":true,"profile_text_color":"333333","profile_background_image_url_https":"https:\\/\\/si0.twimg.com\\/images\\/themes\\/theme1\\/bg.png","following":null,"listed_count":0,"utc_offset":-21600,"verified":false,"name":"Kudzu Vine Radio","id_str":"89948658","profile_image_url_https":"https:\\/\\/si0.twimg.com\\/profile_images\\/526280967\\/kudzu_normal.jpg","profile_sidebar_border_color":"C0DEED","is_translator":false,"protected":false,"follow_request_sent":null,"url":"http:\\/\\/www.blogtalkradio.com\\/kudzu","created_at":"Sat Nov 14 14:43:11 +0000 2009","profile_image_url":"http:\\/\\/a0.twimg.com\\/profile_images\\/526280967\\/kudzu_normal.jpg","profile_background_tile":false,"default_profile_image":false,"followers_count":29,"profile_sidebar_fill_color":"DDEEF6","favourites_count":0,"description":"We cover Georgia & Southern Politics like Kudzu! ","statuses_count":83,"friends_count":4,"screen_name":"kudzuvine","location":"","profile_background_color":"C0DEED","lang":"en","contributors_enabled":false,"geo_enabled":false,"status":{"in_reply_to_screen_name":null,"in_reply_to_user_id":null,"truncated":false,"contributors":null,"retweeted":false,"possibly_sensitive":false,"coordinates":null,"geo":null,"retweet_count":0,"in_reply_to_status_id_str":null,"in_reply_to_user_id_str":null,"favorited":false,"source":"\\u003Ca href=\\"http:\\/\\/www.blogtalkradio.com\\" rel=\\"nofollow\\"\\u003EBlogTalkRadio\\u003C\\/a\\u003E","created_at":"Sun Jun 03 22:59:05 +0000 2012","id_str":"209418961039785984","place":null,"in_reply_to_status_id":null,"id":209418961039785984,"text":"Come listen to Kudzu Vine on Southern Politics on air now! http:\\/\\/t.co\\/F6z02QOv #BlogTalkRadio"},"profile_background_image_url":"http:\\/\\/a0.twimg.com\\/images\\/themes\\/theme1\\/bg.png","notifications":null,"default_profile":true,"profile_link_color":"0084B4","time_zone":"Central Time (US & Canada)"},{"show_all_inline_media":false,"id":405275277,"profile_use_background_image":true,"profile_text_color":"333333","profile_background_image_url_https":"https:\\/\\/si0.twimg.com\\/profile_background_images\\/359175831\\/Mac_OS_X_Tiger_Widescreen_Background.jpg","following":false,"listed_count":0,"utc_offset":null,"verified":false,"name":"Thomas Hanson","id_str":"405275277","profile_image_url_https":"https:\\/\\/si0.twimg.com\\/profile_images\\/1623065162\\/Computer-room_normal.jpg","profile_sidebar_border_color":"C0DEED","is_translator":false,"protected":false,"follow_request_sent":false,"url":"http:\\/\\/thelinuxgroup.net","created_at":"Sat Nov 05 02:55:24 +0000 2011","profile_image_url":"http:\\/\\/a0.twimg.com\\/profile_images\\/1623065162\\/Computer-room_normal.jpg","profile_background_tile":false,"default_profile_image":false,"followers_count":3,"profile_sidebar_fill_color":"DDEEF6","favourites_count":0,"description":"I love computers lol!","statuses_count":4,"friends_count":4,"screen_name":"elderscrolls6","location":"Janesville,  WI","profile_background_color":"C0DEED","lang":"en","contributors_enabled":false,"geo_enabled":false,"status":{"in_reply_to_screen_name":null,"in_reply_to_user_id":null,"truncated":false,"contributors":null,"retweeted":false,"possibly_sensitive":false,"coordinates":null,"geo":null,"retweet_count":0,"in_reply_to_status_id_str":null,"in_reply_to_user_id_str":null,"favorited":false,"source":"\\u003Ca href=\\"http:\\/\\/twitter.com\\/tweetbutton\\" rel=\\"nofollow\\"\\u003ETweet Button\\u003C\\/a\\u003E","created_at":"Thu Nov 17 01:54:58 +0000 2011","id_str":"136985648337911808","place":null,"in_reply_to_status_id":null,"id":136985648337911808,"text":"My favorite sites could get shut down by 1st censorship system for the internet. Must stop it: 11\\/16 #usacensored http:\\/\\/t.co\\/twD9PQvN"},"profile_background_image_url":"http:\\/\\/a0.twimg.com\\/profile_background_images\\/359175831\\/Mac_OS_X_Tiger_Widescreen_Background.jpg","notifications":false,"default_profile":false,"profile_link_color":"0084B4","time_zone":null},{"show_all_inline_media":false,"id":42576289,"profile_use_background_image":true,"profile_text_color":"3E4415","profile_background_image_url_https":"https:\\/\\/si0.twimg.com\\/images\\/themes\\/theme5\\/bg.gif","following":null,"listed_count":0,"utc_offset":-36000,"verified":false,"name":"\\u4f50\\u3005\\u6728\\u5cb3\\u53f2","id_str":"42576289","profile_image_url_https":"https:\\/\\/si0.twimg.com\\/profile_images\\/1556086332\\/DSCF0087-3_normal.jpg","profile_sidebar_border_color":"829D5E","is_translator":false,"protected":false,"follow_request_sent":null,"url":null,"created_at":"Tue May 26 06:10:21 +0000 2009","profile_image_url":"http:\\/\\/a0.twimg.com\\/profile_images\\/1556086332\\/DSCF0087-3_normal.jpg","profile_background_tile":false,"default_profile_image":false,"followers_count":21,"profile_sidebar_fill_color":"99CC33","favourites_count":1,"description":"","statuses_count":66,"friends_count":32,"screen_name":"sasata","location":"","profile_background_color":"352726","lang":"ja","contributors_enabled":false,"geo_enabled":false,"status":{"in_reply_to_screen_name":null,"in_reply_to_user_id":null,"truncated":false,"contributors":null,"retweeted":false,"possibly_sensitive":false,"coordinates":null,"geo":null,"retweet_count":0,"in_reply_to_status_id_str":null,"in_reply_to_user_id_str":null,"favorited":false,"source":"\\u003Ca href=\\"http:\\/\\/www.apple.com\\" rel=\\"nofollow\\"\\u003ECamera on iOS\\u003C\\/a\\u003E","created_at":"Sat Apr 07 13:26:33 +0000 2012","id_str":"188618766467346432","place":null,"in_reply_to_status_id":null,"id":188618766467346432,"text":"\\u3053\\u308c\\u306a\\u3093\\u3060\\uff1f http:\\/\\/t.co\\/KuBT1qM0"},"profile_background_image_url":"http:\\/\\/a0.twimg.com\\/images\\/themes\\/theme5\\/bg.gif","notifications":null,"default_profile":false,"profile_link_color":"D02B55","time_zone":"Hawaii"},{"show_all_inline_media":false,"id":401071098,"profile_use_background_image":true,"profile_text_color":"333333","profile_background_image_url_https":"https:\\/\\/si0.twimg.com\\/images\\/themes\\/theme1\\/bg.png","following":false,"listed_count":1,"utc_offset":null,"verified":false,"name":"\\uc774\\uc138\\uc601","id_str":"401071098","profile_image_url_https":"https:\\/\\/si0.twimg.com\\/profile_images\\/1896319323\\/FL7jhEAs_normal","profile_sidebar_border_color":"C0DEED","is_translator":false,"protected":false,"follow_request_sent":false,"url":null,"created_at":"Sun Oct 30 00:46:45 +0000 2011","profile_image_url":"http:\\/\\/a0.twimg.com\\/profile_images\\/1896319323\\/FL7jhEAs_normal","profile_background_tile":false,"default_profile_image":false,"followers_count":332,"profile_sidebar_fill_color":"DDEEF6","favourites_count":0,"description":"","statuses_count":208,"friends_count":378,"screen_name":"sylee1209","location":"","profile_background_color":"C0DEED","lang":"ko","contributors_enabled":false,"geo_enabled":false,"status":{"retweeted_status":{"in_reply_to_screen_name":null,"in_reply_to_user_id":null,"truncated":false,"contributors":null,"retweeted":false,"coordinates":null,"geo":null,"retweet_count":8,"in_reply_to_status_id_str":null,"in_reply_to_user_id_str":null,"favorited":false,"source":"web","created_at":"Wed Apr 11 18:22:56 +0000 2012","id_str":"190142908387696640","place":null,"in_reply_to_status_id":null,"id":190142908387696640,"text":"\\u25cf \\ud558\\ub8e8\\ud558\\ub8e8\\uc758 \\uc0b6\\uc758 \\uc5ec\\uc815\\uc5d0\\uc11c \\ub3cc\\uc544\\uc624\\uba74 \\ub0b4 \\ud55c \\ubab8 \\uc274 \\uc218 \\uc788\\ub294 \\ub098\\ub9cc\\uc758 \\uacf5\\uac04\\uc774 \\uc788\\ub2e4\\ub294 \\uac83\\uc744.. \\ub0a0 \\ubc18\\uaca8\\uc8fc\\ub294 \\uc18c\\uc911\\ud55c \\uc774\\ub4e4\\uc774 \\uae30\\ub2e4\\ub9b0\\ub2e4\\ub294 \\uac83\\uc744 \\uc0dd\\uac01\\ud569\\ub2c8\\ub2e4. - \\uc88b\\uc740\\uae00 \\uc911"},"in_reply_to_screen_name":null,"in_reply_to_user_id":null,"truncated":false,"contributors":null,"retweeted":false,"coordinates":null,"geo":null,"retweet_count":8,"in_reply_to_status_id_str":null,"in_reply_to_user_id_str":null,"favorited":false,"source":"\\u003Ca href=\\"http:\\/\\/twitter.com\\/download\\/android\\" rel=\\"nofollow\\"\\u003ETwitter for Android\\u003C\\/a\\u003E","created_at":"Wed Apr 11 20:52:45 +0000 2012","id_str":"190180611682611200","place":null,"in_reply_to_status_id":null,"id":190180611682611200,"text":"RT @soohjc: \\u25cf \\ud558\\ub8e8\\ud558\\ub8e8\\uc758 \\uc0b6\\uc758 \\uc5ec\\uc815\\uc5d0\\uc11c \\ub3cc\\uc544\\uc624\\uba74 \\ub0b4 \\ud55c \\ubab8 \\uc274 \\uc218 \\uc788\\ub294 \\ub098\\ub9cc\\uc758 \\uacf5\\uac04\\uc774 \\uc788\\ub2e4\\ub294 \\uac83\\uc744.. \\ub0a0 \\ubc18\\uaca8\\uc8fc\\ub294 \\uc18c\\uc911\\ud55c \\uc774\\ub4e4\\uc774 \\uae30\\ub2e4\\ub9b0\\ub2e4\\ub294 \\uac83\\uc744 \\uc0dd\\uac01\\ud569\\ub2c8\\ub2e4. - \\uc88b\\uc740\\uae00 \\uc911"},"profile_background_image_url":"http:\\/\\/a0.twimg.com\\/images\\/themes\\/theme1\\/bg.png","notifications":false,"default_profile":true,"profile_link_color":"0084B4","time_zone":null},{"show_all_inline_media":false,"id":152409557,"profile_use_background_image":true,"profile_text_color":"333333","profile_background_image_url_https":"https:\\/\\/si0.twimg.com\\/images\\/themes\\/theme1\\/bg.png","following":null,"listed_count":0,"utc_offset":null,"verified":false,"name":"dennis mac","id_str":"152409557","profile_image_url_https":"https:\\/\\/si0.twimg.com\\/sticky\\/default_profile_images\\/default_profile_6_normal.png","profile_sidebar_border_color":"C0DEED","is_translator":false,"protected":false,"follow_request_sent":null,"url":null,"created_at":"Sat Jun 05 22:12:27 +0000 2010","profile_image_url":"http:\\/\\/a0.twimg.com\\/sticky\\/default_profile_images\\/default_profile_6_normal.png","profile_background_tile":false,"default_profile_image":true,"followers_count":0,"profile_sidebar_fill_color":"DDEEF6","favourites_count":0,"description":null,"statuses_count":2,"friends_count":1,"screen_name":"dmacks","location":null,"profile_background_color":"C0DEED","lang":"en","contributors_enabled":false,"geo_enabled":false,"status":{"in_reply_to_screen_name":null,"in_reply_to_user_id":null,"truncated":false,"contributors":null,"retweeted":false,"coordinates":null,"geo":null,"retweet_count":0,"in_reply_to_status_id_str":null,"in_reply_to_user_id_str":null,"favorited":false,"source":"\\u003Ca href=\\"http:\\/\\/blackberry.com\\/twitter\\" rel=\\"nofollow\\"\\u003ETwitter for BlackBerry\\u00ae\\u003C\\/a\\u003E","created_at":"Wed Jun 23 02:59:31 +0000 2010","id_str":"16819465621","place":null,"in_reply_to_status_id":null,"id":16819465621,"text":"Noodles for lunch"},"profile_background_image_url":"http:\\/\\/a0.twimg.com\\/images\\/themes\\/theme1\\/bg.png","notifications":null,"default_profile":true,"profile_link_color":"0084B4","time_zone":null},{"show_all_inline_media":false,"id":528226977,"profile_use_background_image":true,"profile_text_color":"333333","profile_background_image_url_https":"https:\\/\\/si0.twimg.com\\/images\\/themes\\/theme1\\/bg.png","following":null,"listed_count":0,"utc_offset":null,"verified":false,"name":"John Kenneth bagumba","id_str":"528226977","profile_image_url_https":"https:\\/\\/si0.twimg.com\\/sticky\\/default_profile_images\\/default_profile_5_normal.png","profile_sidebar_border_color":"C0DEED","is_translator":false,"protected":false,"follow_request_sent":null,"url":null,"created_at":"Sun Mar 18 06:40:23 +0000 2012","profile_image_url":"http:\\/\\/a0.twimg.com\\/sticky\\/default_profile_images\\/default_profile_5_normal.png","profile_background_tile":false,"default_profile_image":true,"followers_count":0,"profile_sidebar_fill_color":"DDEEF6","favourites_count":0,"description":null,"statuses_count":0,"friends_count":11,"screen_name":"bagumba","location":null,"profile_background_color":"C0DEED","lang":"en","contributors_enabled":false,"geo_enabled":false,"profile_background_image_url":"http:\\/\\/a0.twimg.com\\/images\\/themes\\/theme1\\/bg.png","notifications":null,"default_profile":true,"profile_link_color":"0084B4","time_zone":null},{"show_all_inline_media":false,"id":19927198,"profile_use_background_image":true,"profile_text_color":"333333","profile_background_image_url_https":"https:\\/\\/si0.twimg.com\\/images\\/themes\\/theme6\\/bg.gif","following":null,"listed_count":0,"utc_offset":null,"verified":false,"name":"Bill Jahnke","id_str":"19927198","profile_image_url_https":"https:\\/\\/si0.twimg.com\\/profile_images\\/2039443383\\/image_normal.jpg","profile_sidebar_border_color":"86A4A6","is_translator":false,"protected":false,"follow_request_sent":null,"url":null,"created_at":"Mon Feb 02 20:03:34 +0000 2009","profile_image_url":"http:\\/\\/a0.twimg.com\\/profile_images\\/2039443383\\/image_normal.jpg","profile_background_tile":false,"default_profile_image":false,"followers_count":16,"profile_sidebar_fill_color":"A0C5C7","favourites_count":5,"description":null,"statuses_count":89,"friends_count":78,"screen_name":"Bjahnke","location":null,"profile_background_color":"709397","lang":"en","contributors_enabled":false,"geo_enabled":false,"status":{"in_reply_to_screen_name":"ShannonBream","in_reply_to_user_id":18983793,"truncated":false,"contributors":null,"retweeted":false,"coordinates":null,"geo":null,"retweet_count":0,"in_reply_to_status_id_str":"209664528504455168","in_reply_to_user_id_str":"18983793","favorited":false,"source":"\\u003Ca href=\\"http:\\/\\/twitter.com\\/#!\\/download\\/iphone\\" rel=\\"nofollow\\"\\u003ETwitter for iPhone\\u003C\\/a\\u003E","created_at":"Mon Jun 04 16:00:02 +0000 2012","id_str":"209675890882387968","place":null,"in_reply_to_status_id":209664528504455168,"id":209675890882387968,"text":"@ShannonBream  &amp; that is supposed to makes us feel better? Expect to see the NBP standing guard with EH fronting them!"},"profile_background_image_url":"http:\\/\\/a0.twimg.com\\/images\\/themes\\/theme6\\/bg.gif","notifications":null,"default_profile":false,"profile_link_color":"FF3300","time_zone":null},{"show_all_inline_media":false,"id":527356674,"profile_use_background_image":true,"profile_text_color":"333333","profile_background_image_url_https":"https:\\/\\/si0.twimg.com\\/images\\/themes\\/theme1\\/bg.png","following":null,"listed_count":0,"utc_offset":null,"verified":false,"name":"Mathias Sandell","id_str":"527356674","profile_image_url_https":"https:\\/\\/si0.twimg.com\\/sticky\\/default_profile_images\\/default_profile_5_normal.png","profile_sidebar_border_color":"C0DEED","is_translator":false,"protected":false,"follow_request_sent":null,"url":null,"created_at":"Sat Mar 17 11:24:08 +0000 2012","profile_image_url":"http:\\/\\/a0.twimg.com\\/sticky\\/default_profile_images\\/default_profile_5_normal.png","profile_background_tile":false,"default_profile_image":true,"followers_count":1,"profile_sidebar_fill_color":"DDEEF6","favourites_count":0,"description":null,"statuses_count":0,"friends_count":1,"screen_name":"MathiasSandell","location":null,"profile_background_color":"C0DEED","lang":"sv","contributors_enabled":false,"geo_enabled":false,"profile_background_image_url":"http:\\/\\/a0.twimg.com\\/images\\/themes\\/theme1\\/bg.png","notifications":null,"default_profile":true,"profile_link_color":"0084B4","time_zone":null},{"show_all_inline_media":false,"id":107319020,"profile_use_background_image":true,"profile_text_color":"333333","profile_background_image_url_https":"https:\\/\\/si0.twimg.com\\/images\\/themes\\/theme1\\/bg.png","following":null,"listed_count":0,"utc_offset":null,"verified":false,"name":"Jacob berry","id_str":"107319020","profile_image_url_https":"https:\\/\\/si0.twimg.com\\/sticky\\/default_profile_images\\/default_profile_4_normal.png","profile_sidebar_border_color":"C0DEED","is_translator":false,"protected":false,"follow_request_sent":null,"url":null,"created_at":"Fri Jan 22 05:16:10 +0000 2010","profile_image_url":"http:\\/\\/a0.twimg.com\\/sticky\\/default_profile_images\\/default_profile_4_normal.png","profile_background_tile":false,"default_profile_image":true,"followers_count":1,"profile_sidebar_fill_color":"DDEEF6","favourites_count":0,"description":null,"statuses_count":0,"friends_count":3,"screen_name":"SunCreator","location":null,"profile_background_color":"C0DEED","lang":"en","contributors_enabled":false,"geo_enabled":false,"profile_background_image_url":"http:\\/\\/a0.twimg.com\\/images\\/themes\\/theme1\\/bg.png","notifications":null,"default_profile":true,"profile_link_color":"0084B4","time_zone":null},{"show_all_inline_media":false,"id":57333855,"profile_use_background_image":true,"profile_text_color":"333333","profile_background_image_url_https":"https:\\/\\/si0.twimg.com\\/images\\/themes\\/theme1\\/bg.png","following":null,"listed_count":0,"utc_offset":null,"verified":false,"name":"Anders Leistad","id_str":"57333855","profile_image_url_https":"https:\\/\\/si0.twimg.com\\/sticky\\/default_profile_images\\/default_profile_5_normal.png","profile_sidebar_border_color":"C0DEED","is_translator":false,"protected":false,"follow_request_sent":null,"url":null,"created_at":"Thu Jul 16 13:28:44 +0000 2009","profile_image_url":"http:\\/\\/a0.twimg.com\\/sticky\\/default_profile_images\\/default_profile_5_normal.png","profile_background_tile":false,"default_profile_image":true,"followers_count":3,"profile_sidebar_fill_color":"DDEEF6","favourites_count":0,"description":null,"statuses_count":0,"friends_count":25,"screen_name":"aleistad","location":null,"profile_background_color":"C0DEED","lang":"en","contributors_enabled":false,"geo_enabled":false,"profile_background_image_url":"http:\\/\\/a0.twimg.com\\/images\\/themes\\/theme1\\/bg.png","notifications":null,"default_profile":true,"profile_link_color":"0084B4","time_zone":null},{"show_all_inline_media":false,"id":368186505,"profile_use_background_image":false,"profile_text_color":"3E4415","profile_background_image_url_https":"https:\\/\\/si0.twimg.com\\/profile_background_images\\/325243589\\/ppp.jpg.jpg","following":null,"listed_count":0,"utc_offset":null,"verified":false,"name":"Pawan Kumar Tiwari","id_str":"368186505","profile_image_url_https":"https:\\/\\/si0.twimg.com\\/profile_images\\/1529421208\\/ppp.jpg_normal.jpg","profile_sidebar_border_color":"829D5E","is_translator":false,"protected":false,"follow_request_sent":null,"url":null,"created_at":"Mon Sep 05 06:55:57 +0000 2011","profile_image_url":"http:\\/\\/a0.twimg.com\\/profile_images\\/1529421208\\/ppp.jpg_normal.jpg","profile_background_tile":true,"default_profile_image":false,"followers_count":0,"profile_sidebar_fill_color":"99CC33","favourites_count":0,"description":"","statuses_count":0,"friends_count":1,"screen_name":"PKT","location":"","profile_background_color":"352726","lang":"en","contributors_enabled":false,"geo_enabled":false,"profile_background_image_url":"http:\\/\\/a0.twimg.com\\/profile_background_images\\/325243589\\/ppp.jpg.jpg","notifications":null,"default_profile":false,"profile_link_color":"D02B55","time_zone":null},{"show_all_inline_media":false,"id":224414602,"profile_use_background_image":true,"profile_text_color":"333333","profile_background_image_url_https":"https:\\/\\/si0.twimg.com\\/images\\/themes\\/theme1\\/bg.png","following":null,"listed_count":0,"utc_offset":null,"verified":false,"name":"cristovao aguiar","id_str":"224414602","profile_image_url_https":"https:\\/\\/si0.twimg.com\\/profile_images\\/1187318651\\/OgAAAI5dhhGHR1MAhfnZvuM1YQkwiPRaf9xNmXH6WyGwY2wm7TVM55DvSWnTPTtD2yCFkmpmF2UNRlhR_lUFANKCfX0Am1T1UIAWWLhEIa0NJb92WTTYJXyiZ72j_normal.jpg","profile_sidebar_border_color":"C0DEED","is_translator":false,"protected":false,"follow_request_sent":null,"url":null,"created_at":"Wed Dec 08 23:20:11 +0000 2010","profile_image_url":"http:\\/\\/a0.twimg.com\\/profile_images\\/1187318651\\/OgAAAI5dhhGHR1MAhfnZvuM1YQkwiPRaf9xNmXH6WyGwY2wm7TVM55DvSWnTPTtD2yCFkmpmF2UNRlhR_lUFANKCfX0Am1T1UIAWWLhEIa0NJb92WTTYJXyiZ72j_normal.jpg","profile_background_tile":false,"default_profile_image":false,"followers_count":0,"profile_sidebar_fill_color":"DDEEF6","favourites_count":0,"description":"","statuses_count":2,"friends_count":3,"screen_name":"christofhe","location":"Brasil","profile_background_color":"C0DEED","lang":"es","contributors_enabled":false,"geo_enabled":false,"status":{"in_reply_to_screen_name":null,"in_reply_to_user_id":null,"truncated":false,"contributors":null,"retweeted":false,"coordinates":null,"geo":null,"retweet_count":0,"in_reply_to_status_id_str":null,"in_reply_to_user_id_str":null,"favorited":false,"source":"web","created_at":"Thu Dec 23 18:26:07 +0000 2010","id_str":"18009472131661824","place":null,"in_reply_to_status_id":null,"id":18009472131661824,"text":"Final de semana chegando e eu vou pra bagaceira!"},"profile_background_image_url":"http:\\/\\/a0.twimg.com\\/images\\/themes\\/theme1\\/bg.png","notifications":null,"default_profile":true,"profile_link_color":"0084B4","time_zone":null},{"show_all_inline_media":false,"id":29405487,"profile_use_background_image":true,"profile_text_color":"333333","profile_background_image_url_https":"https:\\/\\/si0.twimg.com\\/images\\/themes\\/theme1\\/bg.png","following":null,"listed_count":0,"utc_offset":null,"verified":false,"name":"Joel Braithwaite","id_str":"29405487","profile_image_url_https":"https:\\/\\/si0.twimg.com\\/sticky\\/default_profile_images\\/default_profile_6_normal.png","profile_sidebar_border_color":"C0DEED","is_translator":false,"protected":false,"follow_request_sent":null,"url":null,"created_at":"Tue Apr 07 07:28:34 +0000 2009","profile_image_url":"http:\\/\\/a0.twimg.com\\/sticky\\/default_profile_images\\/default_profile_6_normal.png","profile_background_tile":false,"default_profile_image":true,"followers_count":2,"profile_sidebar_fill_color":"DDEEF6","favourites_count":1,"description":null,"statuses_count":3,"friends_count":5,"screen_name":"jbraith","location":null,"profile_background_color":"C0DEED","lang":"en","contributors_enabled":false,"geo_enabled":false,"status":{"in_reply_to_screen_name":null,"in_reply_to_user_id":null,"truncated":false,"contributors":null,"retweeted":false,"coordinates":null,"geo":null,"retweet_count":0,"in_reply_to_status_id_str":null,"in_reply_to_user_id_str":null,"favorited":false,"source":"\\u003Ca href=\\"http:\\/\\/mobile.twitter.com\\" rel=\\"nofollow\\"\\u003EMobile Web\\u003C\\/a\\u003E","created_at":"Mon Mar 19 03:46:18 +0000 2012","id_str":"181587374243987456","place":null,"in_reply_to_status_id":null,"id":181587374243987456,"text":"Ashgrove are in a real predicament. Keep the hard working local member, or vote in the man who will bring change to the whole state? #vote9"},"profile_background_image_url":"http:\\/\\/a0.twimg.com\\/images\\/themes\\/theme1\\/bg.png","notifications":null,"default_profile":true,"profile_link_color":"0084B4","time_zone":null},{"show_all_inline_media":false,"id":287706313,"profile_use_background_image":true,"profile_text_color":"333333","profile_background_image_url_https":"https:\\/\\/si0.twimg.com\\/images\\/themes\\/theme1\\/bg.png","following":null,"listed_count":0,"utc_offset":null,"verified":false,"name":"Ridho M F","id_str":"287706313","profile_image_url_https":"https:\\/\\/si0.twimg.com\\/sticky\\/default_profile_images\\/default_profile_6_normal.png","profile_sidebar_border_color":"C0DEED","is_translator":false,"protected":false,"follow_request_sent":null,"url":null,"created_at":"Mon Apr 25 14:37:41 +0000 2011","profile_image_url":"http:\\/\\/a0.twimg.com\\/sticky\\/default_profile_images\\/default_profile_6_normal.png","profile_background_tile":false,"default_profile_image":true,"followers_count":0,"profile_sidebar_fill_color":"DDEEF6","favourites_count":0,"description":null,"statuses_count":0,"friends_count":0,"screen_name":"Muhandes","location":null,"profile_background_color":"C0DEED","lang":"en","contributors_enabled":false,"geo_enabled":false,"profile_background_image_url":"http:\\/\\/a0.twimg.com\\/images\\/themes\\/theme1\\/bg.png","notifications":null,"default_profile":true,"profile_link_color":"0084B4","time_zone":null}]'
p1
aS'[{"id_str":"40357802","id":40357802,"profile_sidebar_border_color":"C0DEED","notifications":null,"profile_background_image_url_https":"https:\\/\\/si0.twimg.com\\/images\\/themes\\/theme1\\/bg.png","listed_count":0,"contributors_enabled":false,"time_zone":null,"geo_enabled":false,"following":null,"profile_background_tile":false,"profile_image_url_https":"https:\\/\\/si0.twimg.com\\/profile_images\\/213840214\\/rj_normal.jpg","utc_offset":null,"profile_sidebar_fill_color":"DDEEF6","is_translator":false,"name":"Joe","show_all_inline_media":false,"protected":false,"default_profile_image":false,"profile_background_color":"C0DEED","favourites_count":2,"url":null,"profile_background_image_url":"http:\\/\\/a0.twimg.com\\/images\\/themes\\/theme1\\/bg.png","friends_count":11,"description":null,"profile_link_color":"0084B4","created_at":"Fri May 15 23:11:08 +0000 2009","profile_image_url":"http:\\/\\/a0.twimg.com\\/profile_images\\/213840214\\/rj_normal.jpg","followers_count":0,"follow_request_sent":null,"statuses_count":10,"lang":"en","profile_use_background_image":true,"default_profile":true,"profile_text_color":"333333","status":{"in_reply_to_status_id_str":null,"coordinates":null,"geo":null,"in_reply_to_user_id":null,"in_reply_to_user_id_str":null,"retweeted":false,"in_reply_to_screen_name":null,"created_at":"Tue Apr 24 02:43:13 +0000 2012","contributors":null,"in_reply_to_status_id":null,"favorited":false,"retweet_count":0,"truncated":false,"source":"\\u003Ca href=\\"http:\\/\\/twitter.com\\/#!\\/download\\/ipad\\" rel=\\"nofollow\\"\\u003ETwitter for iPad\\u003C\\/a\\u003E","id_str":"194617461621014528","place":null,"id":194617461621014528,"text":"hawks gotta bring it in the 3rd. #NHL"},"location":null,"screen_name":"buaidh","verified":false},{"id_str":"44803506","id":44803506,"profile_sidebar_border_color":"C0DEED","notifications":null,"profile_background_image_url_https":"https:\\/\\/si0.twimg.com\\/images\\/themes\\/theme1\\/bg.png","listed_count":0,"contributors_enabled":false,"time_zone":null,"geo_enabled":false,"following":null,"profile_background_tile":false,"profile_image_url_https":"https:\\/\\/si0.twimg.com\\/sticky\\/default_profile_images\\/default_profile_6_normal.png","utc_offset":null,"profile_sidebar_fill_color":"DDEEF6","is_translator":false,"name":"Erik Miller","show_all_inline_media":false,"protected":false,"default_profile_image":true,"profile_background_color":"C0DEED","favourites_count":0,"url":null,"profile_background_image_url":"http:\\/\\/a0.twimg.com\\/images\\/themes\\/theme1\\/bg.png","friends_count":1,"description":null,"profile_link_color":"0084B4","created_at":"Fri Jun 05 02:51:28 +0000 2009","profile_image_url":"http:\\/\\/a0.twimg.com\\/sticky\\/default_profile_images\\/default_profile_6_normal.png","followers_count":2,"follow_request_sent":null,"statuses_count":0,"lang":"en","profile_use_background_image":true,"default_profile":true,"profile_text_color":"333333","location":null,"screen_name":"SNOTBOT","verified":false},{"id_str":"6266","id":6266,"profile_sidebar_border_color":"87bc44","notifications":null,"profile_background_image_url_https":"https:\\/\\/si0.twimg.com\\/images\\/themes\\/theme1\\/bg.png","listed_count":1,"contributors_enabled":false,"time_zone":null,"geo_enabled":false,"following":null,"profile_background_tile":false,"profile_image_url_https":"https:\\/\\/si0.twimg.com\\/sticky\\/default_profile_images\\/default_profile_1_normal.png","utc_offset":null,"profile_sidebar_fill_color":"e0ff92","is_translator":false,"name":"Jhiegz Swin","show_all_inline_media":false,"protected":false,"default_profile_image":true,"profile_background_color":"9ae4e8","favourites_count":0,"url":null,"profile_background_image_url":"http:\\/\\/a0.twimg.com\\/images\\/themes\\/theme1\\/bg.png","friends_count":1,"description":null,"profile_link_color":"0000ff","created_at":"Sun Sep 17 14:02:50 +0000 2006","profile_image_url":"http:\\/\\/a0.twimg.com\\/sticky\\/default_profile_images\\/default_profile_1_normal.png","followers_count":14,"follow_request_sent":null,"statuses_count":2,"lang":"en","profile_use_background_image":true,"default_profile":false,"profile_text_color":"000000","status":{"in_reply_to_status_id_str":null,"coordinates":null,"geo":null,"in_reply_to_user_id":null,"in_reply_to_user_id_str":null,"retweeted":false,"in_reply_to_screen_name":null,"created_at":"Sat Sep 30 10:54:05 +0000 2006","contributors":null,"in_reply_to_status_id":null,"favorited":false,"retweet_count":0,"truncated":false,"source":"web","id_str":"37182","place":null,"id":37182,"text":"hello "},"location":null,"screen_name":"raphie","verified":false},{"id_str":"32078584","id":32078584,"profile_sidebar_border_color":"C0DEED","notifications":null,"profile_background_image_url_https":"https:\\/\\/si0.twimg.com\\/images\\/themes\\/theme1\\/bg.png","listed_count":3,"contributors_enabled":false,"time_zone":null,"geo_enabled":false,"following":null,"profile_background_tile":false,"profile_image_url_https":"https:\\/\\/si0.twimg.com\\/sticky\\/default_profile_images\\/default_profile_6_normal.png","utc_offset":null,"profile_sidebar_fill_color":"DDEEF6","is_translator":false,"name":"RedFlagDeals.com","show_all_inline_media":false,"protected":false,"default_profile_image":true,"profile_background_color":"C0DEED","favourites_count":0,"url":null,"profile_background_image_url":"http:\\/\\/a0.twimg.com\\/images\\/themes\\/theme1\\/bg.png","friends_count":0,"description":null,"profile_link_color":"0084B4","created_at":"Thu Apr 16 18:42:10 +0000 2009","profile_image_url":"http:\\/\\/a0.twimg.com\\/sticky\\/default_profile_images\\/default_profile_6_normal.png","followers_count":51,"follow_request_sent":null,"statuses_count":1,"lang":"en","profile_use_background_image":true,"default_profile":true,"profile_text_color":"333333","status":{"in_reply_to_status_id_str":null,"coordinates":null,"geo":null,"in_reply_to_user_id":null,"in_reply_to_user_id_str":null,"retweeted":false,"in_reply_to_screen_name":null,"created_at":"Thu Apr 16 18:44:13 +0000 2009","contributors":null,"in_reply_to_status_id":null,"favorited":false,"retweet_count":0,"truncated":false,"source":"web","id_str":"1535763644","place":null,"id":1535763644,"text":"We\'ve moved everything to @redflagdeals !!"},"location":null,"screen_name":"RFD","verified":false},{"id_str":"5581162","id":5581162,"profile_sidebar_border_color":"181A1E","notifications":null,"profile_background_image_url_https":"https:\\/\\/si0.twimg.com\\/images\\/themes\\/theme9\\/bg.gif","listed_count":0,"contributors_enabled":false,"time_zone":"Paris","geo_enabled":false,"following":null,"profile_background_tile":false,"profile_image_url_https":"https:\\/\\/si0.twimg.com\\/sticky\\/default_profile_images\\/default_profile_6_normal.png","utc_offset":3600,"profile_sidebar_fill_color":"252429","is_translator":false,"name":"T. Emerson Coleman","show_all_inline_media":false,"protected":false,"default_profile_image":true,"profile_background_color":"1A1B1F","favourites_count":0,"url":null,"profile_background_image_url":"http:\\/\\/a0.twimg.com\\/images\\/themes\\/theme9\\/bg.gif","friends_count":0,"description":null,"profile_link_color":"2FC2EF","created_at":"Sat Apr 28 08:39:36 +0000 2007","profile_image_url":"http:\\/\\/a0.twimg.com\\/sticky\\/default_profile_images\\/default_profile_6_normal.png","followers_count":2,"follow_request_sent":null,"statuses_count":1,"lang":"en","profile_use_background_image":true,"default_profile":false,"profile_text_color":"666666","status":{"in_reply_to_status_id_str":null,"coordinates":null,"geo":null,"in_reply_to_user_id":null,"in_reply_to_user_id_str":null,"retweeted":false,"in_reply_to_screen_name":null,"created_at":"Sat Apr 28 08:39:32 +0000 2007","contributors":null,"in_reply_to_status_id":null,"favorited":false,"retweet_count":0,"truncated":false,"source":"web","id_str":"42851932","place":null,"id":42851932,"text":"tired"},"location":null,"screen_name":"emerson7","verified":false},{"id_str":"8514462","id":8514462,"profile_sidebar_border_color":"87bc44","notifications":null,"profile_background_image_url_https":"https:\\/\\/si0.twimg.com\\/profile_background_images\\/424222\\/MODERNISTI.jpg","listed_count":1,"contributors_enabled":false,"time_zone":"London","geo_enabled":false,"following":null,"profile_background_tile":true,"profile_image_url_https":"https:\\/\\/si0.twimg.com\\/profile_images\\/1115258111\\/l_cae55703d786e9ec611d0a068dl_cae55703d786e9ec611d0a068d6918f8_biggerl_cae55703d786e9ec611d0a068d6918f8_biggerl_cae55703d786e9ec611d0a068d6918f8_biggerl_cae55703d786e9ec611d0a068d6918f8_biggerl_cae55703d786e9ec611d0a0686918f8_bigger_normal.jpg","utc_offset":0,"profile_sidebar_fill_color":"e0ff92","is_translator":false,"name":"modernist","show_all_inline_media":false,"protected":false,"default_profile_image":false,"profile_background_color":"FFFFFF","favourites_count":0,"url":null,"profile_background_image_url":"http:\\/\\/a0.twimg.com\\/profile_background_images\\/424222\\/MODERNISTI.jpg","friends_count":2,"description":"Owner of the most unused Twitter on the net.","profile_link_color":"0000ff","created_at":"Wed Aug 29 16:36:27 +0000 2007","profile_image_url":"http:\\/\\/a0.twimg.com\\/profile_images\\/1115258111\\/l_cae55703d786e9ec611d0a068dl_cae55703d786e9ec611d0a068d6918f8_biggerl_cae55703d786e9ec611d0a068d6918f8_biggerl_cae55703d786e9ec611d0a068d6918f8_biggerl_cae55703d786e9ec611d0a068d6918f8_biggerl_cae55703d786e9ec611d0a0686918f8_bigger_normal.jpg","followers_count":3,"follow_request_sent":null,"statuses_count":2,"lang":"en","profile_use_background_image":true,"default_profile":false,"profile_text_color":"000000","status":{"in_reply_to_status_id_str":null,"coordinates":null,"geo":null,"in_reply_to_user_id":null,"in_reply_to_user_id_str":null,"retweeted":false,"in_reply_to_screen_name":null,"created_at":"Tue Aug 16 21:51:27 +0000 2011","contributors":null,"in_reply_to_status_id":null,"favorited":false,"retweet_count":0,"truncated":false,"source":"web","id_str":"103584680611282944","place":null,"id":103584680611282944,"text":"4 a\\u00f1os despu\\u00e9s... sigue sin interesarme Twitter :)"},"location":"With Carmen Sandiego","screen_name":"modernist","verified":false},{"id_str":"234045128","id":234045128,"profile_sidebar_border_color":"7c4f21","notifications":null,"profile_background_image_url_https":"https:\\/\\/si0.twimg.com\\/profile_background_images\\/449933756\\/ghosttwonaz_dot_info.jpg","listed_count":0,"contributors_enabled":false,"time_zone":"Pacific Time (US & Canada)","geo_enabled":false,"following":null,"profile_background_tile":false,"profile_image_url_https":"https:\\/\\/si0.twimg.com\\/profile_images\\/1206799222\\/vimeo_normal.jpg","utc_offset":-28800,"profile_sidebar_fill_color":"bd995b","is_translator":false,"name":"ghosttownaz.info","show_all_inline_media":false,"protected":false,"default_profile_image":false,"profile_background_color":"42240a","favourites_count":0,"url":"http:\\/\\/www.ghosttownaz.info","profile_background_image_url":"http:\\/\\/a0.twimg.com\\/profile_background_images\\/449933756\\/ghosttwonaz_dot_info.jpg","friends_count":42,"description":"Exploring Ghost Towns, Mining Sites and Derelict Buildings throughout Arizona and Surrounding States to Photograph, Document and provide exact GPS Directions.","profile_link_color":"7c4f21","created_at":"Tue Jan 04 18:30:26 +0000 2011","profile_image_url":"http:\\/\\/a0.twimg.com\\/profile_images\\/1206799222\\/vimeo_normal.jpg","followers_count":29,"follow_request_sent":null,"statuses_count":36,"lang":"en","profile_use_background_image":true,"default_profile":false,"profile_text_color":"000000","status":{"in_reply_to_status_id_str":null,"coordinates":null,"geo":null,"in_reply_to_user_id":null,"in_reply_to_user_id_str":null,"retweeted":false,"in_reply_to_screen_name":null,"created_at":"Fri Jun 01 18:56:47 +0000 2012","contributors":null,"in_reply_to_status_id":null,"favorited":false,"retweet_count":0,"truncated":false,"source":"\\u003Ca href=\\"http:\\/\\/www.facebook.com\\/twitter\\" rel=\\"nofollow\\"\\u003EFacebook\\u003C\\/a\\u003E","possibly_sensitive":false,"id_str":"208633205593604097","place":null,"id":208633205593604097,"text":"I posted 12 photos on Facebook in the album \\"Abandoned Rock House, Dateland, Arizona\\" http:\\/\\/t.co\\/t6Scopgy"},"location":"Phoenix, Arizona USA","screen_name":"ghosttownaz","verified":false},{"id_str":"145541479","id":145541479,"profile_sidebar_border_color":"C0DEED","notifications":null,"profile_background_image_url_https":"https:\\/\\/si0.twimg.com\\/images\\/themes\\/theme1\\/bg.png","listed_count":0,"contributors_enabled":false,"time_zone":"Pacific Time (US & Canada)","geo_enabled":false,"following":null,"profile_background_tile":false,"profile_image_url_https":"https:\\/\\/si0.twimg.com\\/sticky\\/default_profile_images\\/default_profile_6_normal.png","utc_offset":-28800,"profile_sidebar_fill_color":"DDEEF6","is_translator":false,"name":"JohnnyMrNinja","show_all_inline_media":false,"protected":true,"default_profile_image":true,"profile_background_color":"C0DEED","favourites_count":0,"url":null,"profile_background_image_url":"http:\\/\\/a0.twimg.com\\/images\\/themes\\/theme1\\/bg.png","friends_count":0,"description":"","profile_link_color":"0084B4","created_at":"Wed May 19 06:40:46 +0000 2010","profile_image_url":"http:\\/\\/a0.twimg.com\\/sticky\\/default_profile_images\\/default_profile_6_normal.png","followers_count":1,"follow_request_sent":null,"statuses_count":0,"lang":"en","profile_use_background_image":true,"default_profile":true,"profile_text_color":"333333","location":"","screen_name":"JohnnyMrNinja","verified":false},{"id_str":"277233401","id":277233401,"profile_sidebar_border_color":"C0DEED","notifications":null,"profile_background_image_url_https":"https:\\/\\/si0.twimg.com\\/images\\/themes\\/theme1\\/bg.png","listed_count":0,"contributors_enabled":false,"time_zone":null,"geo_enabled":false,"following":null,"profile_background_tile":false,"profile_image_url_https":"https:\\/\\/si0.twimg.com\\/profile_images\\/1300433808\\/Leftorium_-_small_normal.png","utc_offset":null,"profile_sidebar_fill_color":"DDEEF6","is_translator":false,"name":"Kevin McNamara","show_all_inline_media":false,"protected":false,"default_profile_image":false,"profile_background_color":"C0DEED","favourites_count":0,"url":null,"profile_background_image_url":"http:\\/\\/a0.twimg.com\\/images\\/themes\\/theme1\\/bg.png","friends_count":3,"description":"","profile_link_color":"0084B4","created_at":"Mon Apr 04 23:45:14 +0000 2011","profile_image_url":"http:\\/\\/a0.twimg.com\\/profile_images\\/1300433808\\/Leftorium_-_small_normal.png","followers_count":0,"follow_request_sent":null,"statuses_count":3,"lang":"en","profile_use_background_image":true,"default_profile":true,"profile_text_color":"333333","status":{"in_reply_to_status_id_str":"54968385078960129","coordinates":null,"geo":null,"in_reply_to_user_id":182905284,"in_reply_to_user_id_str":"182905284","retweeted":false,"in_reply_to_screen_name":"rmmcnamara1352","created_at":"Tue Apr 05 00:29:44 +0000 2011","contributors":null,"in_reply_to_status_id":54968385078960129,"favorited":false,"retweet_count":0,"truncated":false,"source":"\\u003Ca href=\\"http:\\/\\/mobile.twitter.com\\" rel=\\"nofollow\\"\\u003EMobile Web\\u003C\\/a\\u003E","id_str":"55064541280739328","place":null,"id":55064541280739328,"text":"@rmmcnamara1352 Paterno ate your Hypnobaby model #thistooshallpass #justkidding"},"location":"Charleston, SC","screen_name":"TheLeftorium","verified":false},{"show_all_inline_media":false,"id":195604496,"profile_use_background_image":true,"profile_text_color":"333333","profile_background_image_url_https":"https:\\/\\/si0.twimg.com\\/images\\/themes\\/theme1\\/bg.png","following":false,"listed_count":1,"utc_offset":null,"verified":false,"name":"Nico Kroeker ","id_str":"195604496","profile_image_url_https":"https:\\/\\/si0.twimg.com\\/profile_images\\/1783267744\\/image_normal.jpg","profile_sidebar_border_color":"C0DEED","is_translator":false,"protected":false,"follow_request_sent":false,"url":"http:\\/\\/www.ripplebottles.com","created_at":"Mon Sep 27 03:31:49 +0000 2010","profile_image_url":"http:\\/\\/a0.twimg.com\\/profile_images\\/1783267744\\/image_normal.jpg","profile_background_tile":false,"default_profile_image":false,"followers_count":231,"profile_sidebar_fill_color":"DDEEF6","favourites_count":24,"description":"I\'m Nico. Entrepreneur, musician, philanthropist, queso connoisseur, lover, protagonist","statuses_count":580,"friends_count":180,"screen_name":"Nicokroeker","location":"Kingwood, TX","profile_background_color":"C0DEED","lang":"en","contributors_enabled":false,"geo_enabled":false,"profile_background_image_url":"http:\\/\\/a0.twimg.com\\/images\\/themes\\/theme1\\/bg.png","notifications":false,"default_profile":true,"profile_link_color":"0084B4","time_zone":null},{"id_str":"19456141","id":19456141,"profile_sidebar_border_color":"C0DEED","notifications":null,"profile_background_image_url_https":"https:\\/\\/si0.twimg.com\\/images\\/themes\\/theme1\\/bg.png","listed_count":0,"contributors_enabled":false,"time_zone":null,"geo_enabled":false,"following":null,"profile_background_tile":false,"profile_image_url_https":"https:\\/\\/si0.twimg.com\\/profile_images\\/72940702\\/P1010270_normal.JPG","utc_offset":null,"profile_sidebar_fill_color":"DDEEF6","is_translator":false,"name":"MICHAUT","show_all_inline_media":false,"protected":true,"default_profile_image":false,"profile_background_color":"C0DEED","favourites_count":0,"url":null,"profile_background_image_url":"http:\\/\\/a0.twimg.com\\/images\\/themes\\/theme1\\/bg.png","friends_count":26,"description":"","profile_link_color":"0084B4","created_at":"Sat Jan 24 18:08:30 +0000 2009","profile_image_url":"http:\\/\\/a0.twimg.com\\/profile_images\\/72940702\\/P1010270_normal.JPG","followers_count":21,"follow_request_sent":null,"statuses_count":52,"lang":"en","profile_use_background_image":true,"default_profile":true,"profile_text_color":"333333","location":"","screen_name":"mimich","verified":false},{"id_str":"18738876","id":18738876,"profile_sidebar_border_color":"BDDCAD","notifications":null,"profile_background_image_url_https":"https:\\/\\/si0.twimg.com\\/profile_background_images\\/184865499\\/grammas_small.jpg","listed_count":3,"contributors_enabled":false,"time_zone":"Alaska","geo_enabled":false,"following":null,"profile_background_tile":true,"profile_image_url_https":"https:\\/\\/si0.twimg.com\\/profile_images\\/341745371\\/3156_1061007962050_1131450468_134748_6116127_n_normal.jpg","utc_offset":-32400,"profile_sidebar_fill_color":"DDFFCC","is_translator":false,"name":"Ellen Choy","show_all_inline_media":false,"protected":false,"default_profile_image":false,"profile_background_color":"9AE4E8","favourites_count":0,"url":"http:\\/\\/www.checktheweather.net","profile_background_image_url":"http:\\/\\/a0.twimg.com\\/profile_background_images\\/184865499\\/grammas_small.jpg","friends_count":168,"description":"LN:fortheLoveofNow","profile_link_color":"0084B4","created_at":"Wed Jan 07 21:13:06 +0000 2009","profile_image_url":"http:\\/\\/a0.twimg.com\\/profile_images\\/341745371\\/3156_1061007962050_1131450468_134748_6116127_n_normal.jpg","followers_count":209,"follow_request_sent":null,"statuses_count":94,"lang":"en","profile_use_background_image":true,"default_profile":false,"profile_text_color":"333333","status":{"in_reply_to_status_id_str":null,"coordinates":null,"geo":null,"in_reply_to_user_id":null,"in_reply_to_user_id_str":null,"retweeted":false,"in_reply_to_screen_name":null,"created_at":"Mon Sep 12 23:36:13 +0000 2011","contributors":null,"in_reply_to_status_id":null,"favorited":false,"retweet_count":0,"truncated":false,"source":"web","id_str":"113395518733959169","place":null,"id":113395518733959169,"text":"i gave up tweeting in january. but i love the folks that connect on here! dilemma! let me think on this one a minute fam."},"location":"Oakland  & LA","screen_name":"DJLN","verified":false},{"id_str":"22687189","id":22687189,"profile_sidebar_border_color":"C0DEED","notifications":null,"profile_background_image_url_https":"https:\\/\\/si0.twimg.com\\/images\\/themes\\/theme1\\/bg.png","listed_count":0,"contributors_enabled":false,"time_zone":"Central Time (US & Canada)","geo_enabled":false,"following":null,"profile_background_tile":false,"profile_image_url_https":"https:\\/\\/si0.twimg.com\\/profile_images\\/1693872537\\/auburn_normal.jpg","utc_offset":-21600,"profile_sidebar_fill_color":"DDEEF6","is_translator":false,"name":"Robert","show_all_inline_media":false,"protected":true,"default_profile_image":false,"profile_background_color":"C0DEED","favourites_count":0,"url":null,"profile_background_image_url":"http:\\/\\/a0.twimg.com\\/images\\/themes\\/theme1\\/bg.png","friends_count":52,"description":"","profile_link_color":"0084B4","created_at":"Tue Mar 03 21:57:10 +0000 2009","profile_image_url":"http:\\/\\/a0.twimg.com\\/profile_images\\/1693872537\\/auburn_normal.jpg","followers_count":7,"follow_request_sent":null,"statuses_count":0,"lang":"en","profile_use_background_image":true,"default_profile":true,"profile_text_color":"333333","location":"","screen_name":"rothorpe","verified":false},{"id_str":"71895111","id":71895111,"profile_sidebar_border_color":"C0DEED","notifications":null,"profile_background_image_url_https":"https:\\/\\/si0.twimg.com\\/images\\/themes\\/theme1\\/bg.png","listed_count":0,"contributors_enabled":false,"time_zone":"Atlantic Time (Canada)","geo_enabled":false,"following":null,"profile_background_tile":false,"profile_image_url_https":"https:\\/\\/si0.twimg.com\\/profile_images\\/2139300537\\/Screen_shot_2012-04-15_at_9.12.21_PM_normal.png","utc_offset":-14400,"profile_sidebar_fill_color":"DDEEF6","is_translator":false,"name":"Elena DeCook","show_all_inline_media":false,"protected":false,"default_profile_image":false,"profile_background_color":"C0DEED","favourites_count":0,"url":null,"profile_background_image_url":"http:\\/\\/a0.twimg.com\\/images\\/themes\\/theme1\\/bg.png","friends_count":9,"description":"Yes we can.","profile_link_color":"0084B4","created_at":"Sat Sep 05 21:25:00 +0000 2009","profile_image_url":"http:\\/\\/a0.twimg.com\\/profile_images\\/2139300537\\/Screen_shot_2012-04-15_at_9.12.21_PM_normal.png","followers_count":8,"follow_request_sent":null,"statuses_count":6,"lang":"en","profile_use_background_image":true,"default_profile":true,"profile_text_color":"333333","status":{"in_reply_to_status_id_str":"209674878410948608","coordinates":null,"geo":null,"in_reply_to_user_id":500187207,"in_reply_to_user_id_str":"500187207","retweeted":false,"in_reply_to_screen_name":"sayrekolk","created_at":"Mon Jun 04 15:58:09 +0000 2012","contributors":null,"in_reply_to_status_id":209674878410948608,"favorited":false,"retweet_count":0,"truncated":false,"source":"web","id_str":"209675414661107712","place":null,"id":209675414661107712,"text":"@sayrekolk can take her examless eighth hour and put it where the biscuits go"},"location":"","screen_name":"barbthebuilder","verified":false},{"show_all_inline_media":false,"id":177103526,"profile_use_background_image":true,"profile_text_color":"333333","profile_background_image_url_https":"https:\\/\\/si0.twimg.com\\/images\\/themes\\/theme1\\/bg.png","following":false,"listed_count":0,"utc_offset":null,"verified":false,"name":"Mark Winograd","id_str":"177103526","profile_image_url_https":"https:\\/\\/si0.twimg.com\\/sticky\\/default_profile_images\\/default_profile_5_normal.png","profile_sidebar_border_color":"C0DEED","is_translator":false,"protected":false,"follow_request_sent":false,"url":null,"created_at":"Wed Aug 11 07:24:11 +0000 2010","profile_image_url":"http:\\/\\/a0.twimg.com\\/sticky\\/default_profile_images\\/default_profile_5_normal.png","profile_background_tile":false,"default_profile_image":true,"followers_count":1,"profile_sidebar_fill_color":"DDEEF6","favourites_count":0,"description":null,"statuses_count":0,"friends_count":5,"screen_name":"mwinog2777","location":null,"profile_background_color":"C0DEED","lang":"en","contributors_enabled":false,"geo_enabled":false,"profile_background_image_url":"http:\\/\\/a0.twimg.com\\/images\\/themes\\/theme1\\/bg.png","notifications":false,"default_profile":true,"profile_link_color":"0084B4","time_zone":null},{"id_str":"34947333","id":34947333,"profile_sidebar_border_color":"C0DEED","notifications":null,"profile_background_image_url_https":"https:\\/\\/si0.twimg.com\\/images\\/themes\\/theme1\\/bg.png","listed_count":0,"contributors_enabled":false,"time_zone":null,"geo_enabled":false,"following":null,"profile_background_tile":false,"profile_image_url_https":"https:\\/\\/si0.twimg.com\\/profile_images\\/222656673\\/Jason2A_normal.GIF","utc_offset":null,"profile_sidebar_fill_color":"DDEEF6","is_translator":false,"name":"Jason Wells","show_all_inline_media":false,"protected":false,"default_profile_image":false,"profile_background_color":"C0DEED","favourites_count":2,"url":null,"profile_background_image_url":"http:\\/\\/a0.twimg.com\\/images\\/themes\\/theme1\\/bg.png","friends_count":70,"description":null,"profile_link_color":"0084B4","created_at":"Fri Apr 24 15:04:45 +0000 2009","profile_image_url":"http:\\/\\/a0.twimg.com\\/profile_images\\/222656673\\/Jason2A_normal.GIF","followers_count":19,"follow_request_sent":null,"statuses_count":138,"lang":"en","profile_use_background_image":true,"default_profile":true,"profile_text_color":"333333","status":{"in_reply_to_status_id_str":"204030258662477824","coordinates":null,"geo":null,"in_reply_to_user_id":248747209,"in_reply_to_user_id_str":"248747209","retweeted":false,"in_reply_to_screen_name":"AshleyJudd","created_at":"Sun May 20 02:19:11 +0000 2012","contributors":null,"in_reply_to_status_id":204030258662477824,"favorited":false,"retweet_count":0,"truncated":false,"source":"web","id_str":"204033500410683393","place":null,"id":204033500410683393,"text":"@AshleyJudd Marriage is between a man and a woman."},"location":null,"screen_name":"jasonwells1982","verified":false},{"show_all_inline_media":false,"id":88747028,"profile_use_background_image":true,"profile_text_color":"333333","profile_background_image_url_https":"https:\\/\\/si0.twimg.com\\/images\\/themes\\/theme1\\/bg.png","following":false,"listed_count":0,"utc_offset":null,"verified":false,"name":"Matt Charkow","id_str":"88747028","profile_image_url_https":"https:\\/\\/si0.twimg.com\\/sticky\\/default_profile_images\\/default_profile_6_normal.png","profile_sidebar_border_color":"C0DEED","is_translator":false,"protected":false,"follow_request_sent":false,"url":null,"created_at":"Mon Nov 09 20:04:46 +0000 2009","profile_image_url":"http:\\/\\/a0.twimg.com\\/sticky\\/default_profile_images\\/default_profile_6_normal.png","profile_background_tile":false,"default_profile_image":true,"followers_count":23,"profile_sidebar_fill_color":"DDEEF6","favourites_count":0,"description":"","statuses_count":1,"friends_count":2,"screen_name":"mcharkow","location":"","profile_background_color":"C0DEED","lang":"en","contributors_enabled":false,"geo_enabled":false,"status":{"in_reply_to_screen_name":null,"in_reply_to_user_id":null,"truncated":false,"contributors":null,"retweeted":false,"coordinates":null,"geo":null,"retweet_count":0,"in_reply_to_status_id_str":null,"in_reply_to_user_id_str":null,"favorited":false,"source":"web","created_at":"Mon Nov 09 20:05:13 +0000 2009","id_str":"5567476925","place":null,"in_reply_to_status_id":null,"id":5567476925,"text":"working"},"profile_background_image_url":"http:\\/\\/a0.twimg.com\\/images\\/themes\\/theme1\\/bg.png","notifications":false,"default_profile":true,"profile_link_color":"0084B4","time_zone":null},{"id_str":"27554740","id":27554740,"profile_sidebar_border_color":"C0DEED","notifications":null,"profile_background_image_url_https":"https:\\/\\/si0.twimg.com\\/images\\/themes\\/theme1\\/bg.png","listed_count":0,"contributors_enabled":false,"time_zone":null,"geo_enabled":false,"following":null,"profile_background_tile":false,"profile_image_url_https":"https:\\/\\/si0.twimg.com\\/sticky\\/default_profile_images\\/default_profile_3_normal.png","utc_offset":null,"profile_sidebar_fill_color":"DDEEF6","is_translator":false,"name":"Io Ji","show_all_inline_media":false,"protected":false,"default_profile_image":true,"profile_background_color":"C0DEED","favourites_count":0,"url":null,"profile_background_image_url":"http:\\/\\/a0.twimg.com\\/images\\/themes\\/theme1\\/bg.png","friends_count":0,"description":null,"profile_link_color":"0084B4","created_at":"Mon Mar 30 01:35:48 +0000 2009","profile_image_url":"http:\\/\\/a0.twimg.com\\/sticky\\/default_profile_images\\/default_profile_3_normal.png","followers_count":2,"follow_request_sent":null,"statuses_count":3,"lang":"en","profile_use_background_image":true,"default_profile":true,"profile_text_color":"333333","status":{"in_reply_to_status_id_str":null,"coordinates":null,"geo":null,"in_reply_to_user_id":null,"in_reply_to_user_id_str":null,"retweeted":false,"in_reply_to_screen_name":null,"created_at":"Tue Apr 07 18:59:56 +0000 2009","contributors":null,"in_reply_to_status_id":null,"favorited":false,"retweet_count":0,"truncated":false,"source":"web","id_str":"1471325643","place":null,"id":1471325643,"text":"Working."},"location":null,"screen_name":"ezhiki","verified":false},{"id_str":"146183271","id":146183271,"profile_sidebar_border_color":"C0DEED","notifications":null,"profile_background_image_url_https":"https:\\/\\/si0.twimg.com\\/images\\/themes\\/theme1\\/bg.png","listed_count":0,"contributors_enabled":false,"time_zone":null,"geo_enabled":false,"following":null,"profile_background_tile":false,"profile_image_url_https":"https:\\/\\/si0.twimg.com\\/profile_images\\/1389872155\\/34883_1518042472188_1268302492_1478570_5400156_n_normal.jpg","utc_offset":null,"profile_sidebar_fill_color":"DDEEF6","is_translator":false,"name":"Hamish Patullo","show_all_inline_media":false,"protected":false,"default_profile_image":false,"profile_background_color":"C0DEED","favourites_count":0,"url":"http:\\/\\/www.nevadabobsgolf.com","profile_background_image_url":"http:\\/\\/a0.twimg.com\\/images\\/themes\\/theme1\\/bg.png","friends_count":64,"description":"I am Nevada Bob! lets do a deal on some golf stuff!!!","profile_link_color":"0084B4","created_at":"Thu May 20 20:12:06 +0000 2010","profile_image_url":"http:\\/\\/a0.twimg.com\\/profile_images\\/1389872155\\/34883_1518042472188_1268302492_1478570_5400156_n_normal.jpg","followers_count":12,"follow_request_sent":null,"statuses_count":5,"lang":"en","profile_use_background_image":true,"default_profile":true,"profile_text_color":"333333","status":{"in_reply_to_status_id_str":null,"coordinates":null,"geo":null,"in_reply_to_user_id":null,"in_reply_to_user_id_str":null,"retweeted":false,"in_reply_to_screen_name":null,"created_at":"Wed Jun 15 21:55:09 +0000 2011","contributors":null,"in_reply_to_status_id":null,"favorited":false,"retweet_count":0,"truncated":false,"source":"web","id_str":"81117567254659072","place":null,"id":81117567254659072,"text":"after my sucess at the masters I have bet E.Molonari for the US open. Good putters do well there and he is most certainelly one of those!"},"location":"St Andrews, Scotland","screen_name":"hamish59","verified":false},{"id_str":"161248789","id":161248789,"profile_sidebar_border_color":"C0DEED","notifications":null,"profile_background_image_url_https":"https:\\/\\/si0.twimg.com\\/images\\/themes\\/theme1\\/bg.png","listed_count":0,"contributors_enabled":false,"time_zone":null,"geo_enabled":false,"following":null,"profile_background_tile":false,"profile_image_url_https":"https:\\/\\/si0.twimg.com\\/sticky\\/default_profile_images\\/default_profile_2_normal.png","utc_offset":null,"profile_sidebar_fill_color":"DDEEF6","is_translator":false,"name":"Samuel D. Tate","show_all_inline_media":false,"protected":false,"default_profile_image":true,"profile_background_color":"C0DEED","favourites_count":0,"url":null,"profile_background_image_url":"http:\\/\\/a0.twimg.com\\/images\\/themes\\/theme1\\/bg.png","friends_count":0,"description":null,"profile_link_color":"0084B4","created_at":"Wed Jun 30 10:46:50 +0000 2010","profile_image_url":"http:\\/\\/a0.twimg.com\\/sticky\\/default_profile_images\\/default_profile_2_normal.png","followers_count":0,"follow_request_sent":null,"statuses_count":0,"lang":"en","profile_use_background_image":true,"default_profile":true,"profile_text_color":"333333","location":null,"screen_name":"steam5","verified":false},{"id_str":"15403616","id":15403616,"profile_sidebar_border_color":"C0DEED","notifications":null,"profile_background_image_url_https":"https:\\/\\/si0.twimg.com\\/images\\/themes\\/theme1\\/bg.png","listed_count":0,"contributors_enabled":false,"time_zone":"Sydney","geo_enabled":false,"following":null,"profile_background_tile":false,"profile_image_url_https":"https:\\/\\/si0.twimg.com\\/sticky\\/default_profile_images\\/default_profile_4_normal.png","utc_offset":36000,"profile_sidebar_fill_color":"DDEEF6","is_translator":false,"name":"Mike Edwards","show_all_inline_media":false,"protected":false,"default_profile_image":true,"profile_background_color":"C0DEED","favourites_count":0,"url":null,"profile_background_image_url":"http:\\/\\/a0.twimg.com\\/images\\/themes\\/theme1\\/bg.png","friends_count":16,"description":"","profile_link_color":"0084B4","created_at":"Sat Jul 12 12:56:39 +0000 2008","profile_image_url":"http:\\/\\/a0.twimg.com\\/sticky\\/default_profile_images\\/default_profile_4_normal.png","followers_count":6,"follow_request_sent":null,"statuses_count":5,"lang":"en","profile_use_background_image":true,"default_profile":true,"profile_text_color":"333333","status":{"in_reply_to_status_id_str":null,"coordinates":null,"geo":null,"in_reply_to_user_id":null,"in_reply_to_user_id_str":null,"retweeted":false,"in_reply_to_screen_name":null,"created_at":"Thu Mar 17 10:38:28 +0000 2011","contributors":null,"in_reply_to_status_id":null,"favorited":false,"retweet_count":0,"truncated":false,"source":"web","id_str":"48332363549261824","place":null,"id":48332363549261824,"text":"We\'re working on something really big. Stay tuned..."},"location":"","screen_name":"Lugnuts","verified":false},{"id_str":"77978682","id":77978682,"profile_sidebar_border_color":"C0DEED","notifications":null,"profile_background_image_url_https":"https:\\/\\/si0.twimg.com\\/images\\/themes\\/theme1\\/bg.png","listed_count":0,"contributors_enabled":false,"time_zone":null,"geo_enabled":false,"following":null,"profile_background_tile":false,"profile_image_url_https":"https:\\/\\/si0.twimg.com\\/sticky\\/default_profile_images\\/default_profile_5_normal.png","utc_offset":null,"profile_sidebar_fill_color":"DDEEF6","is_translator":false,"name":"shelley ","show_all_inline_media":false,"protected":false,"default_profile_image":true,"profile_background_color":"C0DEED","favourites_count":0,"url":null,"profile_background_image_url":"http:\\/\\/a0.twimg.com\\/images\\/themes\\/theme1\\/bg.png","friends_count":0,"description":null,"profile_link_color":"0084B4","created_at":"Mon Sep 28 10:21:00 +0000 2009","profile_image_url":"http:\\/\\/a0.twimg.com\\/sticky\\/default_profile_images\\/default_profile_5_normal.png","followers_count":0,"follow_request_sent":null,"statuses_count":0,"lang":"en","profile_use_background_image":true,"default_profile":true,"profile_text_color":"333333","location":null,"screen_name":"chip123456","verified":false},{"id_str":"9661782","id":9661782,"profile_sidebar_border_color":"eeeeee","notifications":null,"profile_background_image_url_https":"https:\\/\\/si0.twimg.com\\/images\\/themes\\/theme14\\/bg.gif","listed_count":119,"contributors_enabled":false,"time_zone":"Pacific Time (US & Canada)","geo_enabled":false,"following":null,"profile_background_tile":true,"profile_image_url_https":"https:\\/\\/si0.twimg.com\\/profile_images\\/34236092\\/NASA_Mars_Rover-sm_normal.jpg","utc_offset":-28800,"profile_sidebar_fill_color":"efefef","is_translator":false,"name":"MarsRover","show_all_inline_media":false,"protected":false,"default_profile_image":false,"profile_background_color":"131516","favourites_count":0,"url":null,"profile_background_image_url":"http:\\/\\/a0.twimg.com\\/images\\/themes\\/theme14\\/bg.gif","friends_count":82,"description":"This is NOT the account for NASA\'s entrepid Mars rovers. For that, you want @MarsRovers (plural)","profile_link_color":"009999","created_at":"Wed Oct 24 18:23:54 +0000 2007","profile_image_url":"http:\\/\\/a0.twimg.com\\/profile_images\\/34236092\\/NASA_Mars_Rover-sm_normal.jpg","followers_count":1412,"follow_request_sent":null,"statuses_count":81,"lang":"en","profile_use_background_image":true,"default_profile":false,"profile_text_color":"333333","status":{"in_reply_to_status_id_str":null,"coordinates":null,"geo":null,"in_reply_to_user_id":null,"in_reply_to_user_id_str":null,"retweeted":false,"in_reply_to_screen_name":null,"created_at":"Thu Aug 11 04:17:09 +0000 2011","contributors":null,"in_reply_to_status_id":null,"favorited":false,"retweet_count":1,"truncated":false,"source":"web","id_str":"101507418420285440","place":null,"id":101507418420285440,"text":"If you meant to follow NASA\'s Mars rovers, that would be @MarsRovers (plural). This account? Not the real thing."},"location":"","screen_name":"marsrover","verified":false},{"id_str":"142235773","id":142235773,"profile_sidebar_border_color":"C0DEED","notifications":null,"profile_background_image_url_https":"https:\\/\\/si0.twimg.com\\/images\\/themes\\/theme1\\/bg.png","listed_count":0,"contributors_enabled":false,"time_zone":null,"geo_enabled":false,"following":null,"profile_background_tile":false,"profile_image_url_https":"https:\\/\\/si0.twimg.com\\/sticky\\/default_profile_images\\/default_profile_1_normal.png","utc_offset":null,"profile_sidebar_fill_color":"DDEEF6","is_translator":false,"name":"Viking Almquist","show_all_inline_media":false,"protected":false,"default_profile_image":true,"profile_background_color":"C0DEED","favourites_count":0,"url":null,"profile_background_image_url":"http:\\/\\/a0.twimg.com\\/images\\/themes\\/theme1\\/bg.png","friends_count":1,"description":null,"profile_link_color":"0084B4","created_at":"Mon May 10 10:02:33 +0000 2010","profile_image_url":"http:\\/\\/a0.twimg.com\\/sticky\\/default_profile_images\\/default_profile_1_normal.png","followers_count":1,"follow_request_sent":null,"statuses_count":20,"lang":"en","profile_use_background_image":true,"default_profile":true,"profile_text_color":"333333","status":{"in_reply_to_status_id_str":null,"coordinates":null,"geo":null,"in_reply_to_user_id":null,"in_reply_to_user_id_str":null,"retweeted":false,"in_reply_to_screen_name":null,"created_at":"Mon May 31 10:25:38 +0000 2010","contributors":null,"in_reply_to_status_id":null,"favorited":false,"retweet_count":0,"truncated":false,"source":"web","possibly_sensitive":false,"id_str":"15099068216","place":null,"id":15099068216,"text":"De St\\u00f6rsta Svenska Film Kalkonerna\\nhttp:\\/\\/www.lista.se\\/listor\\/1286"},"location":null,"screen_name":"AgentSniff","verified":false},{"id_str":"191138179","id":191138179,"profile_sidebar_border_color":"C0DEED","notifications":null,"profile_background_image_url_https":"https:\\/\\/si0.twimg.com\\/images\\/themes\\/theme1\\/bg.png","listed_count":0,"contributors_enabled":false,"time_zone":"Quito","geo_enabled":false,"following":null,"profile_background_tile":false,"profile_image_url_https":"https:\\/\\/si0.twimg.com\\/sticky\\/default_profile_images\\/default_profile_1_normal.png","utc_offset":-18000,"profile_sidebar_fill_color":"DDEEF6","is_translator":false,"name":"avraham","show_all_inline_media":false,"protected":true,"default_profile_image":true,"profile_background_color":"C0DEED","favourites_count":0,"url":null,"profile_background_image_url":"http:\\/\\/a0.twimg.com\\/images\\/themes\\/theme1\\/bg.png","friends_count":0,"description":"Nothing to see here. Maybe later.","profile_link_color":"0084B4","created_at":"Wed Sep 15 18:04:25 +0000 2010","profile_image_url":"http:\\/\\/a0.twimg.com\\/sticky\\/default_profile_images\\/default_profile_1_normal.png","followers_count":0,"follow_request_sent":null,"statuses_count":0,"lang":"en","profile_use_background_image":true,"default_profile":true,"profile_text_color":"333333","location":"","screen_name":"avraham","verified":false},{"id_str":"62097027","id":62097027,"profile_sidebar_border_color":"C0DEED","notifications":null,"profile_background_image_url_https":"https:\\/\\/si0.twimg.com\\/images\\/themes\\/theme1\\/bg.png","listed_count":0,"contributors_enabled":false,"time_zone":"Central Time (US & Canada)","geo_enabled":false,"following":null,"profile_background_tile":false,"profile_image_url_https":"https:\\/\\/si0.twimg.com\\/sticky\\/default_profile_images\\/default_profile_6_normal.png","utc_offset":-21600,"profile_sidebar_fill_color":"DDEEF6","is_translator":false,"name":"Sharon Sides","show_all_inline_media":false,"protected":true,"default_profile_image":true,"profile_background_color":"C0DEED","favourites_count":1,"url":null,"profile_background_image_url":"http:\\/\\/a0.twimg.com\\/images\\/themes\\/theme1\\/bg.png","friends_count":9,"description":"","profile_link_color":"0084B4","created_at":"Sat Aug 01 19:12:12 +0000 2009","profile_image_url":"http:\\/\\/a0.twimg.com\\/sticky\\/default_profile_images\\/default_profile_6_normal.png","followers_count":0,"follow_request_sent":null,"statuses_count":1,"lang":"en","profile_use_background_image":true,"default_profile":true,"profile_text_color":"333333","location":"","screen_name":"sss28","verified":false},{"id_str":"14790677","id":14790677,"profile_sidebar_border_color":"0099b9","notifications":null,"profile_background_image_url_https":"https:\\/\\/si0.twimg.com\\/images\\/themes\\/theme1\\/bg.png","listed_count":2,"contributors_enabled":false,"time_zone":"Eastern Time (US & Canada)","geo_enabled":false,"following":null,"profile_background_tile":false,"profile_image_url_https":"https:\\/\\/si0.twimg.com\\/profile_images\\/1259838003\\/Squeeze_Head_normal.jpg","utc_offset":-18000,"profile_sidebar_fill_color":"000000","is_translator":false,"name":"Jesus Amigo","show_all_inline_media":false,"protected":false,"default_profile_image":false,"profile_background_color":"000000","favourites_count":31,"url":"http:\\/\\/coldbeerandammo.com","profile_background_image_url":"http:\\/\\/a0.twimg.com\\/images\\/themes\\/theme1\\/bg.png","friends_count":597,"description":"When I was young, I believed in three things: Marxism, the redemptive power of cinema, and dynamite. Now I just believe in dynamite.","profile_link_color":"0099B9","created_at":"Thu May 15 19:39:32 +0000 2008","profile_image_url":"http:\\/\\/a0.twimg.com\\/profile_images\\/1259838003\\/Squeeze_Head_normal.jpg","followers_count":190,"follow_request_sent":null,"statuses_count":5525,"lang":"en","profile_use_background_image":false,"default_profile":false,"profile_text_color":"7a7a7a","status":{"in_reply_to_status_id_str":null,"coordinates":null,"geo":null,"in_reply_to_user_id":null,"in_reply_to_user_id_str":null,"retweeted":false,"in_reply_to_screen_name":null,"created_at":"Mon Jun 04 14:20:22 +0000 2012","contributors":null,"in_reply_to_status_id":null,"favorited":false,"retweet_count":0,"truncated":false,"source":"\\u003Ca href=\\"http:\\/\\/foursquare.com\\" rel=\\"nofollow\\"\\u003Efoursquare\\u003C\\/a\\u003E","possibly_sensitive":false,"id_str":"209650807732310018","place":null,"id":209650807732310018,"text":"Adios viceroy thanks for the memorable relaxing stay. I think I\'m all better now. (@ Viceroy Santa Monica) http:\\/\\/t.co\\/u2ZkOc65"},"location":"\\u00dcT: 40.725238,-74.005104","screen_name":"Leisurist","verified":false},{"show_all_inline_media":false,"id":91335580,"profile_use_background_image":true,"profile_text_color":"666666","profile_background_image_url_https":"https:\\/\\/si0.twimg.com\\/images\\/themes\\/theme9\\/bg.gif","following":false,"listed_count":1,"utc_offset":-18000,"verified":false,"name":"Jonathan Rosado","id_str":"91335580","profile_image_url_https":"https:\\/\\/si0.twimg.com\\/profile_images\\/1735558205\\/image_normal.jpg","profile_sidebar_border_color":"181A1E","is_translator":false,"protected":false,"follow_request_sent":false,"url":null,"created_at":"Fri Nov 20 13:03:19 +0000 2009","profile_image_url":"http:\\/\\/a0.twimg.com\\/profile_images\\/1735558205\\/image_normal.jpg","profile_background_tile":false,"default_profile_image":false,"followers_count":259,"profile_sidebar_fill_color":"252429","favourites_count":1,"description":"Media Professor | Radio Producer | Morning Show Host","statuses_count":2704,"friends_count":238,"screen_name":"SnowmanRadio","location":"Puerto Rico","profile_background_color":"1A1B1F","lang":"en","contributors_enabled":false,"geo_enabled":false,"profile_background_image_url":"http:\\/\\/a0.twimg.com\\/images\\/themes\\/theme9\\/bg.gif","notifications":false,"default_profile":false,"profile_link_color":"2FC2EF","time_zone":"Eastern Time (US & Canada)"},{"id_str":"32930044","id":32930044,"profile_sidebar_border_color":"C0DEED","notifications":null,"profile_background_image_url_https":"https:\\/\\/si0.twimg.com\\/images\\/themes\\/theme1\\/bg.png","listed_count":1,"contributors_enabled":false,"time_zone":"Eastern Time (US & Canada)","geo_enabled":false,"following":null,"profile_background_tile":false,"profile_image_url_https":"https:\\/\\/si0.twimg.com\\/sticky\\/default_profile_images\\/default_profile_0_normal.png","utc_offset":-18000,"profile_sidebar_fill_color":"DDEEF6","is_translator":false,"name":"MZMcBride","show_all_inline_media":false,"protected":false,"default_profile_image":true,"profile_background_color":"C0DEED","favourites_count":0,"url":null,"profile_background_image_url":"http:\\/\\/a0.twimg.com\\/images\\/themes\\/theme1\\/bg.png","friends_count":2,"description":"","profile_link_color":"0084B4","created_at":"Sat Apr 18 16:21:26 +0000 2009","profile_image_url":"http:\\/\\/a0.twimg.com\\/sticky\\/default_profile_images\\/default_profile_0_normal.png","followers_count":18,"follow_request_sent":null,"statuses_count":0,"lang":"en","profile_use_background_image":true,"default_profile":true,"profile_text_color":"333333","location":"","screen_name":"MZMcBride","verified":false},{"id_str":"40647401","id":40647401,"profile_sidebar_border_color":"C0DEED","notifications":null,"profile_background_image_url_https":"https:\\/\\/si0.twimg.com\\/images\\/themes\\/theme1\\/bg.png","listed_count":0,"contributors_enabled":false,"time_zone":null,"geo_enabled":false,"following":null,"profile_background_tile":false,"profile_image_url_https":"https:\\/\\/si0.twimg.com\\/sticky\\/default_profile_images\\/default_profile_4_normal.png","utc_offset":null,"profile_sidebar_fill_color":"DDEEF6","is_translator":false,"name":"Vanko","show_all_inline_media":false,"protected":false,"default_profile_image":true,"profile_background_color":"C0DEED","favourites_count":0,"url":null,"profile_background_image_url":"http:\\/\\/a0.twimg.com\\/images\\/themes\\/theme1\\/bg.png","friends_count":1,"description":null,"profile_link_color":"0084B4","created_at":"Sun May 17 11:50:26 +0000 2009","profile_image_url":"http:\\/\\/a0.twimg.com\\/sticky\\/default_profile_images\\/default_profile_4_normal.png","followers_count":3,"follow_request_sent":null,"statuses_count":0,"lang":"en","profile_use_background_image":true,"default_profile":true,"profile_text_color":"333333","location":null,"screen_name":"vankod","verified":false},{"id_str":"103307693","id":103307693,"profile_sidebar_border_color":"C0DEED","notifications":null,"profile_background_image_url_https":"https:\\/\\/si0.twimg.com\\/images\\/themes\\/theme1\\/bg.png","listed_count":0,"contributors_enabled":false,"time_zone":"Greenland","geo_enabled":false,"following":null,"profile_background_tile":false,"profile_image_url_https":"https:\\/\\/si0.twimg.com\\/sticky\\/default_profile_images\\/default_profile_6_normal.png","utc_offset":-10800,"profile_sidebar_fill_color":"DDEEF6","is_translator":false,"name":"Jorge Luiz Nogueira","show_all_inline_media":false,"protected":false,"default_profile_image":true,"profile_background_color":"C0DEED","favourites_count":0,"url":null,"profile_background_image_url":"http:\\/\\/a0.twimg.com\\/images\\/themes\\/theme1\\/bg.png","friends_count":21,"description":"sou professor e advogado, mudando de area no direito\\r\\n","profile_link_color":"0084B4","created_at":"Sat Jan 09 16:22:42 +0000 2010","profile_image_url":"http:\\/\\/a0.twimg.com\\/sticky\\/default_profile_images\\/default_profile_6_normal.png","followers_count":5,"follow_request_sent":null,"statuses_count":0,"lang":"es","profile_use_background_image":true,"default_profile":true,"profile_text_color":"333333","location":"Brasil","screen_name":"kadoshim","verified":false},{"id_str":"19462842","id":19462842,"profile_sidebar_border_color":"C0DEED","notifications":null,"profile_background_image_url_https":"https:\\/\\/si0.twimg.com\\/images\\/themes\\/theme1\\/bg.png","listed_count":0,"contributors_enabled":false,"time_zone":null,"geo_enabled":false,"following":null,"profile_background_tile":false,"profile_image_url_https":"https:\\/\\/si0.twimg.com\\/sticky\\/default_profile_images\\/default_profile_0_normal.png","utc_offset":null,"profile_sidebar_fill_color":"DDEEF6","is_translator":false,"name":"Russell D","show_all_inline_media":false,"protected":false,"default_profile_image":true,"profile_background_color":"C0DEED","favourites_count":0,"url":null,"profile_background_image_url":"http:\\/\\/a0.twimg.com\\/images\\/themes\\/theme1\\/bg.png","friends_count":2,"description":null,"profile_link_color":"0084B4","created_at":"Sat Jan 24 20:53:47 +0000 2009","profile_image_url":"http:\\/\\/a0.twimg.com\\/sticky\\/default_profile_images\\/default_profile_0_normal.png","followers_count":1,"follow_request_sent":null,"statuses_count":0,"lang":"en","profile_use_background_image":true,"default_profile":true,"profile_text_color":"333333","location":null,"screen_name":"Transporterman","verified":false},{"id_str":"231669672","id":231669672,"profile_sidebar_border_color":"C0DEED","notifications":null,"profile_background_image_url_https":"https:\\/\\/si0.twimg.com\\/images\\/themes\\/theme1\\/bg.png","listed_count":0,"contributors_enabled":false,"time_zone":null,"geo_enabled":false,"following":null,"profile_background_tile":false,"profile_image_url_https":"https:\\/\\/si0.twimg.com\\/sticky\\/default_profile_images\\/default_profile_3_normal.png","utc_offset":null,"profile_sidebar_fill_color":"DDEEF6","is_translator":false,"name":"jozue","show_all_inline_media":false,"protected":false,"default_profile_image":true,"profile_background_color":"C0DEED","favourites_count":0,"url":null,"profile_background_image_url":"http:\\/\\/a0.twimg.com\\/images\\/themes\\/theme1\\/bg.png","friends_count":3,"description":null,"profile_link_color":"0084B4","created_at":"Wed Dec 29 04:25:32 +0000 2010","profile_image_url":"http:\\/\\/a0.twimg.com\\/sticky\\/default_profile_images\\/default_profile_3_normal.png","followers_count":0,"follow_request_sent":null,"statuses_count":0,"lang":"es","profile_use_background_image":true,"default_profile":true,"profile_text_color":"333333","location":null,"screen_name":"zoupan","verified":false},{"id_str":"755331","id":755331,"profile_sidebar_border_color":"87bc44","notifications":null,"profile_background_image_url_https":"https:\\/\\/si0.twimg.com\\/images\\/themes\\/theme1\\/bg.png","listed_count":0,"contributors_enabled":false,"time_zone":"Hawaii","geo_enabled":false,"following":null,"profile_background_tile":false,"profile_image_url_https":"https:\\/\\/si0.twimg.com\\/sticky\\/default_profile_images\\/default_profile_3_normal.png","utc_offset":-36000,"profile_sidebar_fill_color":"e0ff92","is_translator":false,"name":"domenico","show_all_inline_media":false,"protected":false,"default_profile_image":true,"profile_background_color":"9ae4e8","favourites_count":0,"url":null,"profile_background_image_url":"http:\\/\\/a0.twimg.com\\/images\\/themes\\/theme1\\/bg.png","friends_count":5,"description":null,"profile_link_color":"0000ff","created_at":"Tue Feb 06 16:21:24 +0000 2007","profile_image_url":"http:\\/\\/a0.twimg.com\\/sticky\\/default_profile_images\\/default_profile_3_normal.png","followers_count":14,"follow_request_sent":null,"statuses_count":0,"lang":"en","profile_use_background_image":true,"default_profile":false,"profile_text_color":"000000","location":null,"screen_name":"meco","verified":false},{"id_str":"14432185","id":14432185,"profile_sidebar_border_color":"C0DEED","notifications":null,"profile_background_image_url_https":"https:\\/\\/si0.twimg.com\\/images\\/themes\\/theme1\\/bg.png","listed_count":0,"contributors_enabled":false,"time_zone":"Greenland","geo_enabled":false,"following":null,"profile_background_tile":false,"profile_image_url_https":"https:\\/\\/si0.twimg.com\\/sticky\\/default_profile_images\\/default_profile_5_normal.png","utc_offset":-10800,"profile_sidebar_fill_color":"DDEEF6","is_translator":false,"name":"piotrus","show_all_inline_media":false,"protected":false,"default_profile_image":true,"profile_background_color":"C0DEED","favourites_count":0,"url":null,"profile_background_image_url":"http:\\/\\/a0.twimg.com\\/images\\/themes\\/theme1\\/bg.png","friends_count":0,"description":"","profile_link_color":"0084B4","created_at":"Fri Apr 18 11:49:55 +0000 2008","profile_image_url":"http:\\/\\/a0.twimg.com\\/sticky\\/default_profile_images\\/default_profile_5_normal.png","followers_count":0,"follow_request_sent":null,"statuses_count":0,"lang":"en","profile_use_background_image":true,"default_profile":true,"profile_text_color":"333333","location":"","screen_name":"piotrus","verified":false},{"id_str":"16988164","id":16988164,"profile_sidebar_border_color":"C0DEED","notifications":null,"profile_background_image_url_https":"https:\\/\\/si0.twimg.com\\/images\\/themes\\/theme1\\/bg.png","listed_count":0,"contributors_enabled":false,"time_zone":null,"geo_enabled":false,"following":null,"profile_background_tile":false,"profile_image_url_https":"https:\\/\\/si0.twimg.com\\/sticky\\/default_profile_images\\/default_profile_4_normal.png","utc_offset":null,"profile_sidebar_fill_color":"DDEEF6","is_translator":false,"name":"artvandelay13","show_all_inline_media":false,"protected":false,"default_profile_image":true,"profile_background_color":"C0DEED","favourites_count":0,"url":null,"profile_background_image_url":"http:\\/\\/a0.twimg.com\\/images\\/themes\\/theme1\\/bg.png","friends_count":0,"description":null,"profile_link_color":"0084B4","created_at":"Sun Oct 26 23:41:29 +0000 2008","profile_image_url":"http:\\/\\/a0.twimg.com\\/sticky\\/default_profile_images\\/default_profile_4_normal.png","followers_count":3,"follow_request_sent":null,"statuses_count":1,"lang":"en","profile_use_background_image":true,"default_profile":true,"profile_text_color":"333333","status":{"in_reply_to_status_id_str":null,"coordinates":null,"geo":null,"in_reply_to_user_id":null,"in_reply_to_user_id_str":null,"retweeted":false,"in_reply_to_screen_name":null,"created_at":"Sun Oct 26 23:48:38 +0000 2008","contributors":null,"in_reply_to_status_id":null,"favorited":false,"retweet_count":0,"truncated":false,"source":"web","id_str":"976682211","place":null,"id":976682211,"text":"searching the net"},"location":null,"screen_name":"artvandelay13","verified":false},{"id_str":"39600697","id":39600697,"profile_sidebar_border_color":"C0DEED","notifications":null,"profile_background_image_url_https":"https:\\/\\/si0.twimg.com\\/images\\/themes\\/theme1\\/bg.png","listed_count":0,"contributors_enabled":false,"time_zone":null,"geo_enabled":false,"following":null,"profile_background_tile":false,"profile_image_url_https":"https:\\/\\/si0.twimg.com\\/sticky\\/default_profile_images\\/default_profile_3_normal.png","utc_offset":null,"profile_sidebar_fill_color":"DDEEF6","is_translator":false,"name":"Dave Voorhis","show_all_inline_media":false,"protected":false,"default_profile_image":true,"profile_background_color":"C0DEED","favourites_count":0,"url":null,"profile_background_image_url":"http:\\/\\/a0.twimg.com\\/images\\/themes\\/theme1\\/bg.png","friends_count":0,"description":null,"profile_link_color":"0084B4","created_at":"Tue May 12 21:28:06 +0000 2009","profile_image_url":"http:\\/\\/a0.twimg.com\\/sticky\\/default_profile_images\\/default_profile_3_normal.png","followers_count":2,"follow_request_sent":null,"statuses_count":0,"lang":"en","profile_use_background_image":true,"default_profile":true,"profile_text_color":"333333","location":null,"screen_name":"davevoorhis","verified":false}]'
p2
aS'[{"id_str":"405647244","id":405647244,"profile_sidebar_border_color":"C0DEED","notifications":null,"profile_background_image_url_https":"https:\\/\\/si0.twimg.com\\/images\\/themes\\/theme1\\/bg.png","listed_count":0,"contributors_enabled":false,"time_zone":null,"geo_enabled":false,"following":null,"profile_background_tile":false,"profile_image_url_https":"https:\\/\\/si0.twimg.com\\/sticky\\/default_profile_images\\/default_profile_2_normal.png","utc_offset":null,"profile_sidebar_fill_color":"DDEEF6","is_translator":false,"name":"lozziepopXXX","show_all_inline_media":false,"protected":false,"default_profile_image":true,"profile_background_color":"C0DEED","favourites_count":0,"url":null,"profile_background_image_url":"http:\\/\\/a0.twimg.com\\/images\\/themes\\/theme1\\/bg.png","friends_count":6,"description":"hi im lozziepopXX and i love rob pattinson hes awesome xxxx\\r\\n","profile_link_color":"0084B4","created_at":"Sat Nov 05 16:09:05 +0000 2011","profile_image_url":"http:\\/\\/a0.twimg.com\\/sticky\\/default_profile_images\\/default_profile_2_normal.png","followers_count":1,"follow_request_sent":null,"statuses_count":1,"lang":"en","profile_use_background_image":true,"default_profile":true,"profile_text_color":"333333","status":{"in_reply_to_status_id_str":null,"coordinates":null,"geo":null,"in_reply_to_user_id":null,"in_reply_to_user_id_str":null,"retweeted":false,"in_reply_to_screen_name":null,"created_at":"Sat Nov 05 16:14:27 +0000 2011","contributors":null,"in_reply_to_status_id":null,"favorited":false,"retweet_count":0,"truncated":false,"source":"web","id_str":"132853291590746113","place":null,"id":132853291590746113,"text":"just got twitter lol its quite coll tbh quite like it lol xxxxxxx"},"location":"","screen_name":"lozziepopXX","verified":false},{"id_str":"75301075","id":75301075,"profile_sidebar_border_color":"C0DEED","notifications":null,"profile_background_image_url_https":"https:\\/\\/si0.twimg.com\\/images\\/themes\\/theme1\\/bg.png","listed_count":0,"contributors_enabled":false,"time_zone":null,"geo_enabled":false,"following":null,"profile_background_tile":false,"profile_image_url_https":"https:\\/\\/si0.twimg.com\\/sticky\\/default_profile_images\\/default_profile_3_normal.png","utc_offset":null,"profile_sidebar_fill_color":"DDEEF6","is_translator":false,"name":"MARCELO LEWANDOWSKI","show_all_inline_media":false,"protected":false,"default_profile_image":true,"profile_background_color":"C0DEED","favourites_count":1,"url":null,"profile_background_image_url":"http:\\/\\/a0.twimg.com\\/images\\/themes\\/theme1\\/bg.png","friends_count":44,"description":null,"profile_link_color":"0084B4","created_at":"Fri Sep 18 15:03:31 +0000 2009","profile_image_url":"http:\\/\\/a0.twimg.com\\/sticky\\/default_profile_images\\/default_profile_3_normal.png","followers_count":9,"follow_request_sent":null,"statuses_count":4,"lang":"en","profile_use_background_image":true,"default_profile":true,"profile_text_color":"333333","status":{"in_reply_to_status_id_str":null,"coordinates":null,"geo":null,"in_reply_to_user_id":null,"in_reply_to_user_id_str":null,"retweeted":false,"in_reply_to_screen_name":null,"created_at":"Sun Apr 29 02:31:39 +0000 2012","contributors":null,"in_reply_to_status_id":null,"favorited":false,"retweet_count":0,"truncated":false,"source":"\\u003Ca href=\\"http:\\/\\/twitter.com\\/#!\\/download\\/iphone\\" rel=\\"nofollow\\"\\u003ETwitter for iPhone\\u003C\\/a\\u003E","id_str":"196426492224348160","place":null,"id":196426492224348160,"text":"#Justel\\u00f3Bieber hahhaha naipe!"},"location":null,"screen_name":"mlewan","verified":false},{"id_str":"167939449","id":167939449,"profile_sidebar_border_color":"C0DEED","notifications":null,"profile_background_image_url_https":"https:\\/\\/si0.twimg.com\\/images\\/themes\\/theme1\\/bg.png","listed_count":0,"contributors_enabled":false,"time_zone":null,"geo_enabled":false,"following":null,"profile_background_tile":false,"profile_image_url_https":"https:\\/\\/si0.twimg.com\\/sticky\\/default_profile_images\\/default_profile_6_normal.png","utc_offset":null,"profile_sidebar_fill_color":"DDEEF6","is_translator":false,"name":"Susan Hayward","show_all_inline_media":false,"protected":false,"default_profile_image":true,"profile_background_color":"C0DEED","favourites_count":0,"url":null,"profile_background_image_url":"http:\\/\\/a0.twimg.com\\/images\\/themes\\/theme1\\/bg.png","friends_count":2,"description":null,"profile_link_color":"0084B4","created_at":"Sat Jul 17 23:27:05 +0000 2010","profile_image_url":"http:\\/\\/a0.twimg.com\\/sticky\\/default_profile_images\\/default_profile_6_normal.png","followers_count":0,"follow_request_sent":null,"statuses_count":1,"lang":"en","profile_use_background_image":true,"default_profile":true,"profile_text_color":"333333","status":{"in_reply_to_status_id_str":"18698996034","coordinates":null,"geo":null,"in_reply_to_user_id":21651332,"in_reply_to_user_id_str":"21651332","retweeted":false,"in_reply_to_screen_name":"cpkimball","created_at":"Sun Jul 18 03:15:20 +0000 2010","contributors":null,"in_reply_to_status_id":18698996034,"favorited":false,"retweet_count":0,"truncated":false,"source":"web","id_str":"18810848586","place":null,"id":18810848586,"text":"@cpkimball I make my own vanilla extract,beans of 2 pods,2T dk karo, 1.5 cups vodka.  Cheap.  Excellent flavor."},"location":null,"screen_name":"thorncrag","verified":false},{"id_str":"23025374","id":23025374,"profile_sidebar_border_color":"EEEEEE","notifications":null,"profile_background_image_url_https":"https:\\/\\/si0.twimg.com\\/images\\/themes\\/theme18\\/bg.gif","listed_count":0,"contributors_enabled":false,"time_zone":"Eastern Time (US & Canada)","geo_enabled":false,"following":null,"profile_background_tile":false,"profile_image_url_https":"https:\\/\\/si0.twimg.com\\/profile_images\\/1622336856\\/IMG_0187_normal.JPG","utc_offset":-18000,"profile_sidebar_fill_color":"F6F6F6","is_translator":false,"name":"Keith Phillips","show_all_inline_media":false,"protected":false,"default_profile_image":false,"profile_background_color":"ACDED6","favourites_count":0,"url":null,"profile_background_image_url":"http:\\/\\/a0.twimg.com\\/images\\/themes\\/theme18\\/bg.gif","friends_count":7,"description":"Founder\\/CEO Grand Vista Group Holdings, Inc .Micro Wave scrap tires and waste plastic to energy. ","profile_link_color":"038543","created_at":"Fri Mar 06 03:41:32 +0000 2009","profile_image_url":"http:\\/\\/a0.twimg.com\\/profile_images\\/1622336856\\/IMG_0187_normal.JPG","followers_count":12,"follow_request_sent":null,"statuses_count":7,"lang":"en","profile_use_background_image":true,"default_profile":false,"profile_text_color":"333333","status":{"in_reply_to_status_id_str":null,"coordinates":null,"geo":null,"in_reply_to_user_id":null,"in_reply_to_user_id_str":null,"retweeted":false,"in_reply_to_screen_name":null,"created_at":"Thu Sep 03 20:44:10 +0000 2009","contributors":null,"in_reply_to_status_id":null,"favorited":false,"retweet_count":0,"truncated":false,"source":"web","possibly_sensitive":false,"id_str":"3741614991","place":null,"id":3741614991,"text":"Today was very busy and goverment officials are silly, and look here www.grandvistapoint.com"},"location":"Mid West-Ohio","screen_name":"keithbob","verified":false},{"id_str":"90136400","id":90136400,"profile_sidebar_border_color":"C0DEED","notifications":null,"profile_background_image_url_https":"https:\\/\\/si0.twimg.com\\/images\\/themes\\/theme1\\/bg.png","listed_count":0,"contributors_enabled":false,"time_zone":null,"geo_enabled":false,"following":null,"profile_background_tile":false,"profile_image_url_https":"https:\\/\\/si0.twimg.com\\/sticky\\/default_profile_images\\/default_profile_4_normal.png","utc_offset":null,"profile_sidebar_fill_color":"DDEEF6","is_translator":false,"name":"edward dickel","show_all_inline_media":false,"protected":false,"default_profile_image":true,"profile_background_color":"C0DEED","favourites_count":0,"url":null,"profile_background_image_url":"http:\\/\\/a0.twimg.com\\/images\\/themes\\/theme1\\/bg.png","friends_count":0,"description":"","profile_link_color":"0084B4","created_at":"Sun Nov 15 10:12:18 +0000 2009","profile_image_url":"http:\\/\\/a0.twimg.com\\/sticky\\/default_profile_images\\/default_profile_4_normal.png","followers_count":1,"follow_request_sent":null,"statuses_count":4,"lang":"en","profile_use_background_image":true,"default_profile":true,"profile_text_color":"333333","status":{"in_reply_to_status_id_str":"10687044237","coordinates":null,"geo":null,"in_reply_to_user_id":90136400,"in_reply_to_user_id_str":"90136400","retweeted":false,"in_reply_to_screen_name":"edwardx","created_at":"Thu Mar 18 20:30:59 +0000 2010","contributors":null,"in_reply_to_status_id":10687044237,"favorited":false,"retweet_count":0,"truncated":false,"source":"web","id_str":"10688047081","place":null,"id":10688047081,"text":"@edwardx #787ft any one know why triple 7 to night as BOE2"},"location":"","screen_name":"edwardx","verified":false},{"id_str":"232060784","id":232060784,"profile_sidebar_border_color":"C0DEED","notifications":null,"profile_background_image_url_https":"https:\\/\\/si0.twimg.com\\/images\\/themes\\/theme1\\/bg.png","listed_count":0,"contributors_enabled":false,"time_zone":null,"geo_enabled":false,"following":null,"profile_background_tile":false,"profile_image_url_https":"https:\\/\\/si0.twimg.com\\/profile_images\\/1629400224\\/image_normal.jpg","utc_offset":null,"profile_sidebar_fill_color":"DDEEF6","is_translator":false,"name":"juawn","show_all_inline_media":false,"protected":false,"default_profile_image":false,"profile_background_color":"C0DEED","favourites_count":2,"url":null,"profile_background_image_url":"http:\\/\\/a0.twimg.com\\/images\\/themes\\/theme1\\/bg.png","friends_count":13,"description":null,"profile_link_color":"0084B4","created_at":"Thu Dec 30 04:38:33 +0000 2010","profile_image_url":"http:\\/\\/a0.twimg.com\\/profile_images\\/1629400224\\/image_normal.jpg","followers_count":5,"follow_request_sent":null,"statuses_count":1,"lang":"en","profile_use_background_image":true,"default_profile":true,"profile_text_color":"333333","status":{"in_reply_to_status_id_str":null,"coordinates":null,"geo":null,"in_reply_to_user_id":null,"in_reply_to_user_id_str":null,"retweeted":false,"in_reply_to_screen_name":null,"created_at":"Sat Mar 31 21:19:42 +0000 2012","contributors":null,"in_reply_to_status_id":null,"favorited":false,"retweet_count":0,"truncated":false,"source":"\\u003Ca href=\\"http:\\/\\/www.textnow.com\\" rel=\\"nofollow\\"\\u003ETextNow\\u003C\\/a\\u003E","possibly_sensitive":false,"id_str":"186201123894464514","place":null,"id":186201123894464514,"text":"I love being able to text for free on my #iphone and #ipod using @TextNowApp by @enflick. http:\\/\\/t.co\\/xZIJrQaq"},"location":null,"screen_name":"mr305worldwide","verified":false},{"id_str":"28197062","id":28197062,"profile_sidebar_border_color":"C0DEED","notifications":null,"profile_background_image_url_https":"https:\\/\\/si0.twimg.com\\/images\\/themes\\/theme1\\/bg.png","listed_count":0,"contributors_enabled":false,"time_zone":null,"geo_enabled":false,"following":null,"profile_background_tile":false,"profile_image_url_https":"https:\\/\\/si0.twimg.com\\/sticky\\/default_profile_images\\/default_profile_5_normal.png","utc_offset":null,"profile_sidebar_fill_color":"DDEEF6","is_translator":false,"name":"Arne Saknussemm","show_all_inline_media":false,"protected":false,"default_profile_image":true,"profile_background_color":"C0DEED","favourites_count":0,"url":null,"profile_background_image_url":"http:\\/\\/a0.twimg.com\\/images\\/themes\\/theme1\\/bg.png","friends_count":1,"description":null,"profile_link_color":"0084B4","created_at":"Wed Apr 01 21:12:01 +0000 2009","profile_image_url":"http:\\/\\/a0.twimg.com\\/sticky\\/default_profile_images\\/default_profile_5_normal.png","followers_count":2,"follow_request_sent":null,"statuses_count":0,"lang":"en","profile_use_background_image":true,"default_profile":true,"profile_text_color":"333333","location":null,"screen_name":"kafuffle","verified":false},{"id_str":"543936329","id":543936329,"profile_sidebar_border_color":"C0DEED","notifications":null,"profile_background_image_url_https":"https:\\/\\/si0.twimg.com\\/images\\/themes\\/theme1\\/bg.png","listed_count":0,"contributors_enabled":false,"time_zone":null,"geo_enabled":false,"following":null,"profile_background_tile":false,"profile_image_url_https":"https:\\/\\/si0.twimg.com\\/sticky\\/default_profile_images\\/default_profile_6_normal.png","utc_offset":null,"profile_sidebar_fill_color":"DDEEF6","is_translator":false,"name":"ben mcwilliams","show_all_inline_media":false,"protected":false,"default_profile_image":true,"profile_background_color":"C0DEED","favourites_count":0,"url":null,"profile_background_image_url":"http:\\/\\/a0.twimg.com\\/images\\/themes\\/theme1\\/bg.png","friends_count":0,"description":null,"profile_link_color":"0084B4","created_at":"Tue Apr 03 03:23:09 +0000 2012","profile_image_url":"http:\\/\\/a0.twimg.com\\/sticky\\/default_profile_images\\/default_profile_6_normal.png","followers_count":0,"follow_request_sent":null,"statuses_count":0,"lang":"en","profile_use_background_image":true,"default_profile":true,"profile_text_color":"333333","location":null,"screen_name":"BongWarrior","verified":false},{"id_str":"370692697","id":370692697,"profile_sidebar_border_color":"C0DEED","notifications":null,"profile_background_image_url_https":"https:\\/\\/si0.twimg.com\\/images\\/themes\\/theme1\\/bg.png","listed_count":0,"contributors_enabled":false,"time_zone":null,"geo_enabled":false,"following":null,"profile_background_tile":false,"profile_image_url_https":"https:\\/\\/si0.twimg.com\\/sticky\\/default_profile_images\\/default_profile_4_normal.png","utc_offset":null,"profile_sidebar_fill_color":"DDEEF6","is_translator":false,"name":"DemonWiki","show_all_inline_media":false,"protected":false,"default_profile_image":true,"profile_background_color":"C0DEED","favourites_count":0,"url":null,"profile_background_image_url":"http:\\/\\/a0.twimg.com\\/images\\/themes\\/theme1\\/bg.png","friends_count":1,"description":null,"profile_link_color":"0084B4","created_at":"Fri Sep 09 13:29:51 +0000 2011","profile_image_url":"http:\\/\\/a0.twimg.com\\/sticky\\/default_profile_images\\/default_profile_4_normal.png","followers_count":0,"follow_request_sent":null,"statuses_count":3,"lang":"en","profile_use_background_image":true,"default_profile":true,"profile_text_color":"333333","status":{"in_reply_to_status_id_str":null,"coordinates":null,"geo":null,"in_reply_to_user_id":72254160,"in_reply_to_user_id_str":"72254160","retweeted":false,"in_reply_to_screen_name":"nikita_willy","created_at":"Sat Sep 10 08:59:32 +0000 2011","contributors":null,"in_reply_to_status_id":null,"favorited":false,"retweet_count":0,"truncated":false,"source":"web","id_str":"112450118409666560","place":null,"id":112450118409666560,"text":"@nikita_willy Ap Kbr Ni ...."},"location":null,"screen_name":"WikiDemon","verified":false},{"show_all_inline_media":false,"id":52207573,"profile_use_background_image":true,"profile_text_color":"333333","profile_background_image_url_https":"https:\\/\\/si0.twimg.com\\/images\\/themes\\/theme1\\/bg.png","following":false,"listed_count":6,"utc_offset":-21600,"verified":false,"name":"The Dude","id_str":"52207573","profile_image_url_https":"https:\\/\\/si0.twimg.com\\/profile_images\\/294169023\\/dailyvinyl-logo_500x500_normal.jpg","profile_sidebar_border_color":"C0DEED","is_translator":false,"protected":false,"follow_request_sent":false,"url":"http:\\/\\/www.thedailyvinyl.com","created_at":"Mon Jun 29 22:11:30 +0000 2009","profile_image_url":"http:\\/\\/a0.twimg.com\\/profile_images\\/294169023\\/dailyvinyl-logo_500x500_normal.jpg","profile_background_tile":false,"default_profile_image":false,"followers_count":81,"profile_sidebar_fill_color":"DDEEF6","favourites_count":0,"description":"Celebrate your music memories, especially your love of records and record players.","statuses_count":256,"friends_count":26,"screen_name":"thedailyvinyl","location":"East Nashville, TN","profile_background_color":"C0DEED","lang":"en","contributors_enabled":false,"geo_enabled":false,"status":{"in_reply_to_screen_name":null,"in_reply_to_user_id":null,"truncated":false,"contributors":null,"retweeted":false,"possibly_sensitive":false,"coordinates":null,"geo":null,"retweet_count":0,"in_reply_to_status_id_str":null,"in_reply_to_user_id_str":null,"favorited":false,"source":"\\u003Ca href=\\"http:\\/\\/www.facebook.com\\/twitter\\" rel=\\"nofollow\\"\\u003EFacebook\\u003C\\/a\\u003E","created_at":"Thu May 31 19:33:18 +0000 2012","id_str":"208280009398423553","place":null,"in_reply_to_status_id":null,"id":208280009398423553,"text":"come to Nashville August 11th for the East Nashville Tomato Art Fest. Great music &amp; vendors. http:\\/\\/t.co\\/cRlf3Fpy"},"profile_background_image_url":"http:\\/\\/a0.twimg.com\\/images\\/themes\\/theme1\\/bg.png","notifications":false,"default_profile":true,"profile_link_color":"0084B4","time_zone":"Central Time (US & Canada)"},{"id_str":"531720846","id":531720846,"profile_sidebar_border_color":"C0DEED","notifications":null,"profile_background_image_url_https":"https:\\/\\/si0.twimg.com\\/images\\/themes\\/theme1\\/bg.png","listed_count":0,"contributors_enabled":false,"time_zone":null,"geo_enabled":false,"following":null,"profile_background_tile":false,"profile_image_url_https":"https:\\/\\/si0.twimg.com\\/sticky\\/default_profile_images\\/default_profile_6_normal.png","utc_offset":null,"profile_sidebar_fill_color":"DDEEF6","is_translator":false,"name":"mike Carling ","show_all_inline_media":false,"protected":false,"default_profile_image":true,"profile_background_color":"C0DEED","favourites_count":0,"url":null,"profile_background_image_url":"http:\\/\\/a0.twimg.com\\/images\\/themes\\/theme1\\/bg.png","friends_count":1,"description":null,"profile_link_color":"0084B4","created_at":"Tue Mar 20 21:01:13 +0000 2012","profile_image_url":"http:\\/\\/a0.twimg.com\\/sticky\\/default_profile_images\\/default_profile_6_normal.png","followers_count":0,"follow_request_sent":null,"statuses_count":0,"lang":"en","profile_use_background_image":true,"default_profile":true,"profile_text_color":"333333","location":null,"screen_name":"Mcarling","verified":false},{"id_str":"153952757","id":153952757,"profile_sidebar_border_color":"C0DEED","notifications":null,"profile_background_image_url_https":"https:\\/\\/si0.twimg.com\\/images\\/themes\\/theme1\\/bg.png","listed_count":0,"contributors_enabled":false,"time_zone":null,"geo_enabled":false,"following":null,"profile_background_tile":false,"profile_image_url_https":"https:\\/\\/si0.twimg.com\\/sticky\\/default_profile_images\\/default_profile_0_normal.png","utc_offset":null,"profile_sidebar_fill_color":"DDEEF6","is_translator":false,"name":"Michael","show_all_inline_media":false,"protected":false,"default_profile_image":true,"profile_background_color":"C0DEED","favourites_count":0,"url":null,"profile_background_image_url":"http:\\/\\/a0.twimg.com\\/images\\/themes\\/theme1\\/bg.png","friends_count":0,"description":null,"profile_link_color":"0084B4","created_at":"Thu Jun 10 00:22:35 +0000 2010","profile_image_url":"http:\\/\\/a0.twimg.com\\/sticky\\/default_profile_images\\/default_profile_0_normal.png","followers_count":0,"follow_request_sent":null,"statuses_count":0,"lang":"en","profile_use_background_image":true,"default_profile":true,"profile_text_color":"333333","location":null,"screen_name":"Michaelgokil","verified":false},{"id_str":"14217419","id":14217419,"profile_sidebar_border_color":"545B75","notifications":null,"profile_background_image_url_https":"https:\\/\\/si0.twimg.com\\/profile_background_images\\/2376322\\/oceantwitter.jpg","listed_count":3,"contributors_enabled":false,"time_zone":"Mountain Time (US & Canada)","geo_enabled":true,"following":null,"profile_background_tile":false,"profile_image_url_https":"https:\\/\\/si0.twimg.com\\/profile_images\\/52069529\\/ocean_normal.jpg","utc_offset":-25200,"profile_sidebar_fill_color":"545B75","is_translator":false,"name":"oceanflynn","show_all_inline_media":false,"protected":false,"default_profile_image":false,"profile_background_color":"4B4E5D","favourites_count":9,"url":"http:\\/\\/tinyurl.com\\/3566bw","profile_background_image_url":"http:\\/\\/a0.twimg.com\\/profile_background_images\\/2376322\\/oceantwitter.jpg","friends_count":40,"description":"Exploring open source tools for sharing resources ","profile_link_color":"84B2B5","created_at":"Tue Mar 25 17:58:12 +0000 2008","profile_image_url":"http:\\/\\/a0.twimg.com\\/profile_images\\/52069529\\/ocean_normal.jpg","followers_count":39,"follow_request_sent":null,"statuses_count":845,"lang":"en","profile_use_background_image":true,"default_profile":false,"profile_text_color":"2B3454","status":{"in_reply_to_status_id_str":null,"coordinates":null,"geo":null,"in_reply_to_user_id":null,"in_reply_to_user_id_str":null,"retweeted":false,"in_reply_to_screen_name":null,"created_at":"Sun Jun 03 17:11:20 +0000 2012","contributors":null,"in_reply_to_status_id":null,"favorited":false,"retweet_count":0,"truncated":false,"source":"\\u003Ca href=\\"http:\\/\\/publicize.wp.com\\/\\" rel=\\"nofollow\\"\\u003EWordPress.com\\u003C\\/a\\u003E","possibly_sensitive":false,"id_str":"209331445687267328","place":null,"id":209331445687267328,"text":"Wikipedia codes: a personal cheat sheet http:\\/\\/t.co\\/307Cgm3k"},"location":"Calgary, Alberta","screen_name":"oceanflynn","verified":false},{"id_str":"58268022","id":58268022,"profile_sidebar_border_color":"65B0DA","notifications":null,"profile_background_image_url_https":"https:\\/\\/si0.twimg.com\\/images\\/themes\\/theme10\\/bg.gif","listed_count":1,"contributors_enabled":false,"time_zone":"London","geo_enabled":false,"following":null,"profile_background_tile":true,"profile_image_url_https":"https:\\/\\/si0.twimg.com\\/profile_images\\/1251486156\\/JA__349x402__normal.jpg","utc_offset":0,"profile_sidebar_fill_color":"7AC3EE","is_translator":false,"name":"John Armagh","show_all_inline_media":false,"protected":false,"default_profile_image":false,"profile_background_color":"642d8b","favourites_count":1,"url":null,"profile_background_image_url":"http:\\/\\/a0.twimg.com\\/images\\/themes\\/theme10\\/bg.gif","friends_count":107,"description":"","profile_link_color":"FF0000","created_at":"Sun Jul 19 19:07:44 +0000 2009","profile_image_url":"http:\\/\\/a0.twimg.com\\/profile_images\\/1251486156\\/JA__349x402__normal.jpg","followers_count":36,"follow_request_sent":null,"statuses_count":1001,"lang":"en","profile_use_background_image":true,"default_profile":false,"profile_text_color":"241033","status":{"in_reply_to_status_id_str":null,"coordinates":null,"geo":null,"in_reply_to_user_id":null,"in_reply_to_user_id_str":null,"retweeted":false,"in_reply_to_screen_name":null,"created_at":"Wed Apr 25 20:15:48 +0000 2012","contributors":null,"in_reply_to_status_id":null,"favorited":false,"retweet_count":1,"truncated":false,"source":"\\u003Ca href=\\"http:\\/\\/www.tweetdeck.com\\" rel=\\"nofollow\\"\\u003ETweetDeck\\u003C\\/a\\u003E","id_str":"195244742269865984","place":null,"id":195244742269865984,"text":"So apparently to be the entrepreneurial elite one does not require any intellectual acuity. #Apprentice"},"location":"","screen_name":"JohnArmagh","verified":false},{"id_str":"21228517","id":21228517,"profile_sidebar_border_color":"C0DEED","notifications":null,"profile_background_image_url_https":"https:\\/\\/si0.twimg.com\\/images\\/themes\\/theme1\\/bg.png","listed_count":0,"contributors_enabled":false,"time_zone":null,"geo_enabled":false,"following":null,"profile_background_tile":false,"profile_image_url_https":"https:\\/\\/si0.twimg.com\\/sticky\\/default_profile_images\\/default_profile_2_normal.png","utc_offset":null,"profile_sidebar_fill_color":"DDEEF6","is_translator":false,"name":"sieder christian","show_all_inline_media":false,"protected":false,"default_profile_image":true,"profile_background_color":"C0DEED","favourites_count":0,"url":null,"profile_background_image_url":"http:\\/\\/a0.twimg.com\\/images\\/themes\\/theme1\\/bg.png","friends_count":0,"description":null,"profile_link_color":"0084B4","created_at":"Wed Feb 18 19:03:56 +0000 2009","profile_image_url":"http:\\/\\/a0.twimg.com\\/sticky\\/default_profile_images\\/default_profile_2_normal.png","followers_count":0,"follow_request_sent":null,"statuses_count":0,"lang":"en","profile_use_background_image":true,"default_profile":true,"profile_text_color":"333333","location":null,"screen_name":"kraxler","verified":false},{"show_all_inline_media":false,"id":30936383,"profile_use_background_image":true,"profile_text_color":"6b5d5d","profile_background_image_url_https":"https:\\/\\/si0.twimg.com\\/profile_background_images\\/206080514\\/sakura_bg.jpg","following":false,"listed_count":5,"utc_offset":-18000,"verified":false,"name":"Genevi\\u00e8ve M.","id_str":"30936383","profile_image_url_https":"https:\\/\\/si0.twimg.com\\/profile_images\\/1342306280\\/genevievetwitter_normal.png","profile_sidebar_border_color":"f7fcf8","is_translator":false,"protected":true,"follow_request_sent":false,"url":"http:\\/\\/tearwater.com","created_at":"Mon Apr 13 19:26:06 +0000 2009","profile_image_url":"http:\\/\\/a0.twimg.com\\/profile_images\\/1342306280\\/genevievetwitter_normal.png","profile_background_tile":true,"default_profile_image":false,"followers_count":48,"profile_sidebar_fill_color":"ffffff","favourites_count":15,"description":"my milkshake bringeth all ye gentlefolk to the yarde.","statuses_count":1525,"friends_count":68,"screen_name":"favonian","location":"Atlantic Seaboard","profile_background_color":"c9c9c9","lang":"en","contributors_enabled":false,"geo_enabled":false,"profile_background_image_url":"http:\\/\\/a0.twimg.com\\/profile_background_images\\/206080514\\/sakura_bg.jpg","notifications":false,"default_profile":false,"profile_link_color":"6b5d5d","time_zone":"Eastern Time (US & Canada)"},{"show_all_inline_media":true,"id":19071142,"profile_use_background_image":true,"profile_text_color":"333333","profile_background_image_url_https":"https:\\/\\/si0.twimg.com\\/images\\/themes\\/theme1\\/bg.png","following":false,"listed_count":0,"utc_offset":-18000,"verified":false,"name":"Pablo P","id_str":"19071142","profile_image_url_https":"https:\\/\\/si0.twimg.com\\/profile_images\\/1222874475\\/Untitled_normal.png","profile_sidebar_border_color":"C0DEED","is_translator":false,"protected":false,"follow_request_sent":false,"url":null,"created_at":"Fri Jan 16 15:33:21 +0000 2009","profile_image_url":"http:\\/\\/a0.twimg.com\\/profile_images\\/1222874475\\/Untitled_normal.png","profile_background_tile":false,"default_profile_image":false,"followers_count":25,"profile_sidebar_fill_color":"DDEEF6","favourites_count":0,"description":"","statuses_count":982,"friends_count":154,"screen_name":"jmj713","location":"","profile_background_color":"C0DEED","lang":"en","contributors_enabled":false,"geo_enabled":false,"profile_background_image_url":"http:\\/\\/a0.twimg.com\\/images\\/themes\\/theme1\\/bg.png","notifications":false,"default_profile":true,"profile_link_color":"0084B4","time_zone":"Eastern Time (US & Canada)"},{"id_str":"229115842","id":229115842,"profile_sidebar_border_color":"C0DEED","notifications":null,"profile_background_image_url_https":"https:\\/\\/si0.twimg.com\\/profile_background_images\\/208542022\\/nasa13.jpg","listed_count":0,"contributors_enabled":false,"time_zone":"Eastern Time (US & Canada)","geo_enabled":false,"following":null,"profile_background_tile":true,"profile_image_url_https":"https:\\/\\/si0.twimg.com\\/profile_images\\/1823662593\\/image_normal.jpg","utc_offset":-18000,"profile_sidebar_fill_color":"DDEEF6","is_translator":false,"name":"Ryan Kiernan","show_all_inline_media":false,"protected":true,"default_profile_image":false,"profile_background_color":"C0DEED","favourites_count":3,"url":null,"profile_background_image_url":"http:\\/\\/a0.twimg.com\\/profile_background_images\\/208542022\\/nasa13.jpg","friends_count":229,"description":"","profile_link_color":"0084B4","created_at":"Tue Dec 21 15:27:21 +0000 2010","profile_image_url":"http:\\/\\/a0.twimg.com\\/profile_images\\/1823662593\\/image_normal.jpg","followers_count":74,"follow_request_sent":null,"statuses_count":146,"lang":"en","profile_use_background_image":true,"default_profile":false,"profile_text_color":"333333","location":"","screen_name":"DrKiernan","verified":false},{"id_str":"59360318","id":59360318,"profile_sidebar_border_color":"C0DEED","notifications":null,"profile_background_image_url_https":"https:\\/\\/si0.twimg.com\\/images\\/themes\\/theme1\\/bg.png","listed_count":0,"contributors_enabled":false,"time_zone":null,"geo_enabled":false,"following":null,"profile_background_tile":false,"profile_image_url_https":"https:\\/\\/si0.twimg.com\\/profile_images\\/1207190055\\/c5b170d2-3808-4346-952a-084b9d45d9d6_normal.png","utc_offset":null,"profile_sidebar_fill_color":"DDEEF6","is_translator":false,"name":"Danny Marks","show_all_inline_media":false,"protected":false,"default_profile_image":false,"profile_background_color":"C0DEED","favourites_count":0,"url":null,"profile_background_image_url":"http:\\/\\/a0.twimg.com\\/images\\/themes\\/theme1\\/bg.png","friends_count":36,"description":"Single Christian singer, percussionist, video tech.","profile_link_color":"0084B4","created_at":"Thu Jul 23 04:21:12 +0000 2009","profile_image_url":"http:\\/\\/a0.twimg.com\\/profile_images\\/1207190055\\/c5b170d2-3808-4346-952a-084b9d45d9d6_normal.png","followers_count":7,"follow_request_sent":null,"statuses_count":22,"lang":"en","profile_use_background_image":true,"default_profile":true,"profile_text_color":"333333","status":{"in_reply_to_status_id_str":null,"coordinates":null,"geo":null,"in_reply_to_user_id":null,"in_reply_to_user_id_str":null,"retweeted":false,"in_reply_to_screen_name":null,"created_at":"Sun May 13 02:11:23 +0000 2012","contributors":null,"in_reply_to_status_id":null,"favorited":false,"retweet_count":0,"truncated":false,"source":"\\u003Ca href=\\"http:\\/\\/www.myyearbook.com\\/\\" rel=\\"nofollow\\"\\u003EmyYearbook Share\\u003C\\/a\\u003E","possibly_sensitive":false,"id_str":"201494820978569217","place":null,"id":201494820978569217,"text":"Q: What is something that keeps you going ev... A: My faith in God ... and prayer.: http:\\/\\/t.co\\/jnkbmpLX"},"location":"Iowa","screen_name":"musdan77","verified":false},{"id_str":"202733671","id":202733671,"profile_sidebar_border_color":"CC3366","notifications":null,"profile_background_image_url_https":"https:\\/\\/si0.twimg.com\\/images\\/themes\\/theme11\\/bg.gif","listed_count":0,"contributors_enabled":false,"time_zone":"Central Time (US & Canada)","geo_enabled":false,"following":null,"profile_background_tile":true,"profile_image_url_https":"https:\\/\\/si0.twimg.com\\/profile_images\\/1144795138\\/SSPX0009_normal.jpg","utc_offset":-21600,"profile_sidebar_fill_color":"E5507E","is_translator":false,"name":"Eman Ali","show_all_inline_media":false,"protected":true,"default_profile_image":false,"profile_background_color":"FF6699","favourites_count":0,"url":"http:\\/\\/www.amway.com\\/eman","profile_background_image_url":"http:\\/\\/a0.twimg.com\\/images\\/themes\\/theme11\\/bg.gif","friends_count":15,"description":"I am 24 years old, happinly married to a wonderful man named Nassar;) I have recently graduated with a Biolody degree from  University of Western Ontario.","profile_link_color":"B40B43","created_at":"Thu Oct 14 18:12:32 +0000 2010","profile_image_url":"http:\\/\\/a0.twimg.com\\/profile_images\\/1144795138\\/SSPX0009_normal.jpg","followers_count":1,"follow_request_sent":null,"statuses_count":0,"lang":"en","profile_use_background_image":true,"default_profile":false,"profile_text_color":"362720","location":"Chicago","screen_name":"CanadianEman","verified":false},{"id_str":"260446724","id":260446724,"profile_sidebar_border_color":"C0DEED","notifications":null,"profile_background_image_url_https":"https:\\/\\/si0.twimg.com\\/images\\/themes\\/theme1\\/bg.png","listed_count":0,"contributors_enabled":false,"time_zone":"Eastern Time (US & Canada)","geo_enabled":true,"following":null,"profile_background_tile":false,"profile_image_url_https":"https:\\/\\/si0.twimg.com\\/profile_images\\/1261082368\\/bcarder072-2_normal.jpg","utc_offset":-18000,"profile_sidebar_fill_color":"DDEEF6","is_translator":false,"name":"Barbara Carder","show_all_inline_media":true,"protected":false,"default_profile_image":false,"profile_background_color":"C0DEED","favourites_count":0,"url":"http:\\/\\/westspit.blogspot.com","profile_background_image_url":"http:\\/\\/a0.twimg.com\\/images\\/themes\\/theme1\\/bg.png","friends_count":12,"description":"","profile_link_color":"0084B4","created_at":"Thu Mar 03 22:18:16 +0000 2011","profile_image_url":"http:\\/\\/a0.twimg.com\\/profile_images\\/1261082368\\/bcarder072-2_normal.jpg","followers_count":3,"follow_request_sent":null,"statuses_count":4,"lang":"en","profile_use_background_image":true,"default_profile":true,"profile_text_color":"333333","status":{"in_reply_to_status_id_str":null,"coordinates":null,"geo":null,"in_reply_to_user_id":null,"in_reply_to_user_id_str":null,"retweeted":false,"in_reply_to_screen_name":null,"created_at":"Wed May 23 19:25:27 +0000 2012","contributors":null,"in_reply_to_status_id":null,"favorited":false,"retweet_count":0,"truncated":false,"source":"web","id_str":"205378931564625920","place":null,"id":205378931564625920,"text":"I think Niall is hitting the \'nail\' on the head . . . passionate leaders with vision, role of property-ownership."},"location":"Hilton, NY","screen_name":"barbaracarder","verified":false},{"id_str":"92737965","id":92737965,"profile_sidebar_border_color":"C0DEED","notifications":null,"profile_background_image_url_https":"https:\\/\\/si0.twimg.com\\/images\\/themes\\/theme1\\/bg.png","listed_count":0,"contributors_enabled":false,"time_zone":null,"geo_enabled":false,"following":null,"profile_background_tile":false,"profile_image_url_https":"https:\\/\\/si0.twimg.com\\/sticky\\/default_profile_images\\/default_profile_5_normal.png","utc_offset":null,"profile_sidebar_fill_color":"DDEEF6","is_translator":false,"name":"salih colakoglu","show_all_inline_media":false,"protected":false,"default_profile_image":true,"profile_background_color":"C0DEED","favourites_count":0,"url":null,"profile_background_image_url":"http:\\/\\/a0.twimg.com\\/images\\/themes\\/theme1\\/bg.png","friends_count":2,"description":null,"profile_link_color":"0084B4","created_at":"Thu Nov 26 11:44:48 +0000 2009","profile_image_url":"http:\\/\\/a0.twimg.com\\/sticky\\/default_profile_images\\/default_profile_5_normal.png","followers_count":0,"follow_request_sent":null,"statuses_count":0,"lang":"en","profile_use_background_image":true,"default_profile":true,"profile_text_color":"333333","location":null,"screen_name":"asc85","verified":false},{"id_str":"86557527","id":86557527,"profile_sidebar_border_color":"181A1E","notifications":null,"profile_background_image_url_https":"https:\\/\\/si0.twimg.com\\/images\\/themes\\/theme9\\/bg.gif","listed_count":0,"contributors_enabled":false,"time_zone":"Eastern Time (US & Canada)","geo_enabled":false,"following":null,"profile_background_tile":false,"profile_image_url_https":"https:\\/\\/si0.twimg.com\\/profile_images\\/501055217\\/Bulwersator_Stupa01_small_normal.jpg","utc_offset":-18000,"profile_sidebar_fill_color":"252429","is_translator":false,"name":"Bulwersator","show_all_inline_media":false,"protected":false,"default_profile_image":false,"profile_background_color":"1A1B1F","favourites_count":0,"url":null,"profile_background_image_url":"http:\\/\\/a0.twimg.com\\/images\\/themes\\/theme9\\/bg.gif","friends_count":0,"description":"","profile_link_color":"2FC2EF","created_at":"Sat Oct 31 16:27:00 +0000 2009","profile_image_url":"http:\\/\\/a0.twimg.com\\/profile_images\\/501055217\\/Bulwersator_Stupa01_small_normal.jpg","followers_count":1,"follow_request_sent":null,"statuses_count":63,"lang":"en","profile_use_background_image":true,"default_profile":false,"profile_text_color":"666666","status":{"in_reply_to_status_id_str":null,"coordinates":null,"geo":null,"in_reply_to_user_id":null,"in_reply_to_user_id_str":null,"retweeted":false,"in_reply_to_screen_name":null,"created_at":"Sat Jun 02 23:00:19 +0000 2012","contributors":null,"in_reply_to_status_id":null,"favorited":false,"retweet_count":0,"truncated":false,"source":"\\u003Ca href=\\"http:\\/\\/www.facebook.com\\/twitter\\" rel=\\"nofollow\\"\\u003EFacebook\\u003C\\/a\\u003E","possibly_sensitive":false,"id_str":"209056880545382400","place":null,"id":209056880545382400,"text":"Najlepsze miejsce do osdluchania kawalkow? Przejdz na http:\\/\\/t.co\\/BcomQrNY i kliknij na barze nawigacyjnym \\"muzyka\\" :)&gt;"},"location":"","screen_name":"Bulwersator","verified":false},{"id_str":"73525177","id":73525177,"profile_sidebar_border_color":"829D5E","notifications":null,"profile_background_image_url_https":"https:\\/\\/si0.twimg.com\\/images\\/themes\\/theme5\\/bg.gif","listed_count":0,"contributors_enabled":false,"time_zone":"Bangkok","geo_enabled":false,"following":null,"profile_background_tile":false,"profile_image_url_https":"https:\\/\\/si0.twimg.com\\/profile_images\\/413944609\\/104-0465_IMG_normal.JPG","utc_offset":25200,"profile_sidebar_fill_color":"99CC33","is_translator":false,"name":"chatree  meesomburn","show_all_inline_media":false,"protected":true,"default_profile_image":false,"profile_background_color":"352726","favourites_count":0,"url":null,"profile_background_image_url":"http:\\/\\/a0.twimg.com\\/images\\/themes\\/theme5\\/bg.gif","friends_count":19,"description":"","profile_link_color":"D02B55","created_at":"Sat Sep 12 00:21:45 +0000 2009","profile_image_url":"http:\\/\\/a0.twimg.com\\/profile_images\\/413944609\\/104-0465_IMG_normal.JPG","followers_count":0,"follow_request_sent":null,"statuses_count":1,"lang":"en","profile_use_background_image":true,"default_profile":false,"profile_text_color":"3E4415","location":"","screen_name":"Mathsci","verified":false},{"id_str":"14492339","id":14492339,"profile_sidebar_border_color":"C0DEED","notifications":null,"profile_background_image_url_https":"https:\\/\\/si0.twimg.com\\/images\\/themes\\/theme1\\/bg.png","listed_count":0,"contributors_enabled":false,"time_zone":"Hawaii","geo_enabled":false,"following":null,"profile_background_tile":false,"profile_image_url_https":"https:\\/\\/si0.twimg.com\\/sticky\\/default_profile_images\\/default_profile_1_normal.png","utc_offset":-36000,"profile_sidebar_fill_color":"DDEEF6","is_translator":false,"name":"p64","show_all_inline_media":false,"protected":false,"default_profile_image":true,"profile_background_color":"C0DEED","favourites_count":0,"url":null,"profile_background_image_url":"http:\\/\\/a0.twimg.com\\/images\\/themes\\/theme1\\/bg.png","friends_count":1,"description":"","profile_link_color":"0084B4","created_at":"Wed Apr 23 12:23:30 +0000 2008","profile_image_url":"http:\\/\\/a0.twimg.com\\/sticky\\/default_profile_images\\/default_profile_1_normal.png","followers_count":1,"follow_request_sent":null,"statuses_count":2,"lang":"ja","profile_use_background_image":true,"default_profile":true,"profile_text_color":"333333","status":{"in_reply_to_status_id_str":null,"coordinates":null,"geo":null,"in_reply_to_user_id":null,"in_reply_to_user_id_str":null,"retweeted":false,"in_reply_to_screen_name":null,"created_at":"Thu Jul 23 08:04:41 +0000 2009","contributors":null,"in_reply_to_status_id":null,"favorited":false,"retweet_count":0,"truncated":false,"source":"web","id_str":"2794890132","place":null,"id":2794890132,"text":"\\uff11\\u5e74\\u4ee5\\u4e0a\\u3082\\u306e\\u9593\\u3001\\u4ffa\\u306f\\u4f55\\u3082\\u3057\\u3066\\u306a\\u3044\\u3093\\u3060\\u306a\\u3042"},"location":"","screen_name":"p64","verified":false},{"id_str":"39706602","id":39706602,"profile_sidebar_border_color":"eeeeee","notifications":null,"profile_background_image_url_https":"https:\\/\\/si0.twimg.com\\/images\\/themes\\/theme14\\/bg.gif","listed_count":1,"contributors_enabled":false,"time_zone":"Greenland","geo_enabled":false,"following":null,"profile_background_tile":true,"profile_image_url_https":"https:\\/\\/si0.twimg.com\\/profile_images\\/1272289014\\/Arjanmuts_normal.jpg","utc_offset":-10800,"profile_sidebar_fill_color":"efefef","is_translator":false,"name":"Arjan Nijboer","show_all_inline_media":false,"protected":false,"default_profile_image":false,"profile_background_color":"131516","favourites_count":0,"url":null,"profile_background_image_url":"http:\\/\\/a0.twimg.com\\/images\\/themes\\/theme14\\/bg.gif","friends_count":120,"description":"","profile_link_color":"009999","created_at":"Wed May 13 07:06:59 +0000 2009","profile_image_url":"http:\\/\\/a0.twimg.com\\/profile_images\\/1272289014\\/Arjanmuts_normal.jpg","followers_count":71,"follow_request_sent":null,"statuses_count":99,"lang":"en","profile_use_background_image":true,"default_profile":false,"profile_text_color":"333333","status":{"in_reply_to_status_id_str":null,"coordinates":null,"geo":null,"in_reply_to_user_id":146407291,"in_reply_to_user_id_str":"146407291","retweeted":false,"in_reply_to_screen_name":"Maartendj82","created_at":"Sat Dec 10 15:47:02 +0000 2011","contributors":null,"in_reply_to_status_id":null,"favorited":false,"retweet_count":0,"truncated":false,"source":"\\u003Ca href=\\"http:\\/\\/mobile.twitter.com\\" rel=\\"nofollow\\"\\u003EMobile Web\\u003C\\/a\\u003E","id_str":"145529965704773633","place":null,"id":145529965704773633,"text":"@Maartendj82 @RedSn0w_JB  how soon is soon?"},"location":"Hoogeveen","screen_name":"arjann","verified":false},{"id_str":"3113091","id":3113091,"profile_sidebar_border_color":"87bc44","notifications":null,"profile_background_image_url_https":"https:\\/\\/si0.twimg.com\\/images\\/themes\\/theme1\\/bg.png","listed_count":0,"contributors_enabled":false,"time_zone":"Hawaii","geo_enabled":false,"following":null,"profile_background_tile":false,"profile_image_url_https":"https:\\/\\/si0.twimg.com\\/sticky\\/default_profile_images\\/default_profile_2_normal.png","utc_offset":-36000,"profile_sidebar_fill_color":"e0ff92","is_translator":false,"name":"goodday","show_all_inline_media":false,"protected":false,"default_profile_image":true,"profile_background_color":"9ae4e8","favourites_count":0,"url":null,"profile_background_image_url":"http:\\/\\/a0.twimg.com\\/images\\/themes\\/theme1\\/bg.png","friends_count":0,"description":null,"profile_link_color":"0000ff","created_at":"Sun Apr 01 08:51:27 +0000 2007","profile_image_url":"http:\\/\\/a0.twimg.com\\/sticky\\/default_profile_images\\/default_profile_2_normal.png","followers_count":75,"follow_request_sent":null,"statuses_count":1,"lang":"en","profile_use_background_image":true,"default_profile":false,"profile_text_color":"000000","status":{"in_reply_to_status_id_str":null,"coordinates":null,"geo":null,"in_reply_to_user_id":null,"in_reply_to_user_id_str":null,"retweeted":false,"in_reply_to_screen_name":null,"created_at":"Fri Jan 22 18:53:55 +0000 2010","contributors":null,"in_reply_to_status_id":null,"favorited":false,"retweet_count":0,"truncated":false,"source":"\\u003Ca href=\\"http:\\/\\/dev.twitter.com\\/\\" rel=\\"nofollow\\"\\u003EAPI\\u003C\\/a\\u003E","id_str":"8080190963","place":null,"id":8080190963,"text":"veal"},"location":null,"screen_name":"goodday","verified":false},{"show_all_inline_media":false,"id":7636002,"profile_use_background_image":true,"profile_text_color":"000000","profile_background_image_url_https":"https:\\/\\/si0.twimg.com\\/profile_background_images\\/2400075\\/paper.jpg","following":null,"listed_count":75,"utc_offset":-28800,"verified":false,"name":"Lisa M. Lane","id_str":"7636002","profile_image_url_https":"https:\\/\\/si0.twimg.com\\/profile_images\\/1223244040\\/LisaJan2011smile_normal.png","profile_sidebar_border_color":"064E5F","is_translator":false,"protected":false,"follow_request_sent":null,"url":"http:\\/\\/lisahistory.net\\/wordpress","created_at":"Sun Jul 22 07:23:33 +0000 2007","profile_image_url":"http:\\/\\/a0.twimg.com\\/profile_images\\/1223244040\\/LisaJan2011smile_normal.png","profile_background_tile":true,"default_profile_image":false,"followers_count":836,"profile_sidebar_fill_color":"9193FF","favourites_count":71,"description":"College history instructor with a penchant for online teaching, Moodle, web 2.0....","statuses_count":5324,"friends_count":219,"screen_name":"LisaMLane","location":"Oceanside, CA","profile_background_color":"9ae4e8","lang":"en","contributors_enabled":false,"geo_enabled":false,"status":{"in_reply_to_screen_name":"missoularedhead","in_reply_to_user_id":95952428,"truncated":false,"contributors":null,"retweeted":false,"coordinates":null,"geo":null,"retweet_count":0,"in_reply_to_status_id_str":"209702409910484992","in_reply_to_user_id_str":"95952428","favorited":false,"source":"\\u003Ca href=\\"http:\\/\\/seesmic.com\\/\\" rel=\\"nofollow\\"\\u003ESeesmic\\u003C\\/a\\u003E","created_at":"Mon Jun 04 17:48:47 +0000 2012","id_str":"209703256224571394","place":null,"in_reply_to_status_id":209702409910484992,"id":209703256224571394,"text":"@missoularedhead for an online class, it\'s a pdf they can print anyway - did you use pediapress?"},"profile_background_image_url":"http:\\/\\/a0.twimg.com\\/profile_background_images\\/2400075\\/paper.jpg","notifications":null,"default_profile":false,"profile_link_color":"0000ff","time_zone":"Pacific Time (US & Canada)"},{"id_str":"8896642","id":8896642,"profile_sidebar_border_color":"87bc44","notifications":null,"profile_background_image_url_https":"https:\\/\\/si0.twimg.com\\/images\\/themes\\/theme1\\/bg.png","listed_count":0,"contributors_enabled":false,"time_zone":null,"geo_enabled":false,"following":null,"profile_background_tile":false,"profile_image_url_https":"https:\\/\\/si0.twimg.com\\/profile_images\\/2153280254\\/dmcq_normal.jpg","utc_offset":null,"profile_sidebar_fill_color":"e0ff92","is_translator":false,"name":"Darren McQuillan","show_all_inline_media":false,"protected":false,"default_profile_image":false,"profile_background_color":"9ae4e8","favourites_count":0,"url":null,"profile_background_image_url":"http:\\/\\/a0.twimg.com\\/images\\/themes\\/theme1\\/bg.png","friends_count":23,"description":"giving up computing related puns for lint","profile_link_color":"0000ff","created_at":"Sat Sep 15 12:39:49 +0000 2007","profile_image_url":"http:\\/\\/a0.twimg.com\\/profile_images\\/2153280254\\/dmcq_normal.jpg","followers_count":8,"follow_request_sent":null,"statuses_count":18,"lang":"en","profile_use_background_image":true,"default_profile":false,"profile_text_color":"000000","status":{"in_reply_to_status_id_str":null,"coordinates":null,"geo":null,"in_reply_to_user_id":17336372,"in_reply_to_user_id_str":"17336372","retweeted":false,"in_reply_to_screen_name":"frankieboyle","created_at":"Fri May 11 13:29:13 +0000 2012","contributors":null,"in_reply_to_status_id":null,"favorited":false,"retweet_count":0,"truncated":false,"source":"\\u003Ca href=\\"http:\\/\\/tweetlogix.com\\" rel=\\"nofollow\\"\\u003ETweetlogix\\u003C\\/a\\u003E","possibly_sensitive":false,"id_str":"200940626521493505","place":null,"id":200940626521493505,"text":"@frankieboyle a new peas wall for Belfast: http:\\/\\/t.co\\/pxDdA7Gu"},"location":"Belfast","screen_name":"DMcQ","verified":false},{"id_str":"47945189","id":47945189,"profile_sidebar_border_color":"C0DEED","notifications":null,"profile_background_image_url_https":"https:\\/\\/si0.twimg.com\\/images\\/themes\\/theme1\\/bg.png","listed_count":0,"contributors_enabled":false,"time_zone":null,"geo_enabled":false,"following":null,"profile_background_tile":false,"profile_image_url_https":"https:\\/\\/si0.twimg.com\\/sticky\\/default_profile_images\\/default_profile_5_normal.png","utc_offset":null,"profile_sidebar_fill_color":"DDEEF6","is_translator":false,"name":" henrique  morais","show_all_inline_media":false,"protected":false,"default_profile_image":true,"profile_background_color":"C0DEED","favourites_count":0,"url":null,"profile_background_image_url":"http:\\/\\/a0.twimg.com\\/images\\/themes\\/theme1\\/bg.png","friends_count":26,"description":null,"profile_link_color":"0084B4","created_at":"Wed Jun 17 12:34:17 +0000 2009","profile_image_url":"http:\\/\\/a0.twimg.com\\/sticky\\/default_profile_images\\/default_profile_5_normal.png","followers_count":6,"follow_request_sent":null,"statuses_count":0,"lang":"en","profile_use_background_image":true,"default_profile":true,"profile_text_color":"333333","location":null,"screen_name":"rickmorais","verified":false},{"id_str":"8695362","id":8695362,"profile_sidebar_border_color":"87bc44","notifications":null,"profile_background_image_url_https":"https:\\/\\/si0.twimg.com\\/images\\/themes\\/theme1\\/bg.png","listed_count":0,"contributors_enabled":false,"time_zone":"Quito","geo_enabled":false,"following":null,"profile_background_tile":false,"profile_image_url_https":"https:\\/\\/si0.twimg.com\\/sticky\\/default_profile_images\\/default_profile_4_normal.png","utc_offset":-18000,"profile_sidebar_fill_color":"e0ff92","is_translator":false,"name":"mikelynch","show_all_inline_media":false,"protected":false,"default_profile_image":true,"profile_background_color":"9ae4e8","favourites_count":0,"url":null,"profile_background_image_url":"http:\\/\\/a0.twimg.com\\/images\\/themes\\/theme1\\/bg.png","friends_count":1,"description":null,"profile_link_color":"0000ff","created_at":"Wed Sep 05 21:24:44 +0000 2007","profile_image_url":"http:\\/\\/a0.twimg.com\\/sticky\\/default_profile_images\\/default_profile_4_normal.png","followers_count":11,"follow_request_sent":null,"statuses_count":1,"lang":"en","profile_use_background_image":true,"default_profile":false,"profile_text_color":"000000","status":{"in_reply_to_status_id_str":null,"coordinates":null,"geo":null,"in_reply_to_user_id":null,"in_reply_to_user_id_str":null,"retweeted":false,"in_reply_to_screen_name":null,"created_at":"Wed Sep 05 21:25:42 +0000 2007","contributors":null,"in_reply_to_status_id":null,"favorited":false,"retweet_count":0,"truncated":false,"source":"web","id_str":"249779362","place":null,"id":249779362,"text":"setting up this account"},"location":null,"screen_name":"mikelynch","verified":false},{"id_str":"302078014","id":302078014,"profile_sidebar_border_color":"C0DEED","notifications":null,"profile_background_image_url_https":"https:\\/\\/si0.twimg.com\\/images\\/themes\\/theme1\\/bg.png","listed_count":0,"contributors_enabled":false,"time_zone":null,"geo_enabled":false,"following":null,"profile_background_tile":false,"profile_image_url_https":"https:\\/\\/si0.twimg.com\\/sticky\\/default_profile_images\\/default_profile_0_normal.png","utc_offset":null,"profile_sidebar_fill_color":"DDEEF6","is_translator":false,"name":"z\\u00ecz\\u00ec","show_all_inline_media":false,"protected":false,"default_profile_image":true,"profile_background_color":"C0DEED","favourites_count":0,"url":null,"profile_background_image_url":"http:\\/\\/a0.twimg.com\\/images\\/themes\\/theme1\\/bg.png","friends_count":2,"description":null,"profile_link_color":"0084B4","created_at":"Fri May 20 15:21:58 +0000 2011","profile_image_url":"http:\\/\\/a0.twimg.com\\/sticky\\/default_profile_images\\/default_profile_0_normal.png","followers_count":1,"follow_request_sent":null,"statuses_count":0,"lang":"it","profile_use_background_image":true,"default_profile":true,"profile_text_color":"333333","location":null,"screen_name":"zz47","verified":false},{"show_all_inline_media":false,"id":538660834,"profile_use_background_image":true,"profile_text_color":"333333","profile_background_image_url_https":"https:\\/\\/si0.twimg.com\\/images\\/themes\\/theme1\\/bg.png","following":false,"listed_count":0,"utc_offset":-18000,"verified":false,"name":"Joe Sperrazza","id_str":"538660834","profile_image_url_https":"https:\\/\\/si0.twimg.com\\/profile_images\\/1979927253\\/Joey_normal.jpg","profile_sidebar_border_color":"C0DEED","is_translator":false,"protected":true,"follow_request_sent":false,"url":null,"created_at":"Wed Mar 28 02:37:44 +0000 2012","profile_image_url":"http:\\/\\/a0.twimg.com\\/profile_images\\/1979927253\\/Joey_normal.jpg","profile_background_tile":false,"default_profile_image":false,"followers_count":32,"profile_sidebar_fill_color":"DDEEF6","favourites_count":0,"description":"","statuses_count":31,"friends_count":132,"screen_name":"JoeSperrazza","location":"","profile_background_color":"C0DEED","lang":"en","contributors_enabled":false,"geo_enabled":false,"profile_background_image_url":"http:\\/\\/a0.twimg.com\\/images\\/themes\\/theme1\\/bg.png","notifications":false,"default_profile":true,"profile_link_color":"0084B4","time_zone":"Eastern Time (US & Canada)"},{"id_str":"8685792","id":8685792,"profile_sidebar_border_color":"87bc44","notifications":null,"profile_background_image_url_https":"https:\\/\\/si0.twimg.com\\/images\\/themes\\/theme1\\/bg.png","listed_count":0,"contributors_enabled":false,"time_zone":null,"geo_enabled":false,"following":null,"profile_background_tile":false,"profile_image_url_https":"https:\\/\\/si0.twimg.com\\/sticky\\/default_profile_images\\/default_profile_3_normal.png","utc_offset":null,"profile_sidebar_fill_color":"e0ff92","is_translator":false,"name":"Ricjac","show_all_inline_media":false,"protected":false,"default_profile_image":true,"profile_background_color":"9ae4e8","favourites_count":0,"url":null,"profile_background_image_url":"http:\\/\\/a0.twimg.com\\/images\\/themes\\/theme1\\/bg.png","friends_count":1,"description":null,"profile_link_color":"0000ff","created_at":"Wed Sep 05 16:05:44 +0000 2007","profile_image_url":"http:\\/\\/a0.twimg.com\\/sticky\\/default_profile_images\\/default_profile_3_normal.png","followers_count":2,"follow_request_sent":null,"statuses_count":5,"lang":"en","profile_use_background_image":true,"default_profile":false,"profile_text_color":"000000","status":{"in_reply_to_status_id_str":null,"coordinates":null,"geo":null,"in_reply_to_user_id":null,"in_reply_to_user_id_str":null,"retweeted":false,"in_reply_to_screen_name":null,"created_at":"Fri Apr 04 15:12:23 +0000 2008","contributors":null,"in_reply_to_status_id":null,"favorited":false,"retweet_count":0,"truncated":false,"source":"\\u003Ca href=\\"http:\\/\\/twitter.com\\/devices\\" rel=\\"nofollow\\"\\u003Etxt\\u003C\\/a\\u003E","id_str":"782863845","place":null,"id":782863845,"text":"Fuck you"},"location":null,"screen_name":"Ricjac","verified":false},{"id_str":"15239303","id":15239303,"profile_sidebar_border_color":"C0DEED","notifications":null,"profile_background_image_url_https":"https:\\/\\/si0.twimg.com\\/images\\/themes\\/theme1\\/bg.png","listed_count":0,"contributors_enabled":false,"time_zone":"Quito","geo_enabled":false,"following":null,"profile_background_tile":false,"profile_image_url_https":"https:\\/\\/si0.twimg.com\\/sticky\\/default_profile_images\\/default_profile_2_normal.png","utc_offset":-18000,"profile_sidebar_fill_color":"DDEEF6","is_translator":false,"name":"godofredo29","show_all_inline_media":false,"protected":false,"default_profile_image":true,"profile_background_color":"C0DEED","favourites_count":1,"url":null,"profile_background_image_url":"http:\\/\\/a0.twimg.com\\/images\\/themes\\/theme1\\/bg.png","friends_count":11,"description":null,"profile_link_color":"0084B4","created_at":"Thu Jun 26 02:12:50 +0000 2008","profile_image_url":"http:\\/\\/a0.twimg.com\\/sticky\\/default_profile_images\\/default_profile_2_normal.png","followers_count":0,"follow_request_sent":null,"statuses_count":5,"lang":"en","profile_use_background_image":true,"default_profile":true,"profile_text_color":"333333","status":{"in_reply_to_status_id_str":null,"coordinates":null,"geo":null,"in_reply_to_user_id":null,"in_reply_to_user_id_str":null,"retweeted":false,"in_reply_to_screen_name":null,"created_at":"Sat Jun 04 00:11:32 +0000 2011","contributors":null,"in_reply_to_status_id":null,"favorited":false,"retweet_count":0,"truncated":false,"source":"web","id_str":"76803232978059264","place":null,"id":76803232978059264,"text":"I got the HPV vaccine in 2006."},"location":null,"screen_name":"godofredo29","verified":false},{"id_str":"269340865","id":269340865,"profile_sidebar_border_color":"C0DEED","notifications":null,"profile_background_image_url_https":"https:\\/\\/si0.twimg.com\\/images\\/themes\\/theme1\\/bg.png","listed_count":0,"contributors_enabled":false,"time_zone":null,"geo_enabled":false,"following":null,"profile_background_tile":false,"profile_image_url_https":"https:\\/\\/si0.twimg.com\\/sticky\\/default_profile_images\\/default_profile_3_normal.png","utc_offset":null,"profile_sidebar_fill_color":"DDEEF6","is_translator":false,"name":"Jo Wo","show_all_inline_media":false,"protected":false,"default_profile_image":true,"profile_background_color":"C0DEED","favourites_count":0,"url":null,"profile_background_image_url":"http:\\/\\/a0.twimg.com\\/images\\/themes\\/theme1\\/bg.png","friends_count":8,"description":null,"profile_link_color":"0084B4","created_at":"Sun Mar 20 15:41:36 +0000 2011","profile_image_url":"http:\\/\\/a0.twimg.com\\/sticky\\/default_profile_images\\/default_profile_3_normal.png","followers_count":0,"follow_request_sent":null,"statuses_count":0,"lang":"en","profile_use_background_image":true,"default_profile":true,"profile_text_color":"333333","location":null,"screen_name":"jowaninpensans","verified":false},{"id_str":"18338853","id":18338853,"profile_sidebar_border_color":"C0DEED","notifications":null,"profile_background_image_url_https":"https:\\/\\/si0.twimg.com\\/images\\/themes\\/theme1\\/bg.png","listed_count":0,"contributors_enabled":false,"time_zone":null,"geo_enabled":false,"following":null,"profile_background_tile":false,"profile_image_url_https":"https:\\/\\/si0.twimg.com\\/sticky\\/default_profile_images\\/default_profile_1_normal.png","utc_offset":null,"profile_sidebar_fill_color":"DDEEF6","is_translator":false,"name":"centralva","show_all_inline_media":false,"protected":false,"default_profile_image":true,"profile_background_color":"C0DEED","favourites_count":0,"url":null,"profile_background_image_url":"http:\\/\\/a0.twimg.com\\/images\\/themes\\/theme1\\/bg.png","friends_count":0,"description":null,"profile_link_color":"0084B4","created_at":"Tue Dec 23 18:27:49 +0000 2008","profile_image_url":"http:\\/\\/a0.twimg.com\\/sticky\\/default_profile_images\\/default_profile_1_normal.png","followers_count":3,"follow_request_sent":null,"statuses_count":1,"lang":"en","profile_use_background_image":true,"default_profile":true,"profile_text_color":"333333","status":{"in_reply_to_status_id_str":null,"coordinates":null,"geo":null,"in_reply_to_user_id":null,"in_reply_to_user_id_str":null,"retweeted":false,"in_reply_to_screen_name":null,"created_at":"Tue Dec 23 18:28:06 +0000 2008","contributors":null,"in_reply_to_status_id":null,"favorited":false,"retweet_count":0,"truncated":false,"source":"web","id_str":"1074759311","place":null,"id":1074759311,"text":"Time to represent!"},"location":null,"screen_name":"centralva","verified":false}]'
p3
aS'[{"show_all_inline_media":false,"id":208224758,"profile_use_background_image":true,"profile_text_color":"333333","profile_background_image_url_https":"https:\\/\\/si0.twimg.com\\/images\\/themes\\/theme1\\/bg.png","following":false,"listed_count":0,"utc_offset":-25200,"verified":false,"name":"Ron Bird","id_str":"208224758","profile_image_url_https":"https:\\/\\/si0.twimg.com\\/profile_images\\/1527554023\\/me_normal.jpg","profile_sidebar_border_color":"C0DEED","is_translator":false,"protected":false,"follow_request_sent":false,"url":null,"created_at":"Tue Oct 26 22:00:00 +0000 2010","profile_image_url":"http:\\/\\/a0.twimg.com\\/profile_images\\/1527554023\\/me_normal.jpg","profile_background_tile":false,"default_profile_image":false,"followers_count":5,"profile_sidebar_fill_color":"DDEEF6","favourites_count":0,"description":"","statuses_count":14,"friends_count":6,"screen_name":"illazilla","location":"The desert","profile_background_color":"C0DEED","lang":"en","contributors_enabled":false,"geo_enabled":false,"status":{"in_reply_to_screen_name":null,"in_reply_to_user_id":null,"truncated":false,"contributors":null,"retweeted":false,"possibly_sensitive":false,"coordinates":null,"geo":null,"retweet_count":0,"in_reply_to_status_id_str":null,"in_reply_to_user_id_str":null,"favorited":false,"source":"\\u003Ca href=\\"http:\\/\\/instagr.am\\" rel=\\"nofollow\\"\\u003EInstagram\\u003C\\/a\\u003E","created_at":"Tue May 22 03:00:12 +0000 2012","id_str":"204768598315630592","place":null,"in_reply_to_status_id":null,"id":204768598315630592,"text":"The best... http:\\/\\/t.co\\/N0rytfPo"},"profile_background_image_url":"http:\\/\\/a0.twimg.com\\/images\\/themes\\/theme1\\/bg.png","notifications":false,"default_profile":true,"profile_link_color":"0084B4","time_zone":"Arizona"}]'
p4
a.